
lUprog.elf:     file format elf32-littlearm

Sections:
Idx Name          Size      VMA       LMA       File off  Algn
  0 .isr_vector   0000010c  08000000  08000000  00010000  2**0
                  CONTENTS, ALLOC, LOAD, READONLY, DATA
  1 .text         00005610  0800010c  0800010c  0001010c  2**2
                  CONTENTS, ALLOC, LOAD, READONLY, CODE
  2 .rodata       00000b88  0800571c  0800571c  0001571c  2**2
                  CONTENTS, ALLOC, LOAD, READONLY, DATA
  3 .ARM.extab    00000000  080062a4  080062a4  000200d8  2**0
                  CONTENTS
  4 .ARM          00000000  080062a4  080062a4  000200d8  2**0
                  CONTENTS
  5 .preinit_array 00000000  080062a4  080062a4  000200d8  2**0
                  CONTENTS, ALLOC, LOAD, DATA
  6 .init_array   00000004  080062a4  080062a4  000162a4  2**2
                  CONTENTS, ALLOC, LOAD, DATA
  7 .fini_array   00000004  080062a8  080062a8  000162a8  2**2
                  CONTENTS, ALLOC, LOAD, DATA
  8 .data         000000d8  20000000  080062ac  00020000  2**2
                  CONTENTS, ALLOC, LOAD, DATA
  9 .bss          0000132c  200000d8  08006384  000200d8  2**2
                  ALLOC
 10 ._user_heap_stack 00000604  20001404  08006384  00021404  2**0
                  ALLOC
 11 .ARM.attributes 00000029  00000000  00000000  000200d8  2**0
                  CONTENTS, READONLY
 12 .debug_info   0002fb0c  00000000  00000000  00020101  2**0
                  CONTENTS, READONLY, DEBUGGING, OCTETS
 13 .debug_abbrev 000059c4  00000000  00000000  0004fc0d  2**0
                  CONTENTS, READONLY, DEBUGGING, OCTETS
 14 .debug_loc    00018641  00000000  00000000  000555d1  2**0
                  CONTENTS, READONLY, DEBUGGING, OCTETS
 15 .debug_aranges 00001320  00000000  00000000  0006dc18  2**3
                  CONTENTS, READONLY, DEBUGGING, OCTETS
 16 .debug_ranges 00001e18  00000000  00000000  0006ef38  2**3
                  CONTENTS, READONLY, DEBUGGING, OCTETS
 17 .debug_line   000202ca  00000000  00000000  00070d50  2**0
                  CONTENTS, READONLY, DEBUGGING, OCTETS
 18 .debug_str    00006342  00000000  00000000  0009101a  2**0
                  CONTENTS, READONLY, DEBUGGING, OCTETS
 19 .comment      00000053  00000000  00000000  0009735c  2**0
                  CONTENTS, READONLY
 20 .debug_frame  000041b0  00000000  00000000  000973b0  2**2
                  CONTENTS, READONLY, DEBUGGING, OCTETS

Disassembly of section .text:

0800010c <__do_global_dtors_aux>:
 800010c:	b510      	push	{r4, lr}
 800010e:	4c05      	ldr	r4, [pc, #20]	; (8000124 <__do_global_dtors_aux+0x18>)
 8000110:	7823      	ldrb	r3, [r4, #0]
 8000112:	b933      	cbnz	r3, 8000122 <__do_global_dtors_aux+0x16>
 8000114:	4b04      	ldr	r3, [pc, #16]	; (8000128 <__do_global_dtors_aux+0x1c>)
 8000116:	b113      	cbz	r3, 800011e <__do_global_dtors_aux+0x12>
 8000118:	4804      	ldr	r0, [pc, #16]	; (800012c <__do_global_dtors_aux+0x20>)
 800011a:	f3af 8000 	nop.w
 800011e:	2301      	movs	r3, #1
 8000120:	7023      	strb	r3, [r4, #0]
 8000122:	bd10      	pop	{r4, pc}
 8000124:	200000d8 	.word	0x200000d8
 8000128:	00000000 	.word	0x00000000
 800012c:	08005704 	.word	0x08005704

08000130 <frame_dummy>:
 8000130:	b508      	push	{r3, lr}
 8000132:	4b03      	ldr	r3, [pc, #12]	; (8000140 <frame_dummy+0x10>)
 8000134:	b11b      	cbz	r3, 800013e <frame_dummy+0xe>
 8000136:	4903      	ldr	r1, [pc, #12]	; (8000144 <frame_dummy+0x14>)
 8000138:	4803      	ldr	r0, [pc, #12]	; (8000148 <frame_dummy+0x18>)
 800013a:	f3af 8000 	nop.w
 800013e:	bd08      	pop	{r3, pc}
 8000140:	00000000 	.word	0x00000000
 8000144:	200000dc 	.word	0x200000dc
 8000148:	08005704 	.word	0x08005704

0800014c <debug_init>:

UART_HandleTypeDef *debugHuart;
uint8_t printBufer[128];

void debug_init(UART_HandleTypeDef *huart){
	debugHuart = huart;
 800014c:	4b01      	ldr	r3, [pc, #4]	; (8000154 <debug_init+0x8>)
 800014e:	6018      	str	r0, [r3, #0]
}
 8000150:	4770      	bx	lr
 8000152:	bf00      	nop
 8000154:	200003a0 	.word	0x200003a0

08000158 <myprintf>:

void myprintf(char *format, ...) {
 8000158:	b40f      	push	{r0, r1, r2, r3}
 800015a:	b513      	push	{r0, r1, r4, lr}
	if (debugHuart == NULL) return;
 800015c:	4c0a      	ldr	r4, [pc, #40]	; (8000188 <myprintf+0x30>)
 800015e:	6823      	ldr	r3, [r4, #0]
 8000160:	b16b      	cbz	r3, 800017e <myprintf+0x26>
	va_list args;
	va_start(args, format);
 8000162:	ab05      	add	r3, sp, #20
	int len = vsnprintf((char*) printBufer, sizeof(printBufer), format, args);
 8000164:	2180      	movs	r1, #128	; 0x80
 8000166:	9a04      	ldr	r2, [sp, #16]
 8000168:	4808      	ldr	r0, [pc, #32]	; (800018c <myprintf+0x34>)
	va_start(args, format);
 800016a:	9301      	str	r3, [sp, #4]
	int len = vsnprintf((char*) printBufer, sizeof(printBufer), format, args);
 800016c:	f004 fea2 	bl	8004eb4 <vsniprintf>
	va_end(args);
	HAL_UART_Transmit(debugHuart, printBufer, len, 1000);
 8000170:	f44f 737a 	mov.w	r3, #1000	; 0x3e8
 8000174:	b282      	uxth	r2, r0
 8000176:	4905      	ldr	r1, [pc, #20]	; (800018c <myprintf+0x34>)
 8000178:	6820      	ldr	r0, [r4, #0]
 800017a:	f001 ffb2 	bl	80020e2 <HAL_UART_Transmit>
}
 800017e:	b002      	add	sp, #8
 8000180:	e8bd 4010 	ldmia.w	sp!, {r4, lr}
 8000184:	b004      	add	sp, #16
 8000186:	4770      	bx	lr
 8000188:	200003a0 	.word	0x200003a0
 800018c:	200003a4 	.word	0x200003a4

08000190 <temp_callback>:
static void MX_TIM2_Init(void);
static void MX_I2C1_Init(void);
static void MX_TIM3_Init(void);
/* USER CODE BEGIN PFP */
void temp_callback(uint32_t maxVal, uint32_t curVal){
  DEBUG_PRINTF("PROGRESS: %d PAGES\n", curVal);
 8000190:	4801      	ldr	r0, [pc, #4]	; (8000198 <temp_callback+0x8>)
 8000192:	f7ff bfe1 	b.w	8000158 <myprintf>
 8000196:	bf00      	nop
 8000198:	0800571c 	.word	0x0800571c

0800019c <temp_err_cb>:
}
void temp_err_cb(const char* err_type, char* message){
 800019c:	b570      	push	{r4, r5, r6, lr}
 800019e:	4605      	mov	r5, r0
 80001a0:	460c      	mov	r4, r1
  DEBUG_PRINTF("\n");
 80001a2:	4e07      	ldr	r6, [pc, #28]	; (80001c0 <temp_err_cb+0x24>)
 80001a4:	4630      	mov	r0, r6
 80001a6:	f7ff ffd7 	bl	8000158 <myprintf>
  DEBUG_PRINTF(err_type);
 80001aa:	4628      	mov	r0, r5
 80001ac:	f7ff ffd4 	bl	8000158 <myprintf>
  DEBUG_PRINTF(message);
 80001b0:	4620      	mov	r0, r4
 80001b2:	f7ff ffd1 	bl	8000158 <myprintf>
  DEBUG_PRINTF("\n");
 80001b6:	4630      	mov	r0, r6
}
 80001b8:	e8bd 4070 	ldmia.w	sp!, {r4, r5, r6, lr}
  DEBUG_PRINTF("\n");
 80001bc:	f7ff bfcc 	b.w	8000158 <myprintf>
 80001c0:	08005de0 	.word	0x08005de0

080001c4 <temp_sucs_cb>:
void temp_sucs_cb(){
  DEBUG_PRINTF("SUCCESS FINISHED!\n");
 80001c4:	4801      	ldr	r0, [pc, #4]	; (80001cc <temp_sucs_cb+0x8>)
 80001c6:	f7ff bfc7 	b.w	8000158 <myprintf>
 80001ca:	bf00      	nop
 80001cc:	08005730 	.word	0x08005730

080001d0 <SystemClock_Config>:
/**
  * @brief System Clock Configuration
  * @retval None
  */
void SystemClock_Config(void)
{
 80001d0:	b510      	push	{r4, lr}
 80001d2:	b090      	sub	sp, #64	; 0x40
  RCC_OscInitTypeDef RCC_OscInitStruct = {0};
 80001d4:	2210      	movs	r2, #16
 80001d6:	2100      	movs	r1, #0
 80001d8:	a809      	add	r0, sp, #36	; 0x24
 80001da:	f004 fe07 	bl	8004dec <memset>
  RCC_ClkInitTypeDef RCC_ClkInitStruct = {0};
 80001de:	2214      	movs	r2, #20
 80001e0:	2100      	movs	r1, #0
 80001e2:	a801      	add	r0, sp, #4
 80001e4:	f004 fe02 	bl	8004dec <memset>
  */
  RCC_OscInitStruct.OscillatorType = RCC_OSCILLATORTYPE_HSE;
  RCC_OscInitStruct.HSEState = RCC_HSE_ON;
  RCC_OscInitStruct.HSEPredivValue = RCC_HSE_PREDIV_DIV1;
  RCC_OscInitStruct.HSIState = RCC_HSI_ON;
  RCC_OscInitStruct.PLL.PLLState = RCC_PLL_ON;
 80001e8:	2402      	movs	r4, #2
  RCC_OscInitStruct.HSEState = RCC_HSE_ON;
 80001ea:	f44f 3380 	mov.w	r3, #65536	; 0x10000
 80001ee:	2201      	movs	r2, #1
  RCC_OscInitStruct.HSEPredivValue = RCC_HSE_PREDIV_DIV1;
 80001f0:	2100      	movs	r1, #0
  RCC_OscInitStruct.HSEState = RCC_HSE_ON;
 80001f2:	e9cd 2306 	strd	r2, r3, [sp, #24]
  RCC_OscInitStruct.PLL.PLLSource = RCC_PLLSOURCE_HSE;
 80001f6:	e9cd 430d 	strd	r4, r3, [sp, #52]	; 0x34
  RCC_OscInitStruct.PLL.PLLMUL = RCC_PLL_MUL9;
 80001fa:	f44f 13e0 	mov.w	r3, #1835008	; 0x1c0000
  if (HAL_RCC_OscConfig(&RCC_OscInitStruct) != HAL_OK)
 80001fe:	a806      	add	r0, sp, #24
  RCC_OscInitStruct.HSEPredivValue = RCC_HSE_PREDIV_DIV1;
 8000200:	9108      	str	r1, [sp, #32]
  RCC_OscInitStruct.HSIState = RCC_HSI_ON;
 8000202:	920a      	str	r2, [sp, #40]	; 0x28
  RCC_OscInitStruct.PLL.PLLMUL = RCC_PLL_MUL9;
 8000204:	930f      	str	r3, [sp, #60]	; 0x3c
  if (HAL_RCC_OscConfig(&RCC_OscInitStruct) != HAL_OK)
 8000206:	f000 ff61 	bl	80010cc <HAL_RCC_OscConfig>
 800020a:	b108      	cbz	r0, 8000210 <SystemClock_Config+0x40>
  \details Disables IRQ interrupts by setting the I-bit in the CPSR.
           Can only be executed in Privileged modes.
 */
__STATIC_FORCEINLINE void __disable_irq(void)
{
  __ASM volatile ("cpsid i" : : : "memory");
 800020c:	b672      	cpsid	i
void Error_Handler(void)
{
  /* USER CODE BEGIN Error_Handler_Debug */
	/* User can add his own implementation to report the HAL error return state */
	__disable_irq();
	while (1) {
 800020e:	e7fe      	b.n	800020e <SystemClock_Config+0x3e>
  RCC_ClkInitStruct.ClockType = RCC_CLOCKTYPE_HCLK|RCC_CLOCKTYPE_SYSCLK
 8000210:	230f      	movs	r3, #15
  RCC_ClkInitStruct.APB1CLKDivider = RCC_HCLK_DIV2;
 8000212:	2280      	movs	r2, #128	; 0x80
  RCC_ClkInitStruct.SYSCLKSource = RCC_SYSCLKSOURCE_PLLCLK;
 8000214:	e9cd 3401 	strd	r3, r4, [sp, #4]
  RCC_ClkInitStruct.APB1CLKDivider = RCC_HCLK_DIV2;
 8000218:	f44f 6380 	mov.w	r3, #1024	; 0x400
  RCC_ClkInitStruct.APB2CLKDivider = RCC_HCLK_DIV1;
 800021c:	9005      	str	r0, [sp, #20]
  if (HAL_RCC_ClockConfig(&RCC_ClkInitStruct, FLASH_LATENCY_2) != HAL_OK)
 800021e:	4621      	mov	r1, r4
 8000220:	a801      	add	r0, sp, #4
  RCC_ClkInitStruct.APB1CLKDivider = RCC_HCLK_DIV2;
 8000222:	e9cd 2303 	strd	r2, r3, [sp, #12]
  if (HAL_RCC_ClockConfig(&RCC_ClkInitStruct, FLASH_LATENCY_2) != HAL_OK)
 8000226:	f001 f913 	bl	8001450 <HAL_RCC_ClockConfig>
 800022a:	b108      	cbz	r0, 8000230 <SystemClock_Config+0x60>
 800022c:	b672      	cpsid	i
	while (1) {
 800022e:	e7fe      	b.n	800022e <SystemClock_Config+0x5e>
}
 8000230:	b010      	add	sp, #64	; 0x40
 8000232:	bd10      	pop	{r4, pc}

08000234 <main>:
{
 8000234:	e92d 4ff0 	stmdb	sp!, {r4, r5, r6, r7, r8, r9, sl, fp, lr}
  GPIO_InitTypeDef GPIO_InitStruct = {0};
 8000238:	2610      	movs	r6, #16
  GPIO_InitStruct.Pull = GPIO_NOPULL;
 800023a:	f04f 0900 	mov.w	r9, #0
 800023e:	2501      	movs	r5, #1
  GPIO_InitStruct.Speed = GPIO_SPEED_FREQ_HIGH;
 8000240:	2703      	movs	r7, #3
  GPIO_InitStruct.Pin = BUTTON_Pin;
 8000242:	f44f 6800 	mov.w	r8, #2048	; 0x800
  GPIO_InitStruct.Pin = AVR_PROG_SPI_SS_Pin;
 8000246:	f44f 5a80 	mov.w	sl, #4096	; 0x1000
{
 800024a:	f5ad 7d15 	sub.w	sp, sp, #596	; 0x254
  __HAL_RCC_GPIOD_CLK_ENABLE();
 800024e:	4ca4      	ldr	r4, [pc, #656]	; (80004e0 <main+0x2ac>)
  HAL_Init();
 8000250:	f000 fbb0 	bl	80009b4 <HAL_Init>
  SystemClock_Config();
 8000254:	f7ff ffbc 	bl	80001d0 <SystemClock_Config>
  GPIO_InitTypeDef GPIO_InitStruct = {0};
 8000258:	4632      	mov	r2, r6
 800025a:	2100      	movs	r1, #0
 800025c:	a808      	add	r0, sp, #32
 800025e:	f004 fdc5 	bl	8004dec <memset>
  __HAL_RCC_GPIOD_CLK_ENABLE();
 8000262:	69a3      	ldr	r3, [r4, #24]
  HAL_GPIO_WritePin(SD_CS_GPIO_Port, SD_CS_Pin, GPIO_PIN_SET);
 8000264:	2201      	movs	r2, #1
  __HAL_RCC_GPIOD_CLK_ENABLE();
 8000266:	f043 0320 	orr.w	r3, r3, #32
 800026a:	61a3      	str	r3, [r4, #24]
 800026c:	69a3      	ldr	r3, [r4, #24]
  HAL_GPIO_WritePin(SD_CS_GPIO_Port, SD_CS_Pin, GPIO_PIN_SET);
 800026e:	4631      	mov	r1, r6
  __HAL_RCC_GPIOD_CLK_ENABLE();
 8000270:	f003 0320 	and.w	r3, r3, #32
 8000274:	9303      	str	r3, [sp, #12]
 8000276:	9b03      	ldr	r3, [sp, #12]
  __HAL_RCC_GPIOA_CLK_ENABLE();
 8000278:	69a3      	ldr	r3, [r4, #24]
  HAL_GPIO_WritePin(SD_CS_GPIO_Port, SD_CS_Pin, GPIO_PIN_SET);
 800027a:	489a      	ldr	r0, [pc, #616]	; (80004e4 <main+0x2b0>)
  __HAL_RCC_GPIOA_CLK_ENABLE();
 800027c:	f043 0304 	orr.w	r3, r3, #4
 8000280:	61a3      	str	r3, [r4, #24]
 8000282:	69a3      	ldr	r3, [r4, #24]
  hspi1.Init.BaudRatePrescaler = SPI_BAUDRATEPRESCALER_256;
 8000284:	f44f 7b00 	mov.w	fp, #512	; 0x200
  __HAL_RCC_GPIOA_CLK_ENABLE();
 8000288:	f003 0304 	and.w	r3, r3, #4
 800028c:	9304      	str	r3, [sp, #16]
 800028e:	9b04      	ldr	r3, [sp, #16]
  __HAL_RCC_GPIOB_CLK_ENABLE();
 8000290:	69a3      	ldr	r3, [r4, #24]
 8000292:	f043 0308 	orr.w	r3, r3, #8
 8000296:	61a3      	str	r3, [r4, #24]
 8000298:	69a3      	ldr	r3, [r4, #24]
 800029a:	f003 0308 	and.w	r3, r3, #8
 800029e:	9305      	str	r3, [sp, #20]
 80002a0:	9b05      	ldr	r3, [sp, #20]
  HAL_GPIO_WritePin(SD_CS_GPIO_Port, SD_CS_Pin, GPIO_PIN_SET);
 80002a2:	f000 fe65 	bl	8000f70 <HAL_GPIO_WritePin>
  HAL_GPIO_Init(SD_CS_GPIO_Port, &GPIO_InitStruct);
 80002a6:	488f      	ldr	r0, [pc, #572]	; (80004e4 <main+0x2b0>)
 80002a8:	a908      	add	r1, sp, #32
  GPIO_InitStruct.Pull = GPIO_NOPULL;
 80002aa:	e9cd 5909 	strd	r5, r9, [sp, #36]	; 0x24
  GPIO_InitStruct.Pin = SD_CS_Pin;
 80002ae:	9608      	str	r6, [sp, #32]
  GPIO_InitStruct.Speed = GPIO_SPEED_FREQ_HIGH;
 80002b0:	970b      	str	r7, [sp, #44]	; 0x2c
  HAL_GPIO_Init(SD_CS_GPIO_Port, &GPIO_InitStruct);
 80002b2:	f000 fd0d 	bl	8000cd0 <HAL_GPIO_Init>
  HAL_GPIO_Init(BUTTON_GPIO_Port, &GPIO_InitStruct);
 80002b6:	488c      	ldr	r0, [pc, #560]	; (80004e8 <main+0x2b4>)
 80002b8:	a908      	add	r1, sp, #32
  GPIO_InitStruct.Mode = GPIO_MODE_INPUT;
 80002ba:	e9cd 8908 	strd	r8, r9, [sp, #32]
  GPIO_InitStruct.Pull = GPIO_PULLUP;
 80002be:	950a      	str	r5, [sp, #40]	; 0x28
  HAL_GPIO_Init(BUTTON_GPIO_Port, &GPIO_InitStruct);
 80002c0:	f000 fd06 	bl	8000cd0 <HAL_GPIO_Init>
  HAL_GPIO_Init(AVR_PROG_SPI_SS_GPIO_Port, &GPIO_InitStruct);
 80002c4:	4888      	ldr	r0, [pc, #544]	; (80004e8 <main+0x2b4>)
 80002c6:	a908      	add	r1, sp, #32
  GPIO_InitStruct.Mode = GPIO_MODE_ANALOG;
 80002c8:	e9cd a708 	strd	sl, r7, [sp, #32]
  HAL_GPIO_Init(AVR_PROG_SPI_SS_GPIO_Port, &GPIO_InitStruct);
 80002cc:	f000 fd00 	bl	8000cd0 <HAL_GPIO_Init>
  GPIO_InitStruct.Pin = BTN_OK_Pin;
 80002d0:	2308      	movs	r3, #8
  HAL_GPIO_Init(BTN_OK_GPIO_Port, &GPIO_InitStruct);
 80002d2:	4885      	ldr	r0, [pc, #532]	; (80004e8 <main+0x2b4>)
 80002d4:	a908      	add	r1, sp, #32
  GPIO_InitStruct.Mode = GPIO_MODE_INPUT;
 80002d6:	e9cd 3908 	strd	r3, r9, [sp, #32]
  GPIO_InitStruct.Pull = GPIO_NOPULL;
 80002da:	f8cd 9028 	str.w	r9, [sp, #40]	; 0x28
  HAL_GPIO_Init(BTN_OK_GPIO_Port, &GPIO_InitStruct);
 80002de:	f000 fcf7 	bl	8000cd0 <HAL_GPIO_Init>
  hspi1.Instance = SPI1;
 80002e2:	4882      	ldr	r0, [pc, #520]	; (80004ec <main+0x2b8>)
  hspi1.Init.Mode = SPI_MODE_MASTER;
 80002e4:	f44f 7382 	mov.w	r3, #260	; 0x104
  hspi1.Init.BaudRatePrescaler = SPI_BAUDRATEPRESCALER_256;
 80002e8:	2238      	movs	r2, #56	; 0x38
  hspi1.Init.DataSize = SPI_DATASIZE_8BIT;
 80002ea:	e9c0 9902 	strd	r9, r9, [r0, #8]
  hspi1.Init.CLKPhase = SPI_PHASE_1EDGE;
 80002ee:	e9c0 9904 	strd	r9, r9, [r0, #16]
  hspi1.Init.TIMode = SPI_TIMODE_DISABLE;
 80002f2:	e9c0 9908 	strd	r9, r9, [r0, #32]
  hspi1.Init.CRCCalculation = SPI_CRCCALCULATION_DISABLE;
 80002f6:	f8c0 9028 	str.w	r9, [r0, #40]	; 0x28
  hspi1.Init.CRCPolynomial = 10;
 80002fa:	f04f 090a 	mov.w	r9, #10
  hspi1.Init.Mode = SPI_MODE_MASTER;
 80002fe:	f8df c240 	ldr.w	ip, [pc, #576]	; 8000540 <main+0x30c>
  hspi1.Init.BaudRatePrescaler = SPI_BAUDRATEPRESCALER_256;
 8000302:	e9c0 b206 	strd	fp, r2, [r0, #24]
  hspi1.Init.Mode = SPI_MODE_MASTER;
 8000306:	e9c0 c300 	strd	ip, r3, [r0]
  hspi1.Init.CRCPolynomial = 10;
 800030a:	f8c0 902c 	str.w	r9, [r0, #44]	; 0x2c
  if (HAL_SPI_Init(&hspi1) != HAL_OK)
 800030e:	f001 f9d3 	bl	80016b8 <HAL_SPI_Init>
 8000312:	f44f 7382 	mov.w	r3, #260	; 0x104
 8000316:	4602      	mov	r2, r0
 8000318:	b108      	cbz	r0, 800031e <main+0xea>
 800031a:	b672      	cpsid	i
	while (1) {
 800031c:	e7fe      	b.n	800031c <main+0xe8>
  hspi2.Instance = SPI2;
 800031e:	4874      	ldr	r0, [pc, #464]	; (80004f0 <main+0x2bc>)
 8000320:	4974      	ldr	r1, [pc, #464]	; (80004f4 <main+0x2c0>)
  hspi2.Init.NSS = SPI_NSS_SOFT;
 8000322:	f8c0 b018 	str.w	fp, [r0, #24]
  hspi2.Init.Mode = SPI_MODE_MASTER;
 8000326:	e9c0 1300 	strd	r1, r3, [r0]
  hspi2.Init.BaudRatePrescaler = SPI_BAUDRATEPRESCALER_128;
 800032a:	2330      	movs	r3, #48	; 0x30
  hspi2.Init.DataSize = SPI_DATASIZE_8BIT;
 800032c:	e9c0 2202 	strd	r2, r2, [r0, #8]
  hspi2.Init.CLKPhase = SPI_PHASE_1EDGE;
 8000330:	e9c0 2204 	strd	r2, r2, [r0, #16]
  hspi2.Init.FirstBit = SPI_FIRSTBIT_MSB;
 8000334:	e9c0 3207 	strd	r3, r2, [r0, #28]
  hspi2.Init.CRCCalculation = SPI_CRCCALCULATION_DISABLE;
 8000338:	e9c0 2209 	strd	r2, r2, [r0, #36]	; 0x24
  hspi2.Init.CRCPolynomial = 10;
 800033c:	f8c0 902c 	str.w	r9, [r0, #44]	; 0x2c
  if (HAL_SPI_Init(&hspi2) != HAL_OK)
 8000340:	f001 f9ba 	bl	80016b8 <HAL_SPI_Init>
 8000344:	4683      	mov	fp, r0
 8000346:	b108      	cbz	r0, 800034c <main+0x118>
 8000348:	b672      	cpsid	i
	while (1) {
 800034a:	e7fe      	b.n	800034a <main+0x116>
  __HAL_RCC_DMA1_CLK_ENABLE();
 800034c:	6963      	ldr	r3, [r4, #20]
  HAL_NVIC_SetPriority(DMA1_Channel4_IRQn, 0, 0);
 800034e:	4602      	mov	r2, r0
  __HAL_RCC_DMA1_CLK_ENABLE();
 8000350:	f043 0301 	orr.w	r3, r3, #1
 8000354:	6163      	str	r3, [r4, #20]
 8000356:	6963      	ldr	r3, [r4, #20]
  HAL_NVIC_SetPriority(DMA1_Channel4_IRQn, 0, 0);
 8000358:	4601      	mov	r1, r0
  __HAL_RCC_DMA1_CLK_ENABLE();
 800035a:	f003 0301 	and.w	r3, r3, #1
  HAL_NVIC_SetPriority(DMA1_Channel4_IRQn, 0, 0);
 800035e:	200e      	movs	r0, #14
  __HAL_RCC_DMA1_CLK_ENABLE();
 8000360:	9302      	str	r3, [sp, #8]
 8000362:	9b02      	ldr	r3, [sp, #8]
  HAL_NVIC_SetPriority(DMA1_Channel4_IRQn, 0, 0);
 8000364:	f000 fb6e 	bl	8000a44 <HAL_NVIC_SetPriority>
  HAL_NVIC_EnableIRQ(DMA1_Channel4_IRQn);
 8000368:	200e      	movs	r0, #14
 800036a:	f000 fb9d 	bl	8000aa8 <HAL_NVIC_EnableIRQ>
  huart1.Init.BaudRate = 115200;
 800036e:	f44f 33e1 	mov.w	r3, #115200	; 0x1c200
  huart1.Instance = USART1;
 8000372:	4c61      	ldr	r4, [pc, #388]	; (80004f8 <main+0x2c4>)
  huart1.Init.BaudRate = 115200;
 8000374:	4861      	ldr	r0, [pc, #388]	; (80004fc <main+0x2c8>)
  huart1.Init.StopBits = UART_STOPBITS_1;
 8000376:	e9c4 bb02 	strd	fp, fp, [r4, #8]
  huart1.Init.BaudRate = 115200;
 800037a:	e9c4 0300 	strd	r0, r3, [r4]
  huart1.Init.Mode = UART_MODE_TX_RX;
 800037e:	230c      	movs	r3, #12
  if (HAL_UART_Init(&huart1) != HAL_OK)
 8000380:	4620      	mov	r0, r4
  huart1.Init.HwFlowCtl = UART_HWCONTROL_NONE;
 8000382:	e9c4 3b05 	strd	r3, fp, [r4, #20]
  huart1.Init.Parity = UART_PARITY_NONE;
 8000386:	f8c4 b010 	str.w	fp, [r4, #16]
  huart1.Init.OverSampling = UART_OVERSAMPLING_16;
 800038a:	f8c4 b01c 	str.w	fp, [r4, #28]
  if (HAL_UART_Init(&huart1) != HAL_OK)
 800038e:	f001 fe79 	bl	8002084 <HAL_UART_Init>
 8000392:	4683      	mov	fp, r0
 8000394:	b108      	cbz	r0, 800039a <main+0x166>
 8000396:	b672      	cpsid	i
	while (1) {
 8000398:	e7fe      	b.n	8000398 <main+0x164>
  TIM_ClockConfigTypeDef sClockSourceConfig = {0};
 800039a:	4601      	mov	r1, r0
 800039c:	4632      	mov	r2, r6
 800039e:	a808      	add	r0, sp, #32
 80003a0:	f004 fd24 	bl	8004dec <memset>
  htim2.Init.Prescaler = 39999;
 80003a4:	f04f 4180 	mov.w	r1, #1073741824	; 0x40000000
 80003a8:	f649 433f 	movw	r3, #39999	; 0x9c3f
  htim2.Instance = TIM2;
 80003ac:	4e54      	ldr	r6, [pc, #336]	; (8000500 <main+0x2cc>)
  TIM_MasterConfigTypeDef sMasterConfig = {0};
 80003ae:	e9cd bb06 	strd	fp, fp, [sp, #24]
  if (HAL_TIM_Base_Init(&htim2) != HAL_OK)
 80003b2:	4630      	mov	r0, r6
  htim2.Init.Prescaler = 39999;
 80003b4:	e9c6 1300 	strd	r1, r3, [r6]
  htim2.Init.Period = 10;
 80003b8:	e9c6 b902 	strd	fp, r9, [r6, #8]
  htim2.Init.ClockDivision = TIM_CLOCKDIVISION_DIV1;
 80003bc:	f8c6 b010 	str.w	fp, [r6, #16]
  htim2.Init.AutoReloadPreload = TIM_AUTORELOAD_PRELOAD_DISABLE;
 80003c0:	f8c6 b018 	str.w	fp, [r6, #24]
  if (HAL_TIM_Base_Init(&htim2) != HAL_OK)
 80003c4:	f001 fc6c 	bl	8001ca0 <HAL_TIM_Base_Init>
 80003c8:	b108      	cbz	r0, 80003ce <main+0x19a>
 80003ca:	b672      	cpsid	i
	while (1) {
 80003cc:	e7fe      	b.n	80003cc <main+0x198>
  if (HAL_TIM_ConfigClockSource(&htim2, &sClockSourceConfig) != HAL_OK)
 80003ce:	4630      	mov	r0, r6
 80003d0:	a908      	add	r1, sp, #32
  sClockSourceConfig.ClockSource = TIM_CLOCKSOURCE_INTERNAL;
 80003d2:	f8cd a020 	str.w	sl, [sp, #32]
  if (HAL_TIM_ConfigClockSource(&htim2, &sClockSourceConfig) != HAL_OK)
 80003d6:	f001 fcee 	bl	8001db6 <HAL_TIM_ConfigClockSource>
 80003da:	b108      	cbz	r0, 80003e0 <main+0x1ac>
 80003dc:	b672      	cpsid	i
	while (1) {
 80003de:	e7fe      	b.n	80003de <main+0x1aa>
  sMasterConfig.MasterSlaveMode = TIM_MASTERSLAVEMODE_DISABLE;
 80003e0:	e9cd 0006 	strd	r0, r0, [sp, #24]
  if (HAL_TIMEx_MasterConfigSynchronization(&htim2, &sMasterConfig) != HAL_OK)
 80003e4:	a906      	add	r1, sp, #24
 80003e6:	4630      	mov	r0, r6
 80003e8:	f001 fd82 	bl	8001ef0 <HAL_TIMEx_MasterConfigSynchronization>
 80003ec:	4606      	mov	r6, r0
 80003ee:	b108      	cbz	r0, 80003f4 <main+0x1c0>
 80003f0:	b672      	cpsid	i
	while (1) {
 80003f2:	e7fe      	b.n	80003f2 <main+0x1be>
  MX_FATFS_Init();
 80003f4:	f001 fec4 	bl	8002180 <MX_FATFS_Init>
  hi2c1.Instance = I2C1;
 80003f8:	4842      	ldr	r0, [pc, #264]	; (8000504 <main+0x2d0>)
  hi2c1.Init.ClockSpeed = 100000;
 80003fa:	4b43      	ldr	r3, [pc, #268]	; (8000508 <main+0x2d4>)
 80003fc:	4a43      	ldr	r2, [pc, #268]	; (800050c <main+0x2d8>)
  hi2c1.Init.OwnAddress1 = 0;
 80003fe:	e9c0 6602 	strd	r6, r6, [r0, #8]
  hi2c1.Init.ClockSpeed = 100000;
 8000402:	e9c0 2300 	strd	r2, r3, [r0]
  hi2c1.Init.AddressingMode = I2C_ADDRESSINGMODE_7BIT;
 8000406:	f44f 4380 	mov.w	r3, #16384	; 0x4000
  hi2c1.Init.GeneralCallMode = I2C_GENERALCALL_DISABLE;
 800040a:	e9c0 6606 	strd	r6, r6, [r0, #24]
  hi2c1.Init.DualAddressMode = I2C_DUALADDRESS_DISABLE;
 800040e:	e9c0 3604 	strd	r3, r6, [r0, #16]
  hi2c1.Init.NoStretchMode = I2C_NOSTRETCH_DISABLE;
 8000412:	6206      	str	r6, [r0, #32]
  if (HAL_I2C_Init(&hi2c1) != HAL_OK)
 8000414:	f000 fdb2 	bl	8000f7c <HAL_I2C_Init>
 8000418:	b108      	cbz	r0, 800041e <main+0x1ea>
 800041a:	b672      	cpsid	i
	while (1) {
 800041c:	e7fe      	b.n	800041c <main+0x1e8>
  htim3.Instance = TIM3;
 800041e:	4e3c      	ldr	r6, [pc, #240]	; (8000510 <main+0x2dc>)
 8000420:	4b3c      	ldr	r3, [pc, #240]	; (8000514 <main+0x2e0>)
  TIM_MasterConfigTypeDef sMasterConfig = {0};
 8000422:	e9cd 0006 	strd	r0, r0, [sp, #24]
  htim3.Init.Prescaler = 0;
 8000426:	e9c6 3000 	strd	r3, r0, [r6]
  htim3.Init.Period = 65535;
 800042a:	f64f 73ff 	movw	r3, #65535	; 0xffff
  sConfig.IC1Polarity = TIM_ICPOLARITY_RISING;
 800042e:	e9cd 7008 	strd	r7, r0, [sp, #32]
  htim3.Init.ClockDivision = TIM_CLOCKDIVISION_DIV1;
 8000432:	e9c6 3003 	strd	r3, r0, [r6, #12]
  sConfig.IC1Prescaler = TIM_ICPSC_DIV1;
 8000436:	e9cd 500a 	strd	r5, r0, [sp, #40]	; 0x28
  sConfig.IC2Polarity = TIM_ICPOLARITY_RISING;
 800043a:	e9cd 000c 	strd	r0, r0, [sp, #48]	; 0x30
  sConfig.IC2Prescaler = TIM_ICPSC_DIV1;
 800043e:	e9cd 500e 	strd	r5, r0, [sp, #56]	; 0x38
  htim3.Init.CounterMode = TIM_COUNTERMODE_UP;
 8000442:	60b0      	str	r0, [r6, #8]
  htim3.Init.AutoReloadPreload = TIM_AUTORELOAD_PRELOAD_DISABLE;
 8000444:	61b0      	str	r0, [r6, #24]
  sConfig.IC2Filter = 0;
 8000446:	9010      	str	r0, [sp, #64]	; 0x40
  if (HAL_TIM_Encoder_Init(&htim3, &sConfig) != HAL_OK)
 8000448:	a908      	add	r1, sp, #32
 800044a:	4630      	mov	r0, r6
 800044c:	f001 fc54 	bl	8001cf8 <HAL_TIM_Encoder_Init>
 8000450:	b108      	cbz	r0, 8000456 <main+0x222>
 8000452:	b672      	cpsid	i
	while (1) {
 8000454:	e7fe      	b.n	8000454 <main+0x220>
  sMasterConfig.MasterSlaveMode = TIM_MASTERSLAVEMODE_DISABLE;
 8000456:	e9cd 0006 	strd	r0, r0, [sp, #24]
  if (HAL_TIMEx_MasterConfigSynchronization(&htim3, &sMasterConfig) != HAL_OK)
 800045a:	a906      	add	r1, sp, #24
 800045c:	4630      	mov	r0, r6
 800045e:	f001 fd47 	bl	8001ef0 <HAL_TIMEx_MasterConfigSynchronization>
 8000462:	b108      	cbz	r0, 8000468 <main+0x234>
 8000464:	b672      	cpsid	i
	while (1) {
 8000466:	e7fe      	b.n	8000466 <main+0x232>
  DEBUG_INIT(&huart1);
 8000468:	4620      	mov	r0, r4
 800046a:	f7ff fe6f 	bl	800014c <debug_init>
  DEBUG_PRINTF(" \n");
 800046e:	482a      	ldr	r0, [pc, #168]	; (8000518 <main+0x2e4>)
 8000470:	f7ff fe72 	bl	8000158 <myprintf>
  init_btn(&btnStart, BUTTON_GPIO_Port, BUTTON_Pin, true, true);
 8000474:	4829      	ldr	r0, [pc, #164]	; (800051c <main+0x2e8>)
 8000476:	462b      	mov	r3, r5
 8000478:	4642      	mov	r2, r8
 800047a:	491b      	ldr	r1, [pc, #108]	; (80004e8 <main+0x2b4>)
 800047c:	9500      	str	r5, [sp, #0]
 800047e:	f004 fb55 	bl	8004b2c <init_btn>
  if(!AVP_Init(&avrprog)){
 8000482:	4827      	ldr	r0, [pc, #156]	; (8000520 <main+0x2ec>)
 8000484:	f003 fe54 	bl	8004130 <AVP_Init>
 8000488:	b918      	cbnz	r0, 8000492 <main+0x25e>
    DEBUG_PRINTF("AVR Programmer not init!");
 800048a:	4826      	ldr	r0, [pc, #152]	; (8000524 <main+0x2f0>)
 800048c:	f7ff fe64 	bl	8000158 <myprintf>
    while(1);
 8000490:	e7fe      	b.n	8000490 <main+0x25c>
  fres = f_mount(&fs, "", 1);
 8000492:	2201      	movs	r2, #1
 8000494:	4924      	ldr	r1, [pc, #144]	; (8000528 <main+0x2f4>)
 8000496:	a808      	add	r0, sp, #32
 8000498:	f003 fa78 	bl	800398c <f_mount>
  if(fres != FR_OK){
 800049c:	4605      	mov	r5, r0
 800049e:	b118      	cbz	r0, 80004a8 <main+0x274>
	 DEBUG_PRINTF("SD Card mount error!");
 80004a0:	4822      	ldr	r0, [pc, #136]	; (800052c <main+0x2f8>)
 80004a2:	f7ff fe59 	bl	8000158 <myprintf>
	 while(1);
 80004a6:	e7fe      	b.n	80004a6 <main+0x272>
  DEBUG_PRINTF("SD Card mounted\n");
 80004a8:	4821      	ldr	r0, [pc, #132]	; (8000530 <main+0x2fc>)
 80004aa:	f7ff fe55 	bl	8000158 <myprintf>
  param.path = "LCD_EXAMPLE.BIN";
 80004ae:	4c21      	ldr	r4, [pc, #132]	; (8000534 <main+0x300>)
 80004b0:	4b21      	ldr	r3, [pc, #132]	; (8000538 <main+0x304>)
 80004b2:	6023      	str	r3, [r4, #0]
  openChipList();
 80004b4:	f004 fc40 	bl	8004d38 <openChipList>
  param.mcu = getChip();
 80004b8:	f004 fc5c 	bl	8004d74 <getChip>
 80004bc:	6060      	str	r0, [r4, #4]
  AVP_Set_SPI(&spiConf);
 80004be:	481f      	ldr	r0, [pc, #124]	; (800053c <main+0x308>)
 80004c0:	f003 ff64 	bl	800438c <AVP_Set_SPI>
  AVP_Execute(ACT_FL_WRITE, &param); // Пишем
 80004c4:	4621      	mov	r1, r4
 80004c6:	4628      	mov	r0, r5
 80004c8:	f003 ff12 	bl	80042f0 <AVP_Execute>
  AVP_Execute(ACT_FL_VERIFY, &param); // Верификация
 80004cc:	4621      	mov	r1, r4
 80004ce:	2002      	movs	r0, #2
 80004d0:	f003 ff0e 	bl	80042f0 <AVP_Execute>
		btnTick(&btnStart);
 80004d4:	4c11      	ldr	r4, [pc, #68]	; (800051c <main+0x2e8>)
 80004d6:	4620      	mov	r0, r4
 80004d8:	f004 fb4e 	bl	8004b78 <btnTick>
	while (1) {
 80004dc:	e7fb      	b.n	80004d6 <main+0x2a2>
 80004de:	bf00      	nop
 80004e0:	40021000 	.word	0x40021000
 80004e4:	40010800 	.word	0x40010800
 80004e8:	40010c00 	.word	0x40010c00
 80004ec:	200005ac 	.word	0x200005ac
 80004f0:	20000424 	.word	0x20000424
 80004f4:	40003800 	.word	0x40003800
 80004f8:	20000564 	.word	0x20000564
 80004fc:	40013800 	.word	0x40013800
 8000500:	20000604 	.word	0x20000604
 8000504:	20000484 	.word	0x20000484
 8000508:	000186a0 	.word	0x000186a0
 800050c:	40005400 	.word	0x40005400
 8000510:	2000051c 	.word	0x2000051c
 8000514:	40000400 	.word	0x40000400
 8000518:	08006155 	.word	0x08006155
 800051c:	20000aa8 	.word	0x20000aa8
 8000520:	08005794 	.word	0x08005794
 8000524:	08005743 	.word	0x08005743
 8000528:	08005de1 	.word	0x08005de1
 800052c:	0800575c 	.word	0x0800575c
 8000530:	08005771 	.word	0x08005771
 8000534:	2000047c 	.word	0x2000047c
 8000538:	08005782 	.word	0x08005782
 800053c:	20000000 	.word	0x20000000
 8000540:	40013000 	.word	0x40013000

08000544 <Error_Handler>:
 8000544:	b672      	cpsid	i
	while (1) {
 8000546:	e7fe      	b.n	8000546 <Error_Handler+0x2>

08000548 <HAL_MspInit>:
{
  /* USER CODE BEGIN MspInit 0 */

  /* USER CODE END MspInit 0 */

  __HAL_RCC_AFIO_CLK_ENABLE();
 8000548:	4b0e      	ldr	r3, [pc, #56]	; (8000584 <HAL_MspInit+0x3c>)
{
 800054a:	b082      	sub	sp, #8
  __HAL_RCC_AFIO_CLK_ENABLE();
 800054c:	699a      	ldr	r2, [r3, #24]
 800054e:	f042 0201 	orr.w	r2, r2, #1
 8000552:	619a      	str	r2, [r3, #24]
 8000554:	699a      	ldr	r2, [r3, #24]
 8000556:	f002 0201 	and.w	r2, r2, #1
 800055a:	9200      	str	r2, [sp, #0]
 800055c:	9a00      	ldr	r2, [sp, #0]
  __HAL_RCC_PWR_CLK_ENABLE();
 800055e:	69da      	ldr	r2, [r3, #28]
 8000560:	f042 5280 	orr.w	r2, r2, #268435456	; 0x10000000
 8000564:	61da      	str	r2, [r3, #28]
 8000566:	69db      	ldr	r3, [r3, #28]

  /* System interrupt init*/

  /** NOJTAG: JTAG-DP Disabled and SW-DP Enabled
  */
  __HAL_AFIO_REMAP_SWJ_NOJTAG();
 8000568:	4a07      	ldr	r2, [pc, #28]	; (8000588 <HAL_MspInit+0x40>)
  __HAL_RCC_PWR_CLK_ENABLE();
 800056a:	f003 5380 	and.w	r3, r3, #268435456	; 0x10000000
 800056e:	9301      	str	r3, [sp, #4]
 8000570:	9b01      	ldr	r3, [sp, #4]
  __HAL_AFIO_REMAP_SWJ_NOJTAG();
 8000572:	6853      	ldr	r3, [r2, #4]
 8000574:	f023 63e0 	bic.w	r3, r3, #117440512	; 0x7000000
 8000578:	f043 7300 	orr.w	r3, r3, #33554432	; 0x2000000
 800057c:	6053      	str	r3, [r2, #4]

  /* USER CODE BEGIN MspInit 1 */

  /* USER CODE END MspInit 1 */
}
 800057e:	b002      	add	sp, #8
 8000580:	4770      	bx	lr
 8000582:	bf00      	nop
 8000584:	40021000 	.word	0x40021000
 8000588:	40010000 	.word	0x40010000

0800058c <HAL_I2C_MspInit>:
* This function configures the hardware resources used in this example
* @param hi2c: I2C handle pointer
* @retval None
*/
void HAL_I2C_MspInit(I2C_HandleTypeDef* hi2c)
{
 800058c:	b510      	push	{r4, lr}
 800058e:	4604      	mov	r4, r0
 8000590:	b086      	sub	sp, #24
  GPIO_InitTypeDef GPIO_InitStruct = {0};
 8000592:	2210      	movs	r2, #16
 8000594:	2100      	movs	r1, #0
 8000596:	a802      	add	r0, sp, #8
 8000598:	f004 fc28 	bl	8004dec <memset>
  if(hi2c->Instance==I2C1)
 800059c:	6822      	ldr	r2, [r4, #0]
 800059e:	4b15      	ldr	r3, [pc, #84]	; (80005f4 <HAL_I2C_MspInit+0x68>)
 80005a0:	429a      	cmp	r2, r3
 80005a2:	d124      	bne.n	80005ee <HAL_I2C_MspInit+0x62>
  {
  /* USER CODE BEGIN I2C1_MspInit 0 */

  /* USER CODE END I2C1_MspInit 0 */

    __HAL_RCC_GPIOB_CLK_ENABLE();
 80005a4:	4c14      	ldr	r4, [pc, #80]	; (80005f8 <HAL_I2C_MspInit+0x6c>)
    /**I2C1 GPIO Configuration
    PB8     ------> I2C1_SCL
    PB9     ------> I2C1_SDA
    */
    GPIO_InitStruct.Pin = GPIO_PIN_8|GPIO_PIN_9;
    GPIO_InitStruct.Mode = GPIO_MODE_AF_OD;
 80005a6:	f44f 7240 	mov.w	r2, #768	; 0x300
    __HAL_RCC_GPIOB_CLK_ENABLE();
 80005aa:	69a3      	ldr	r3, [r4, #24]
    GPIO_InitStruct.Speed = GPIO_SPEED_FREQ_HIGH;
    HAL_GPIO_Init(GPIOB, &GPIO_InitStruct);
 80005ac:	4813      	ldr	r0, [pc, #76]	; (80005fc <HAL_I2C_MspInit+0x70>)
    __HAL_RCC_GPIOB_CLK_ENABLE();
 80005ae:	f043 0308 	orr.w	r3, r3, #8
 80005b2:	61a3      	str	r3, [r4, #24]
 80005b4:	69a3      	ldr	r3, [r4, #24]
    HAL_GPIO_Init(GPIOB, &GPIO_InitStruct);
 80005b6:	a902      	add	r1, sp, #8
    __HAL_RCC_GPIOB_CLK_ENABLE();
 80005b8:	f003 0308 	and.w	r3, r3, #8
 80005bc:	9300      	str	r3, [sp, #0]
 80005be:	9b00      	ldr	r3, [sp, #0]
    GPIO_InitStruct.Mode = GPIO_MODE_AF_OD;
 80005c0:	2312      	movs	r3, #18
 80005c2:	e9cd 2302 	strd	r2, r3, [sp, #8]
    GPIO_InitStruct.Speed = GPIO_SPEED_FREQ_HIGH;
 80005c6:	2303      	movs	r3, #3
 80005c8:	9305      	str	r3, [sp, #20]
    HAL_GPIO_Init(GPIOB, &GPIO_InitStruct);
 80005ca:	f000 fb81 	bl	8000cd0 <HAL_GPIO_Init>

    __HAL_AFIO_REMAP_I2C1_ENABLE();
 80005ce:	4a0c      	ldr	r2, [pc, #48]	; (8000600 <HAL_I2C_MspInit+0x74>)
 80005d0:	6853      	ldr	r3, [r2, #4]
 80005d2:	f043 63e0 	orr.w	r3, r3, #117440512	; 0x7000000
 80005d6:	f043 0302 	orr.w	r3, r3, #2
 80005da:	6053      	str	r3, [r2, #4]

    /* Peripheral clock enable */
    __HAL_RCC_I2C1_CLK_ENABLE();
 80005dc:	69e3      	ldr	r3, [r4, #28]
 80005de:	f443 1300 	orr.w	r3, r3, #2097152	; 0x200000
 80005e2:	61e3      	str	r3, [r4, #28]
 80005e4:	69e3      	ldr	r3, [r4, #28]
 80005e6:	f403 1300 	and.w	r3, r3, #2097152	; 0x200000
 80005ea:	9301      	str	r3, [sp, #4]
 80005ec:	9b01      	ldr	r3, [sp, #4]
  /* USER CODE BEGIN I2C1_MspInit 1 */

  /* USER CODE END I2C1_MspInit 1 */
  }

}
 80005ee:	b006      	add	sp, #24
 80005f0:	bd10      	pop	{r4, pc}
 80005f2:	bf00      	nop
 80005f4:	40005400 	.word	0x40005400
 80005f8:	40021000 	.word	0x40021000
 80005fc:	40010c00 	.word	0x40010c00
 8000600:	40010000 	.word	0x40010000

08000604 <HAL_SPI_MspInit>:
* @param hspi: SPI handle pointer
* @retval None
*/
void HAL_SPI_MspInit(SPI_HandleTypeDef* hspi)
{
  GPIO_InitTypeDef GPIO_InitStruct = {0};
 8000604:	2210      	movs	r2, #16
{
 8000606:	b570      	push	{r4, r5, r6, lr}
 8000608:	4606      	mov	r6, r0
 800060a:	b088      	sub	sp, #32
  GPIO_InitTypeDef GPIO_InitStruct = {0};
 800060c:	eb0d 0002 	add.w	r0, sp, r2
 8000610:	2100      	movs	r1, #0
 8000612:	f004 fbeb 	bl	8004dec <memset>
  if(hspi->Instance==SPI1)
 8000616:	6833      	ldr	r3, [r6, #0]
 8000618:	4a34      	ldr	r2, [pc, #208]	; (80006ec <HAL_SPI_MspInit+0xe8>)
 800061a:	4293      	cmp	r3, r2
 800061c:	d127      	bne.n	800066e <HAL_SPI_MspInit+0x6a>
  {
  /* USER CODE BEGIN SPI1_MspInit 0 */

  /* USER CODE END SPI1_MspInit 0 */
    /* Peripheral clock enable */
    __HAL_RCC_SPI1_CLK_ENABLE();
 800061e:	4b34      	ldr	r3, [pc, #208]	; (80006f0 <HAL_SPI_MspInit+0xec>)
    PA5     ------> SPI1_SCK
    PA6     ------> SPI1_MISO
    PA7     ------> SPI1_MOSI
    */
    GPIO_InitStruct.Pin = GPIO_PIN_5|GPIO_PIN_7;
    GPIO_InitStruct.Mode = GPIO_MODE_AF_PP;
 8000620:	21a0      	movs	r1, #160	; 0xa0
    __HAL_RCC_SPI1_CLK_ENABLE();
 8000622:	699a      	ldr	r2, [r3, #24]
    GPIO_InitStruct.Speed = GPIO_SPEED_FREQ_HIGH;
    HAL_GPIO_Init(GPIOA, &GPIO_InitStruct);
 8000624:	4833      	ldr	r0, [pc, #204]	; (80006f4 <HAL_SPI_MspInit+0xf0>)
    __HAL_RCC_SPI1_CLK_ENABLE();
 8000626:	f442 5280 	orr.w	r2, r2, #4096	; 0x1000
 800062a:	619a      	str	r2, [r3, #24]
 800062c:	699a      	ldr	r2, [r3, #24]
 800062e:	f402 5280 	and.w	r2, r2, #4096	; 0x1000
 8000632:	9200      	str	r2, [sp, #0]
 8000634:	9a00      	ldr	r2, [sp, #0]
    __HAL_RCC_GPIOA_CLK_ENABLE();
 8000636:	699a      	ldr	r2, [r3, #24]
 8000638:	f042 0204 	orr.w	r2, r2, #4
 800063c:	619a      	str	r2, [r3, #24]
 800063e:	699b      	ldr	r3, [r3, #24]
 8000640:	f003 0304 	and.w	r3, r3, #4
 8000644:	9301      	str	r3, [sp, #4]
 8000646:	9b01      	ldr	r3, [sp, #4]
    GPIO_InitStruct.Mode = GPIO_MODE_AF_PP;
 8000648:	2302      	movs	r3, #2
 800064a:	e9cd 1304 	strd	r1, r3, [sp, #16]
    GPIO_InitStruct.Speed = GPIO_SPEED_FREQ_HIGH;
 800064e:	2303      	movs	r3, #3
    HAL_GPIO_Init(GPIOA, &GPIO_InitStruct);
 8000650:	a904      	add	r1, sp, #16
    GPIO_InitStruct.Speed = GPIO_SPEED_FREQ_HIGH;
 8000652:	9307      	str	r3, [sp, #28]
    HAL_GPIO_Init(GPIOA, &GPIO_InitStruct);
 8000654:	f000 fb3c 	bl	8000cd0 <HAL_GPIO_Init>

    GPIO_InitStruct.Pin = GPIO_PIN_6;
    GPIO_InitStruct.Mode = GPIO_MODE_INPUT;
 8000658:	2040      	movs	r0, #64	; 0x40
 800065a:	2300      	movs	r3, #0
    GPIO_InitStruct.Pull = GPIO_NOPULL;
    HAL_GPIO_Init(GPIOA, &GPIO_InitStruct);
 800065c:	a904      	add	r1, sp, #16
    GPIO_InitStruct.Mode = GPIO_MODE_INPUT;
 800065e:	e9cd 0304 	strd	r0, r3, [sp, #16]
    HAL_GPIO_Init(GPIOA, &GPIO_InitStruct);
 8000662:	4824      	ldr	r0, [pc, #144]	; (80006f4 <HAL_SPI_MspInit+0xf0>)
    GPIO_InitStruct.Pull = GPIO_NOPULL;
 8000664:	9306      	str	r3, [sp, #24]
    HAL_GPIO_Init(GPIOA, &GPIO_InitStruct);
 8000666:	f000 fb33 	bl	8000cd0 <HAL_GPIO_Init>
  /* USER CODE BEGIN SPI2_MspInit 1 */

  /* USER CODE END SPI2_MspInit 1 */
  }

}
 800066a:	b008      	add	sp, #32
 800066c:	bd70      	pop	{r4, r5, r6, pc}
  else if(hspi->Instance==SPI2)
 800066e:	4a22      	ldr	r2, [pc, #136]	; (80006f8 <HAL_SPI_MspInit+0xf4>)
 8000670:	4293      	cmp	r3, r2
 8000672:	d1fa      	bne.n	800066a <HAL_SPI_MspInit+0x66>
    __HAL_RCC_SPI2_CLK_ENABLE();
 8000674:	4b1e      	ldr	r3, [pc, #120]	; (80006f0 <HAL_SPI_MspInit+0xec>)
    HAL_GPIO_Init(GPIOB, &GPIO_InitStruct);
 8000676:	4821      	ldr	r0, [pc, #132]	; (80006fc <HAL_SPI_MspInit+0xf8>)
    __HAL_RCC_SPI2_CLK_ENABLE();
 8000678:	69da      	ldr	r2, [r3, #28]
    HAL_GPIO_Init(GPIOB, &GPIO_InitStruct);
 800067a:	a904      	add	r1, sp, #16
    __HAL_RCC_SPI2_CLK_ENABLE();
 800067c:	f442 4280 	orr.w	r2, r2, #16384	; 0x4000
 8000680:	61da      	str	r2, [r3, #28]
 8000682:	69da      	ldr	r2, [r3, #28]
    GPIO_InitStruct.Mode = GPIO_MODE_INPUT;
 8000684:	2500      	movs	r5, #0
    __HAL_RCC_SPI2_CLK_ENABLE();
 8000686:	f402 4280 	and.w	r2, r2, #16384	; 0x4000
 800068a:	9202      	str	r2, [sp, #8]
 800068c:	9a02      	ldr	r2, [sp, #8]
    __HAL_RCC_GPIOB_CLK_ENABLE();
 800068e:	699a      	ldr	r2, [r3, #24]
    hdma_spi2_rx.Instance = DMA1_Channel4;
 8000690:	4c1b      	ldr	r4, [pc, #108]	; (8000700 <HAL_SPI_MspInit+0xfc>)
    __HAL_RCC_GPIOB_CLK_ENABLE();
 8000692:	f042 0208 	orr.w	r2, r2, #8
 8000696:	619a      	str	r2, [r3, #24]
 8000698:	699b      	ldr	r3, [r3, #24]
    GPIO_InitStruct.Mode = GPIO_MODE_AF_PP;
 800069a:	f44f 4220 	mov.w	r2, #40960	; 0xa000
    __HAL_RCC_GPIOB_CLK_ENABLE();
 800069e:	f003 0308 	and.w	r3, r3, #8
 80006a2:	9303      	str	r3, [sp, #12]
 80006a4:	9b03      	ldr	r3, [sp, #12]
    GPIO_InitStruct.Mode = GPIO_MODE_AF_PP;
 80006a6:	2302      	movs	r3, #2
 80006a8:	e9cd 2304 	strd	r2, r3, [sp, #16]
    GPIO_InitStruct.Speed = GPIO_SPEED_FREQ_HIGH;
 80006ac:	2303      	movs	r3, #3
 80006ae:	9307      	str	r3, [sp, #28]
    HAL_GPIO_Init(GPIOB, &GPIO_InitStruct);
 80006b0:	f000 fb0e 	bl	8000cd0 <HAL_GPIO_Init>
    GPIO_InitStruct.Mode = GPIO_MODE_INPUT;
 80006b4:	f44f 4380 	mov.w	r3, #16384	; 0x4000
    HAL_GPIO_Init(GPIOB, &GPIO_InitStruct);
 80006b8:	4810      	ldr	r0, [pc, #64]	; (80006fc <HAL_SPI_MspInit+0xf8>)
 80006ba:	a904      	add	r1, sp, #16
    GPIO_InitStruct.Mode = GPIO_MODE_INPUT;
 80006bc:	e9cd 3504 	strd	r3, r5, [sp, #16]
    GPIO_InitStruct.Pull = GPIO_NOPULL;
 80006c0:	9506      	str	r5, [sp, #24]
    HAL_GPIO_Init(GPIOB, &GPIO_InitStruct);
 80006c2:	f000 fb05 	bl	8000cd0 <HAL_GPIO_Init>
    hdma_spi2_rx.Instance = DMA1_Channel4;
 80006c6:	4b0f      	ldr	r3, [pc, #60]	; (8000704 <HAL_SPI_MspInit+0x100>)
    if (HAL_DMA_Init(&hdma_spi2_rx) != HAL_OK)
 80006c8:	4620      	mov	r0, r4
    hdma_spi2_rx.Init.Direction = DMA_PERIPH_TO_MEMORY;
 80006ca:	e9c4 3500 	strd	r3, r5, [r4]
    hdma_spi2_rx.Init.MemInc = DMA_MINC_ENABLE;
 80006ce:	2380      	movs	r3, #128	; 0x80
    hdma_spi2_rx.Init.Mode = DMA_NORMAL;
 80006d0:	e9c4 5505 	strd	r5, r5, [r4, #20]
    hdma_spi2_rx.Init.PeriphDataAlignment = DMA_PDATAALIGN_BYTE;
 80006d4:	e9c4 3503 	strd	r3, r5, [r4, #12]
    hdma_spi2_rx.Init.PeriphInc = DMA_PINC_DISABLE;
 80006d8:	60a5      	str	r5, [r4, #8]
    hdma_spi2_rx.Init.Priority = DMA_PRIORITY_LOW;
 80006da:	61e5      	str	r5, [r4, #28]
    if (HAL_DMA_Init(&hdma_spi2_rx) != HAL_OK)
 80006dc:	f000 fa08 	bl	8000af0 <HAL_DMA_Init>
 80006e0:	b108      	cbz	r0, 80006e6 <HAL_SPI_MspInit+0xe2>
      Error_Handler();
 80006e2:	f7ff ff2f 	bl	8000544 <Error_Handler>
    __HAL_LINKDMA(hspi,hdmarx,hdma_spi2_rx);
 80006e6:	64f4      	str	r4, [r6, #76]	; 0x4c
 80006e8:	6266      	str	r6, [r4, #36]	; 0x24
}
 80006ea:	e7be      	b.n	800066a <HAL_SPI_MspInit+0x66>
 80006ec:	40013000 	.word	0x40013000
 80006f0:	40021000 	.word	0x40021000
 80006f4:	40010800 	.word	0x40010800
 80006f8:	40003800 	.word	0x40003800
 80006fc:	40010c00 	.word	0x40010c00
 8000700:	200004d8 	.word	0x200004d8
 8000704:	40020044 	.word	0x40020044

08000708 <HAL_SPI_MspDeInit>:
* @param hspi: SPI handle pointer
* @retval None
*/
void HAL_SPI_MspDeInit(SPI_HandleTypeDef* hspi)
{
  if(hspi->Instance==SPI1)
 8000708:	6803      	ldr	r3, [r0, #0]
 800070a:	4a12      	ldr	r2, [pc, #72]	; (8000754 <HAL_SPI_MspDeInit+0x4c>)
{
 800070c:	b510      	push	{r4, lr}
  if(hspi->Instance==SPI1)
 800070e:	4293      	cmp	r3, r2
{
 8000710:	4604      	mov	r4, r0
  if(hspi->Instance==SPI1)
 8000712:	d10b      	bne.n	800072c <HAL_SPI_MspDeInit+0x24>
  /* USER CODE BEGIN SPI2_MspDeInit 1 */

  /* USER CODE END SPI2_MspDeInit 1 */
  }

}
 8000714:	e8bd 4010 	ldmia.w	sp!, {r4, lr}
    __HAL_RCC_SPI1_CLK_DISABLE();
 8000718:	f502 4260 	add.w	r2, r2, #57344	; 0xe000
 800071c:	6993      	ldr	r3, [r2, #24]
    HAL_GPIO_DeInit(GPIOA, GPIO_PIN_5|GPIO_PIN_6|GPIO_PIN_7);
 800071e:	21e0      	movs	r1, #224	; 0xe0
    __HAL_RCC_SPI1_CLK_DISABLE();
 8000720:	f423 5380 	bic.w	r3, r3, #4096	; 0x1000
    HAL_GPIO_DeInit(GPIOA, GPIO_PIN_5|GPIO_PIN_6|GPIO_PIN_7);
 8000724:	480c      	ldr	r0, [pc, #48]	; (8000758 <HAL_SPI_MspDeInit+0x50>)
    __HAL_RCC_SPI1_CLK_DISABLE();
 8000726:	6193      	str	r3, [r2, #24]
    HAL_GPIO_DeInit(GPIOA, GPIO_PIN_5|GPIO_PIN_6|GPIO_PIN_7);
 8000728:	f000 bbae 	b.w	8000e88 <HAL_GPIO_DeInit>
  else if(hspi->Instance==SPI2)
 800072c:	4a0b      	ldr	r2, [pc, #44]	; (800075c <HAL_SPI_MspDeInit+0x54>)
 800072e:	4293      	cmp	r3, r2
 8000730:	d10f      	bne.n	8000752 <HAL_SPI_MspDeInit+0x4a>
    __HAL_RCC_SPI2_CLK_DISABLE();
 8000732:	f502 32ec 	add.w	r2, r2, #120832	; 0x1d800
 8000736:	69d3      	ldr	r3, [r2, #28]
    HAL_GPIO_DeInit(GPIOB, GPIO_PIN_13|GPIO_PIN_14|GPIO_PIN_15);
 8000738:	4809      	ldr	r0, [pc, #36]	; (8000760 <HAL_SPI_MspDeInit+0x58>)
    __HAL_RCC_SPI2_CLK_DISABLE();
 800073a:	f423 4380 	bic.w	r3, r3, #16384	; 0x4000
    HAL_GPIO_DeInit(GPIOB, GPIO_PIN_13|GPIO_PIN_14|GPIO_PIN_15);
 800073e:	f44f 4160 	mov.w	r1, #57344	; 0xe000
    __HAL_RCC_SPI2_CLK_DISABLE();
 8000742:	61d3      	str	r3, [r2, #28]
    HAL_GPIO_DeInit(GPIOB, GPIO_PIN_13|GPIO_PIN_14|GPIO_PIN_15);
 8000744:	f000 fba0 	bl	8000e88 <HAL_GPIO_DeInit>
    HAL_DMA_DeInit(hspi->hdmarx);
 8000748:	6ce0      	ldr	r0, [r4, #76]	; 0x4c
}
 800074a:	e8bd 4010 	ldmia.w	sp!, {r4, lr}
    HAL_DMA_DeInit(hspi->hdmarx);
 800074e:	f000 ba01 	b.w	8000b54 <HAL_DMA_DeInit>
}
 8000752:	bd10      	pop	{r4, pc}
 8000754:	40013000 	.word	0x40013000
 8000758:	40010800 	.word	0x40010800
 800075c:	40003800 	.word	0x40003800
 8000760:	40010c00 	.word	0x40010c00

08000764 <HAL_TIM_Base_MspInit>:
* @param htim_base: TIM_Base handle pointer
* @retval None
*/
void HAL_TIM_Base_MspInit(TIM_HandleTypeDef* htim_base)
{
  if(htim_base->Instance==TIM2)
 8000764:	6803      	ldr	r3, [r0, #0]
{
 8000766:	b507      	push	{r0, r1, r2, lr}
  if(htim_base->Instance==TIM2)
 8000768:	f1b3 4f80 	cmp.w	r3, #1073741824	; 0x40000000
 800076c:	d115      	bne.n	800079a <HAL_TIM_Base_MspInit+0x36>
  {
  /* USER CODE BEGIN TIM2_MspInit 0 */

  /* USER CODE END TIM2_MspInit 0 */
    /* Peripheral clock enable */
    __HAL_RCC_TIM2_CLK_ENABLE();
 800076e:	f503 3304 	add.w	r3, r3, #135168	; 0x21000
 8000772:	69da      	ldr	r2, [r3, #28]
    /* TIM2 interrupt Init */
    HAL_NVIC_SetPriority(TIM2_IRQn, 0, 0);
 8000774:	201c      	movs	r0, #28
    __HAL_RCC_TIM2_CLK_ENABLE();
 8000776:	f042 0201 	orr.w	r2, r2, #1
 800077a:	61da      	str	r2, [r3, #28]
    HAL_NVIC_SetPriority(TIM2_IRQn, 0, 0);
 800077c:	2200      	movs	r2, #0
    __HAL_RCC_TIM2_CLK_ENABLE();
 800077e:	69db      	ldr	r3, [r3, #28]
    HAL_NVIC_SetPriority(TIM2_IRQn, 0, 0);
 8000780:	4611      	mov	r1, r2
    __HAL_RCC_TIM2_CLK_ENABLE();
 8000782:	f003 0301 	and.w	r3, r3, #1
 8000786:	9301      	str	r3, [sp, #4]
 8000788:	9b01      	ldr	r3, [sp, #4]
    HAL_NVIC_SetPriority(TIM2_IRQn, 0, 0);
 800078a:	f000 f95b 	bl	8000a44 <HAL_NVIC_SetPriority>
    HAL_NVIC_EnableIRQ(TIM2_IRQn);
 800078e:	201c      	movs	r0, #28
  /* USER CODE BEGIN TIM2_MspInit 1 */

  /* USER CODE END TIM2_MspInit 1 */
  }

}
 8000790:	b003      	add	sp, #12
 8000792:	f85d eb04 	ldr.w	lr, [sp], #4
    HAL_NVIC_EnableIRQ(TIM2_IRQn);
 8000796:	f000 b987 	b.w	8000aa8 <HAL_NVIC_EnableIRQ>
}
 800079a:	b003      	add	sp, #12
 800079c:	f85d fb04 	ldr.w	pc, [sp], #4

080007a0 <HAL_TIM_Encoder_MspInit>:
* This function configures the hardware resources used in this example
* @param htim_encoder: TIM_Encoder handle pointer
* @retval None
*/
void HAL_TIM_Encoder_MspInit(TIM_HandleTypeDef* htim_encoder)
{
 80007a0:	b510      	push	{r4, lr}
 80007a2:	4604      	mov	r4, r0
 80007a4:	b086      	sub	sp, #24
  GPIO_InitTypeDef GPIO_InitStruct = {0};
 80007a6:	2210      	movs	r2, #16
 80007a8:	2100      	movs	r1, #0
 80007aa:	a802      	add	r0, sp, #8
 80007ac:	f004 fb1e 	bl	8004dec <memset>
  if(htim_encoder->Instance==TIM3)
 80007b0:	6822      	ldr	r2, [r4, #0]
 80007b2:	4b15      	ldr	r3, [pc, #84]	; (8000808 <HAL_TIM_Encoder_MspInit+0x68>)
 80007b4:	429a      	cmp	r2, r3
 80007b6:	d125      	bne.n	8000804 <HAL_TIM_Encoder_MspInit+0x64>
  {
  /* USER CODE BEGIN TIM3_MspInit 0 */

  /* USER CODE END TIM3_MspInit 0 */
    /* Peripheral clock enable */
    __HAL_RCC_TIM3_CLK_ENABLE();
 80007b8:	f503 3303 	add.w	r3, r3, #134144	; 0x20c00
 80007bc:	69da      	ldr	r2, [r3, #28]
    PB5     ------> TIM3_CH2
    */
    GPIO_InitStruct.Pin = GPIO_PIN_4|GPIO_PIN_5;
    GPIO_InitStruct.Mode = GPIO_MODE_INPUT;
    GPIO_InitStruct.Pull = GPIO_NOPULL;
    HAL_GPIO_Init(GPIOB, &GPIO_InitStruct);
 80007be:	4813      	ldr	r0, [pc, #76]	; (800080c <HAL_TIM_Encoder_MspInit+0x6c>)
    __HAL_RCC_TIM3_CLK_ENABLE();
 80007c0:	f042 0202 	orr.w	r2, r2, #2
 80007c4:	61da      	str	r2, [r3, #28]
 80007c6:	69da      	ldr	r2, [r3, #28]
    HAL_GPIO_Init(GPIOB, &GPIO_InitStruct);
 80007c8:	a902      	add	r1, sp, #8
    __HAL_RCC_TIM3_CLK_ENABLE();
 80007ca:	f002 0202 	and.w	r2, r2, #2
 80007ce:	9200      	str	r2, [sp, #0]
 80007d0:	9a00      	ldr	r2, [sp, #0]
    __HAL_RCC_GPIOB_CLK_ENABLE();
 80007d2:	699a      	ldr	r2, [r3, #24]
 80007d4:	f042 0208 	orr.w	r2, r2, #8
 80007d8:	619a      	str	r2, [r3, #24]
 80007da:	699b      	ldr	r3, [r3, #24]
    GPIO_InitStruct.Mode = GPIO_MODE_INPUT;
 80007dc:	2230      	movs	r2, #48	; 0x30
    __HAL_RCC_GPIOB_CLK_ENABLE();
 80007de:	f003 0308 	and.w	r3, r3, #8
 80007e2:	9301      	str	r3, [sp, #4]
 80007e4:	9b01      	ldr	r3, [sp, #4]
    GPIO_InitStruct.Mode = GPIO_MODE_INPUT;
 80007e6:	2300      	movs	r3, #0
 80007e8:	e9cd 2302 	strd	r2, r3, [sp, #8]
    GPIO_InitStruct.Pull = GPIO_NOPULL;
 80007ec:	9304      	str	r3, [sp, #16]
    HAL_GPIO_Init(GPIOB, &GPIO_InitStruct);
 80007ee:	f000 fa6f 	bl	8000cd0 <HAL_GPIO_Init>

    __HAL_AFIO_REMAP_TIM3_PARTIAL();
 80007f2:	4a07      	ldr	r2, [pc, #28]	; (8000810 <HAL_TIM_Encoder_MspInit+0x70>)
 80007f4:	6853      	ldr	r3, [r2, #4]
 80007f6:	f423 6340 	bic.w	r3, r3, #3072	; 0xc00
 80007fa:	f043 63e0 	orr.w	r3, r3, #117440512	; 0x7000000
 80007fe:	f443 6300 	orr.w	r3, r3, #2048	; 0x800
 8000802:	6053      	str	r3, [r2, #4]
  /* USER CODE BEGIN TIM3_MspInit 1 */

  /* USER CODE END TIM3_MspInit 1 */
  }

}
 8000804:	b006      	add	sp, #24
 8000806:	bd10      	pop	{r4, pc}
 8000808:	40000400 	.word	0x40000400
 800080c:	40010c00 	.word	0x40010c00
 8000810:	40010000 	.word	0x40010000

08000814 <HAL_UART_MspInit>:
* This function configures the hardware resources used in this example
* @param huart: UART handle pointer
* @retval None
*/
void HAL_UART_MspInit(UART_HandleTypeDef* huart)
{
 8000814:	b510      	push	{r4, lr}
 8000816:	4604      	mov	r4, r0
 8000818:	b086      	sub	sp, #24
  GPIO_InitTypeDef GPIO_InitStruct = {0};
 800081a:	2210      	movs	r2, #16
 800081c:	2100      	movs	r1, #0
 800081e:	a802      	add	r0, sp, #8
 8000820:	f004 fae4 	bl	8004dec <memset>
  if(huart->Instance==USART1)
 8000824:	6822      	ldr	r2, [r4, #0]
 8000826:	4b19      	ldr	r3, [pc, #100]	; (800088c <HAL_UART_MspInit+0x78>)
 8000828:	429a      	cmp	r2, r3
 800082a:	d12d      	bne.n	8000888 <HAL_UART_MspInit+0x74>
  {
  /* USER CODE BEGIN USART1_MspInit 0 */

  /* USER CODE END USART1_MspInit 0 */
    /* Peripheral clock enable */
    __HAL_RCC_USART1_CLK_ENABLE();
 800082c:	f503 4358 	add.w	r3, r3, #55296	; 0xd800
 8000830:	699a      	ldr	r2, [r3, #24]
    PB7     ------> USART1_RX
    */
    GPIO_InitStruct.Pin = GPIO_PIN_6;
    GPIO_InitStruct.Mode = GPIO_MODE_AF_PP;
    GPIO_InitStruct.Speed = GPIO_SPEED_FREQ_HIGH;
    HAL_GPIO_Init(GPIOB, &GPIO_InitStruct);
 8000832:	4817      	ldr	r0, [pc, #92]	; (8000890 <HAL_UART_MspInit+0x7c>)
    __HAL_RCC_USART1_CLK_ENABLE();
 8000834:	f442 4280 	orr.w	r2, r2, #16384	; 0x4000
 8000838:	619a      	str	r2, [r3, #24]
 800083a:	699a      	ldr	r2, [r3, #24]
    HAL_GPIO_Init(GPIOB, &GPIO_InitStruct);
 800083c:	a902      	add	r1, sp, #8
    __HAL_RCC_USART1_CLK_ENABLE();
 800083e:	f402 4280 	and.w	r2, r2, #16384	; 0x4000
 8000842:	9200      	str	r2, [sp, #0]
 8000844:	9a00      	ldr	r2, [sp, #0]
    __HAL_RCC_GPIOB_CLK_ENABLE();
 8000846:	699a      	ldr	r2, [r3, #24]
 8000848:	f042 0208 	orr.w	r2, r2, #8
 800084c:	619a      	str	r2, [r3, #24]
 800084e:	699b      	ldr	r3, [r3, #24]
    GPIO_InitStruct.Mode = GPIO_MODE_AF_PP;
 8000850:	2240      	movs	r2, #64	; 0x40
    __HAL_RCC_GPIOB_CLK_ENABLE();
 8000852:	f003 0308 	and.w	r3, r3, #8
 8000856:	9301      	str	r3, [sp, #4]
 8000858:	9b01      	ldr	r3, [sp, #4]
    GPIO_InitStruct.Mode = GPIO_MODE_AF_PP;
 800085a:	2302      	movs	r3, #2
 800085c:	e9cd 2302 	strd	r2, r3, [sp, #8]
    GPIO_InitStruct.Speed = GPIO_SPEED_FREQ_HIGH;
 8000860:	2303      	movs	r3, #3
 8000862:	9305      	str	r3, [sp, #20]
    HAL_GPIO_Init(GPIOB, &GPIO_InitStruct);
 8000864:	f000 fa34 	bl	8000cd0 <HAL_GPIO_Init>

    GPIO_InitStruct.Pin = GPIO_PIN_7;
    GPIO_InitStruct.Mode = GPIO_MODE_INPUT;
 8000868:	2300      	movs	r3, #0
 800086a:	2180      	movs	r1, #128	; 0x80
    GPIO_InitStruct.Pull = GPIO_NOPULL;
    HAL_GPIO_Init(GPIOB, &GPIO_InitStruct);
 800086c:	4808      	ldr	r0, [pc, #32]	; (8000890 <HAL_UART_MspInit+0x7c>)
    GPIO_InitStruct.Mode = GPIO_MODE_INPUT;
 800086e:	e9cd 1302 	strd	r1, r3, [sp, #8]
    HAL_GPIO_Init(GPIOB, &GPIO_InitStruct);
 8000872:	a902      	add	r1, sp, #8
    GPIO_InitStruct.Pull = GPIO_NOPULL;
 8000874:	9304      	str	r3, [sp, #16]
    HAL_GPIO_Init(GPIOB, &GPIO_InitStruct);
 8000876:	f000 fa2b 	bl	8000cd0 <HAL_GPIO_Init>

    __HAL_AFIO_REMAP_USART1_ENABLE();
 800087a:	4a06      	ldr	r2, [pc, #24]	; (8000894 <HAL_UART_MspInit+0x80>)
 800087c:	6853      	ldr	r3, [r2, #4]
 800087e:	f043 63e0 	orr.w	r3, r3, #117440512	; 0x7000000
 8000882:	f043 0304 	orr.w	r3, r3, #4
 8000886:	6053      	str	r3, [r2, #4]
  /* USER CODE BEGIN USART1_MspInit 1 */

  /* USER CODE END USART1_MspInit 1 */
  }

}
 8000888:	b006      	add	sp, #24
 800088a:	bd10      	pop	{r4, pc}
 800088c:	40013800 	.word	0x40013800
 8000890:	40010c00 	.word	0x40010c00
 8000894:	40010000 	.word	0x40010000

08000898 <NMI_Handler>:
{
  /* USER CODE BEGIN NonMaskableInt_IRQn 0 */

  /* USER CODE END NonMaskableInt_IRQn 0 */
  /* USER CODE BEGIN NonMaskableInt_IRQn 1 */
  while (1)
 8000898:	e7fe      	b.n	8000898 <NMI_Handler>
	...

0800089c <HardFault_Handler>:

/**
  * @brief This function handles Hard fault interrupt.
  */
void HardFault_Handler(void)
{
 800089c:	b508      	push	{r3, lr}

  /* USER CODE END HardFault_IRQn 0 */
  while (1)
  {
    /* USER CODE BEGIN W1_HardFault_IRQn 0 */
	  DEBUG_PRINTF("HARDFAULT ERROR!!!\n");
 800089e:	4c04      	ldr	r4, [pc, #16]	; (80008b0 <HardFault_Handler+0x14>)
 80008a0:	4620      	mov	r0, r4
 80008a2:	f7ff fc59 	bl	8000158 <myprintf>
	  HAL_Delay(2000);
 80008a6:	f44f 60fa 	mov.w	r0, #2000	; 0x7d0
 80008aa:	f000 f8a7 	bl	80009fc <HAL_Delay>
  while (1)
 80008ae:	e7f7      	b.n	80008a0 <HardFault_Handler+0x4>
 80008b0:	080057ac 	.word	0x080057ac

080008b4 <MemManage_Handler>:
void MemManage_Handler(void)
{
  /* USER CODE BEGIN MemoryManagement_IRQn 0 */

  /* USER CODE END MemoryManagement_IRQn 0 */
  while (1)
 80008b4:	e7fe      	b.n	80008b4 <MemManage_Handler>

080008b6 <BusFault_Handler>:
void BusFault_Handler(void)
{
  /* USER CODE BEGIN BusFault_IRQn 0 */

  /* USER CODE END BusFault_IRQn 0 */
  while (1)
 80008b6:	e7fe      	b.n	80008b6 <BusFault_Handler>

080008b8 <UsageFault_Handler>:
void UsageFault_Handler(void)
{
  /* USER CODE BEGIN UsageFault_IRQn 0 */

  /* USER CODE END UsageFault_IRQn 0 */
  while (1)
 80008b8:	e7fe      	b.n	80008b8 <UsageFault_Handler>

080008ba <SVC_Handler>:

  /* USER CODE END SVCall_IRQn 0 */
  /* USER CODE BEGIN SVCall_IRQn 1 */

  /* USER CODE END SVCall_IRQn 1 */
}
 80008ba:	4770      	bx	lr

080008bc <DebugMon_Handler>:
 80008bc:	4770      	bx	lr

080008be <PendSV_Handler>:
 80008be:	4770      	bx	lr

080008c0 <SysTick_Handler>:
void SysTick_Handler(void)
{
  /* USER CODE BEGIN SysTick_IRQn 0 */

  /* USER CODE END SysTick_IRQn 0 */
  HAL_IncTick();
 80008c0:	f000 b88a 	b.w	80009d8 <HAL_IncTick>

080008c4 <DMA1_Channel4_IRQHandler>:
void DMA1_Channel4_IRQHandler(void)
{
  /* USER CODE BEGIN DMA1_Channel4_IRQn 0 */

  /* USER CODE END DMA1_Channel4_IRQn 0 */
  HAL_DMA_IRQHandler(&hdma_spi2_rx);
 80008c4:	4801      	ldr	r0, [pc, #4]	; (80008cc <DMA1_Channel4_IRQHandler+0x8>)
 80008c6:	f000 b96f 	b.w	8000ba8 <HAL_DMA_IRQHandler>
 80008ca:	bf00      	nop
 80008cc:	200004d8 	.word	0x200004d8

080008d0 <TIM2_IRQHandler>:
void TIM2_IRQHandler(void)
{
  /* USER CODE BEGIN TIM2_IRQn 0 */

  /* USER CODE END TIM2_IRQn 0 */
  HAL_TIM_IRQHandler(&htim2);
 80008d0:	4801      	ldr	r0, [pc, #4]	; (80008d8 <TIM2_IRQHandler+0x8>)
 80008d2:	f001 b911 	b.w	8001af8 <HAL_TIM_IRQHandler>
 80008d6:	bf00      	nop
 80008d8:	20000604 	.word	0x20000604

080008dc <_sbrk>:
  const uint32_t stack_limit = (uint32_t)&_estack - (uint32_t)&_Min_Stack_Size;
  const uint8_t *max_heap = (uint8_t *)stack_limit;
  uint8_t *prev_heap_end;

  /* Initialize heap end at first call */
  if (NULL == __sbrk_heap_end)
 80008dc:	4b0b      	ldr	r3, [pc, #44]	; (800090c <_sbrk+0x30>)
{
 80008de:	4602      	mov	r2, r0
  if (NULL == __sbrk_heap_end)
 80008e0:	6819      	ldr	r1, [r3, #0]
{
 80008e2:	b510      	push	{r4, lr}
  if (NULL == __sbrk_heap_end)
 80008e4:	b909      	cbnz	r1, 80008ea <_sbrk+0xe>
  {
    __sbrk_heap_end = &_end;
 80008e6:	490a      	ldr	r1, [pc, #40]	; (8000910 <_sbrk+0x34>)
 80008e8:	6019      	str	r1, [r3, #0]
  }

  /* Protect heap from growing into the reserved MSP stack */
  if (__sbrk_heap_end + incr > max_heap)
 80008ea:	6818      	ldr	r0, [r3, #0]
 80008ec:	4909      	ldr	r1, [pc, #36]	; (8000914 <_sbrk+0x38>)
 80008ee:	4c0a      	ldr	r4, [pc, #40]	; (8000918 <_sbrk+0x3c>)
 80008f0:	4402      	add	r2, r0
 80008f2:	1b09      	subs	r1, r1, r4
 80008f4:	428a      	cmp	r2, r1
 80008f6:	d906      	bls.n	8000906 <_sbrk+0x2a>
  {
    errno = ENOMEM;
 80008f8:	f004 fa40 	bl	8004d7c <__errno>
 80008fc:	230c      	movs	r3, #12
 80008fe:	6003      	str	r3, [r0, #0]
    return (void *)-1;
 8000900:	f04f 30ff 	mov.w	r0, #4294967295

  prev_heap_end = __sbrk_heap_end;
  __sbrk_heap_end += incr;

  return (void *)prev_heap_end;
}
 8000904:	bd10      	pop	{r4, pc}
  __sbrk_heap_end += incr;
 8000906:	601a      	str	r2, [r3, #0]
  return (void *)prev_heap_end;
 8000908:	e7fc      	b.n	8000904 <_sbrk+0x28>
 800090a:	bf00      	nop
 800090c:	200000f4 	.word	0x200000f4
 8000910:	20001408 	.word	0x20001408
 8000914:	20005000 	.word	0x20005000
 8000918:	00000400 	.word	0x00000400

0800091c <SystemInit>:

  /* Configure the Vector Table location -------------------------------------*/
#if defined(USER_VECT_TAB_ADDRESS)
  SCB->VTOR = VECT_TAB_BASE_ADDRESS | VECT_TAB_OFFSET; /* Vector Table Relocation in Internal SRAM. */
#endif /* USER_VECT_TAB_ADDRESS */
}
 800091c:	4770      	bx	lr
	...

08000920 <Reset_Handler>:
  .weak Reset_Handler
  .type Reset_Handler, %function
Reset_Handler:

/* Call the clock system initialization function.*/
    bl  SystemInit
 8000920:	f7ff fffc 	bl	800091c <SystemInit>

/* Copy the data segment initializers from flash to SRAM */
  ldr r0, =_sdata
 8000924:	480b      	ldr	r0, [pc, #44]	; (8000954 <LoopFillZerobss+0xe>)
  ldr r1, =_edata
 8000926:	490c      	ldr	r1, [pc, #48]	; (8000958 <LoopFillZerobss+0x12>)
  ldr r2, =_sidata
 8000928:	4a0c      	ldr	r2, [pc, #48]	; (800095c <LoopFillZerobss+0x16>)
  movs r3, #0
 800092a:	2300      	movs	r3, #0
  b LoopCopyDataInit
 800092c:	e002      	b.n	8000934 <LoopCopyDataInit>

0800092e <CopyDataInit>:

CopyDataInit:
  ldr r4, [r2, r3]
 800092e:	58d4      	ldr	r4, [r2, r3]
  str r4, [r0, r3]
 8000930:	50c4      	str	r4, [r0, r3]
  adds r3, r3, #4
 8000932:	3304      	adds	r3, #4

08000934 <LoopCopyDataInit>:

LoopCopyDataInit:
  adds r4, r0, r3
 8000934:	18c4      	adds	r4, r0, r3
  cmp r4, r1
 8000936:	428c      	cmp	r4, r1
  bcc CopyDataInit
 8000938:	d3f9      	bcc.n	800092e <CopyDataInit>
  
/* Zero fill the bss segment. */
  ldr r2, =_sbss
 800093a:	4a09      	ldr	r2, [pc, #36]	; (8000960 <LoopFillZerobss+0x1a>)
  ldr r4, =_ebss
 800093c:	4c09      	ldr	r4, [pc, #36]	; (8000964 <LoopFillZerobss+0x1e>)
  movs r3, #0
 800093e:	2300      	movs	r3, #0
  b LoopFillZerobss
 8000940:	e001      	b.n	8000946 <LoopFillZerobss>

08000942 <FillZerobss>:

FillZerobss:
  str  r3, [r2]
 8000942:	6013      	str	r3, [r2, #0]
  adds r2, r2, #4
 8000944:	3204      	adds	r2, #4

08000946 <LoopFillZerobss>:

LoopFillZerobss:
  cmp r2, r4
 8000946:	42a2      	cmp	r2, r4
  bcc FillZerobss
 8000948:	d3fb      	bcc.n	8000942 <FillZerobss>

/* Call static constructors */
    bl __libc_init_array
 800094a:	f004 fa1d 	bl	8004d88 <__libc_init_array>
/* Call the application's entry point.*/
  bl main
 800094e:	f7ff fc71 	bl	8000234 <main>
  bx lr
 8000952:	4770      	bx	lr
  ldr r0, =_sdata
 8000954:	20000000 	.word	0x20000000
  ldr r1, =_edata
 8000958:	200000d8 	.word	0x200000d8
  ldr r2, =_sidata
 800095c:	080062ac 	.word	0x080062ac
  ldr r2, =_sbss
 8000960:	200000d8 	.word	0x200000d8
  ldr r4, =_ebss
 8000964:	20001404 	.word	0x20001404

08000968 <ADC1_2_IRQHandler>:
 * @retval : None
*/
    .section .text.Default_Handler,"ax",%progbits
Default_Handler:
Infinite_Loop:
  b Infinite_Loop
 8000968:	e7fe      	b.n	8000968 <ADC1_2_IRQHandler>
	...

0800096c <HAL_InitTick>:
  *       implementation  in user file.
  * @param TickPriority Tick interrupt priority.
  * @retval HAL status
  */
__weak HAL_StatusTypeDef HAL_InitTick(uint32_t TickPriority)
{
 800096c:	b538      	push	{r3, r4, r5, lr}
  /* Configure the SysTick to have interrupt in 1ms time basis*/
  if (HAL_SYSTICK_Config(SystemCoreClock / (1000U / uwTickFreq)) > 0U)
 800096e:	4b0e      	ldr	r3, [pc, #56]	; (80009a8 <HAL_InitTick+0x3c>)
{
 8000970:	4605      	mov	r5, r0
  if (HAL_SYSTICK_Config(SystemCoreClock / (1000U / uwTickFreq)) > 0U)
 8000972:	7818      	ldrb	r0, [r3, #0]
 8000974:	f44f 737a 	mov.w	r3, #1000	; 0x3e8
 8000978:	fbb3 f3f0 	udiv	r3, r3, r0
 800097c:	4a0b      	ldr	r2, [pc, #44]	; (80009ac <HAL_InitTick+0x40>)
 800097e:	6810      	ldr	r0, [r2, #0]
 8000980:	fbb0 f0f3 	udiv	r0, r0, r3
 8000984:	f000 f89e 	bl	8000ac4 <HAL_SYSTICK_Config>
 8000988:	4604      	mov	r4, r0
 800098a:	b958      	cbnz	r0, 80009a4 <HAL_InitTick+0x38>
  {
    return HAL_ERROR;
  }

  /* Configure the SysTick IRQ priority */
  if (TickPriority < (1UL << __NVIC_PRIO_BITS))
 800098c:	2d0f      	cmp	r5, #15
 800098e:	d809      	bhi.n	80009a4 <HAL_InitTick+0x38>
  {
    HAL_NVIC_SetPriority(SysTick_IRQn, TickPriority, 0U);
 8000990:	4602      	mov	r2, r0
 8000992:	4629      	mov	r1, r5
 8000994:	f04f 30ff 	mov.w	r0, #4294967295
 8000998:	f000 f854 	bl	8000a44 <HAL_NVIC_SetPriority>
    uwTickPrio = TickPriority;
 800099c:	4620      	mov	r0, r4
 800099e:	4b04      	ldr	r3, [pc, #16]	; (80009b0 <HAL_InitTick+0x44>)
 80009a0:	601d      	str	r5, [r3, #0]
    return HAL_ERROR;
  }

  /* Return function status */
  return HAL_OK;
}
 80009a2:	bd38      	pop	{r3, r4, r5, pc}
    return HAL_ERROR;
 80009a4:	2001      	movs	r0, #1
 80009a6:	e7fc      	b.n	80009a2 <HAL_InitTick+0x36>
 80009a8:	2000000c 	.word	0x2000000c
 80009ac:	20000008 	.word	0x20000008
 80009b0:	20000010 	.word	0x20000010

080009b4 <HAL_Init>:
  __HAL_FLASH_PREFETCH_BUFFER_ENABLE();
 80009b4:	4a07      	ldr	r2, [pc, #28]	; (80009d4 <HAL_Init+0x20>)
{
 80009b6:	b508      	push	{r3, lr}
  __HAL_FLASH_PREFETCH_BUFFER_ENABLE();
 80009b8:	6813      	ldr	r3, [r2, #0]
  HAL_NVIC_SetPriorityGrouping(NVIC_PRIORITYGROUP_4);
 80009ba:	2003      	movs	r0, #3
  __HAL_FLASH_PREFETCH_BUFFER_ENABLE();
 80009bc:	f043 0310 	orr.w	r3, r3, #16
 80009c0:	6013      	str	r3, [r2, #0]
  HAL_NVIC_SetPriorityGrouping(NVIC_PRIORITYGROUP_4);
 80009c2:	f000 f82d 	bl	8000a20 <HAL_NVIC_SetPriorityGrouping>
  HAL_InitTick(TICK_INT_PRIORITY);
 80009c6:	200f      	movs	r0, #15
 80009c8:	f7ff ffd0 	bl	800096c <HAL_InitTick>
  HAL_MspInit();
 80009cc:	f7ff fdbc 	bl	8000548 <HAL_MspInit>
}
 80009d0:	2000      	movs	r0, #0
 80009d2:	bd08      	pop	{r3, pc}
 80009d4:	40022000 	.word	0x40022000

080009d8 <HAL_IncTick>:
  *      implementations in user file.
  * @retval None
  */
__weak void HAL_IncTick(void)
{
  uwTick += uwTickFreq;
 80009d8:	4a03      	ldr	r2, [pc, #12]	; (80009e8 <HAL_IncTick+0x10>)
 80009da:	4b04      	ldr	r3, [pc, #16]	; (80009ec <HAL_IncTick+0x14>)
 80009dc:	6811      	ldr	r1, [r2, #0]
 80009de:	781b      	ldrb	r3, [r3, #0]
 80009e0:	440b      	add	r3, r1
 80009e2:	6013      	str	r3, [r2, #0]
}
 80009e4:	4770      	bx	lr
 80009e6:	bf00      	nop
 80009e8:	20000ac8 	.word	0x20000ac8
 80009ec:	2000000c 	.word	0x2000000c

080009f0 <HAL_GetTick>:
  *       implementations in user file.
  * @retval tick value
  */
__weak uint32_t HAL_GetTick(void)
{
  return uwTick;
 80009f0:	4b01      	ldr	r3, [pc, #4]	; (80009f8 <HAL_GetTick+0x8>)
 80009f2:	6818      	ldr	r0, [r3, #0]
}
 80009f4:	4770      	bx	lr
 80009f6:	bf00      	nop
 80009f8:	20000ac8 	.word	0x20000ac8

080009fc <HAL_Delay>:
  *       implementations in user file.
  * @param Delay specifies the delay time length, in milliseconds.
  * @retval None
  */
__weak void HAL_Delay(uint32_t Delay)
{
 80009fc:	b538      	push	{r3, r4, r5, lr}
 80009fe:	4604      	mov	r4, r0
  uint32_t tickstart = HAL_GetTick();
 8000a00:	f7ff fff6 	bl	80009f0 <HAL_GetTick>
 8000a04:	4605      	mov	r5, r0
  uint32_t wait = Delay;

  /* Add a freq to guarantee minimum wait */
  if (wait < HAL_MAX_DELAY)
 8000a06:	1c63      	adds	r3, r4, #1
  {
    wait += (uint32_t)(uwTickFreq);
 8000a08:	bf1e      	ittt	ne
 8000a0a:	4b04      	ldrne	r3, [pc, #16]	; (8000a1c <HAL_Delay+0x20>)
 8000a0c:	781b      	ldrbne	r3, [r3, #0]
 8000a0e:	18e4      	addne	r4, r4, r3
  }

  while ((HAL_GetTick() - tickstart) < wait)
 8000a10:	f7ff ffee 	bl	80009f0 <HAL_GetTick>
 8000a14:	1b43      	subs	r3, r0, r5
 8000a16:	42a3      	cmp	r3, r4
 8000a18:	d3fa      	bcc.n	8000a10 <HAL_Delay+0x14>
  {
  }
}
 8000a1a:	bd38      	pop	{r3, r4, r5, pc}
 8000a1c:	2000000c 	.word	0x2000000c

08000a20 <HAL_NVIC_SetPriorityGrouping>:
__STATIC_INLINE void __NVIC_SetPriorityGrouping(uint32_t PriorityGroup)
{
  uint32_t reg_value;
  uint32_t PriorityGroupTmp = (PriorityGroup & (uint32_t)0x07UL);             /* only values 0..7 are used          */

  reg_value  =  SCB->AIRCR;                                                   /* read old register configuration    */
 8000a20:	4907      	ldr	r1, [pc, #28]	; (8000a40 <HAL_NVIC_SetPriorityGrouping+0x20>)
  reg_value &= ~((uint32_t)(SCB_AIRCR_VECTKEY_Msk | SCB_AIRCR_PRIGROUP_Msk)); /* clear bits to change               */
  reg_value  =  (reg_value                                   |
                ((uint32_t)0x5FAUL << SCB_AIRCR_VECTKEY_Pos) |
                (PriorityGroupTmp << SCB_AIRCR_PRIGROUP_Pos) );               /* Insert write key and priority group */
 8000a22:	0203      	lsls	r3, r0, #8
  reg_value  =  SCB->AIRCR;                                                   /* read old register configuration    */
 8000a24:	68ca      	ldr	r2, [r1, #12]
                (PriorityGroupTmp << SCB_AIRCR_PRIGROUP_Pos) );               /* Insert write key and priority group */
 8000a26:	f403 63e0 	and.w	r3, r3, #1792	; 0x700
  reg_value &= ~((uint32_t)(SCB_AIRCR_VECTKEY_Msk | SCB_AIRCR_PRIGROUP_Msk)); /* clear bits to change               */
 8000a2a:	f422 62e0 	bic.w	r2, r2, #1792	; 0x700
 8000a2e:	0412      	lsls	r2, r2, #16
 8000a30:	0c12      	lsrs	r2, r2, #16
                ((uint32_t)0x5FAUL << SCB_AIRCR_VECTKEY_Pos) |
 8000a32:	4313      	orrs	r3, r2
  reg_value  =  (reg_value                                   |
 8000a34:	f043 63bf 	orr.w	r3, r3, #100139008	; 0x5f80000
 8000a38:	f443 3300 	orr.w	r3, r3, #131072	; 0x20000
  SCB->AIRCR =  reg_value;
 8000a3c:	60cb      	str	r3, [r1, #12]
  /* Check the parameters */
  assert_param(IS_NVIC_PRIORITY_GROUP(PriorityGroup));
  
  /* Set the PRIGROUP[10:8] bits according to the PriorityGroup parameter value */
  NVIC_SetPriorityGrouping(PriorityGroup);
}
 8000a3e:	4770      	bx	lr
 8000a40:	e000ed00 	.word	0xe000ed00

08000a44 <HAL_NVIC_SetPriority>:
  \details Reads the priority grouping field from the NVIC Interrupt Controller.
  \return                Priority grouping field (SCB->AIRCR [10:8] PRIGROUP field).
 */
__STATIC_INLINE uint32_t __NVIC_GetPriorityGrouping(void)
{
  return ((uint32_t)((SCB->AIRCR & SCB_AIRCR_PRIGROUP_Msk) >> SCB_AIRCR_PRIGROUP_Pos));
 8000a44:	4b16      	ldr	r3, [pc, #88]	; (8000aa0 <HAL_NVIC_SetPriority+0x5c>)
  *         This parameter can be a value between 0 and 15
  *         A lower priority value indicates a higher priority.          
  * @retval None
  */
void HAL_NVIC_SetPriority(IRQn_Type IRQn, uint32_t PreemptPriority, uint32_t SubPriority)
{ 
 8000a46:	b530      	push	{r4, r5, lr}
 8000a48:	68dc      	ldr	r4, [r3, #12]
 8000a4a:	f3c4 2402 	ubfx	r4, r4, #8, #3
{
  uint32_t PriorityGroupTmp = (PriorityGroup & (uint32_t)0x07UL);   /* only values 0..7 are used          */
  uint32_t PreemptPriorityBits;
  uint32_t SubPriorityBits;

  PreemptPriorityBits = ((7UL - PriorityGroupTmp) > (uint32_t)(__NVIC_PRIO_BITS)) ? (uint32_t)(__NVIC_PRIO_BITS) : (uint32_t)(7UL - PriorityGroupTmp);
 8000a4e:	f1c4 0307 	rsb	r3, r4, #7
  SubPriorityBits     = ((PriorityGroupTmp + (uint32_t)(__NVIC_PRIO_BITS)) < (uint32_t)7UL) ? (uint32_t)0UL : (uint32_t)((PriorityGroupTmp - 7UL) + (uint32_t)(__NVIC_PRIO_BITS));
 8000a52:	1d25      	adds	r5, r4, #4
  PreemptPriorityBits = ((7UL - PriorityGroupTmp) > (uint32_t)(__NVIC_PRIO_BITS)) ? (uint32_t)(__NVIC_PRIO_BITS) : (uint32_t)(7UL - PriorityGroupTmp);
 8000a54:	2b04      	cmp	r3, #4
 8000a56:	bf28      	it	cs
 8000a58:	2304      	movcs	r3, #4
  SubPriorityBits     = ((PriorityGroupTmp + (uint32_t)(__NVIC_PRIO_BITS)) < (uint32_t)7UL) ? (uint32_t)0UL : (uint32_t)((PriorityGroupTmp - 7UL) + (uint32_t)(__NVIC_PRIO_BITS));
 8000a5a:	2d06      	cmp	r5, #6

  return (
           ((PreemptPriority & (uint32_t)((1UL << (PreemptPriorityBits)) - 1UL)) << SubPriorityBits) |
 8000a5c:	f04f 35ff 	mov.w	r5, #4294967295
  SubPriorityBits     = ((PriorityGroupTmp + (uint32_t)(__NVIC_PRIO_BITS)) < (uint32_t)7UL) ? (uint32_t)0UL : (uint32_t)((PriorityGroupTmp - 7UL) + (uint32_t)(__NVIC_PRIO_BITS));
 8000a60:	bf98      	it	ls
 8000a62:	2400      	movls	r4, #0
           ((PreemptPriority & (uint32_t)((1UL << (PreemptPriorityBits)) - 1UL)) << SubPriorityBits) |
 8000a64:	fa05 f303 	lsl.w	r3, r5, r3
  SubPriorityBits     = ((PriorityGroupTmp + (uint32_t)(__NVIC_PRIO_BITS)) < (uint32_t)7UL) ? (uint32_t)0UL : (uint32_t)((PriorityGroupTmp - 7UL) + (uint32_t)(__NVIC_PRIO_BITS));
 8000a68:	bf88      	it	hi
 8000a6a:	3c03      	subhi	r4, #3
           ((PreemptPriority & (uint32_t)((1UL << (PreemptPriorityBits)) - 1UL)) << SubPriorityBits) |
 8000a6c:	ea21 0303 	bic.w	r3, r1, r3
 8000a70:	40a3      	lsls	r3, r4
           ((SubPriority     & (uint32_t)((1UL << (SubPriorityBits    )) - 1UL)))
 8000a72:	fa05 f404 	lsl.w	r4, r5, r4
 8000a76:	ea22 0204 	bic.w	r2, r2, r4
  if ((int32_t)(IRQn) >= 0)
 8000a7a:	2800      	cmp	r0, #0
           ((PreemptPriority & (uint32_t)((1UL << (PreemptPriorityBits)) - 1UL)) << SubPriorityBits) |
 8000a7c:	ea43 0302 	orr.w	r3, r3, r2
    NVIC->IP[((uint32_t)IRQn)]               = (uint8_t)((priority << (8U - __NVIC_PRIO_BITS)) & (uint32_t)0xFFUL);
 8000a80:	bfac      	ite	ge
 8000a82:	f100 4060 	addge.w	r0, r0, #3758096384	; 0xe0000000
    SCB->SHP[(((uint32_t)IRQn) & 0xFUL)-4UL] = (uint8_t)((priority << (8U - __NVIC_PRIO_BITS)) & (uint32_t)0xFFUL);
 8000a86:	4a07      	ldrlt	r2, [pc, #28]	; (8000aa4 <HAL_NVIC_SetPriority+0x60>)
 8000a88:	ea4f 1303 	mov.w	r3, r3, lsl #4
 8000a8c:	b2db      	uxtb	r3, r3
    NVIC->IP[((uint32_t)IRQn)]               = (uint8_t)((priority << (8U - __NVIC_PRIO_BITS)) & (uint32_t)0xFFUL);
 8000a8e:	bfab      	itete	ge
 8000a90:	f500 4061 	addge.w	r0, r0, #57600	; 0xe100
    SCB->SHP[(((uint32_t)IRQn) & 0xFUL)-4UL] = (uint8_t)((priority << (8U - __NVIC_PRIO_BITS)) & (uint32_t)0xFFUL);
 8000a94:	f000 000f 	andlt.w	r0, r0, #15
    NVIC->IP[((uint32_t)IRQn)]               = (uint8_t)((priority << (8U - __NVIC_PRIO_BITS)) & (uint32_t)0xFFUL);
 8000a98:	f880 3300 	strbge.w	r3, [r0, #768]	; 0x300
    SCB->SHP[(((uint32_t)IRQn) & 0xFUL)-4UL] = (uint8_t)((priority << (8U - __NVIC_PRIO_BITS)) & (uint32_t)0xFFUL);
 8000a9c:	5413      	strblt	r3, [r2, r0]
  assert_param(IS_NVIC_PREEMPTION_PRIORITY(PreemptPriority));
  
  prioritygroup = NVIC_GetPriorityGrouping();
  
  NVIC_SetPriority(IRQn, NVIC_EncodePriority(prioritygroup, PreemptPriority, SubPriority));
}
 8000a9e:	bd30      	pop	{r4, r5, pc}
 8000aa0:	e000ed00 	.word	0xe000ed00
 8000aa4:	e000ed14 	.word	0xe000ed14

08000aa8 <HAL_NVIC_EnableIRQ>:
  if ((int32_t)(IRQn) >= 0)
 8000aa8:	2800      	cmp	r0, #0
 8000aaa:	db08      	blt.n	8000abe <HAL_NVIC_EnableIRQ+0x16>
    NVIC->ISER[(((uint32_t)IRQn) >> 5UL)] = (uint32_t)(1UL << (((uint32_t)IRQn) & 0x1FUL));
 8000aac:	2301      	movs	r3, #1
 8000aae:	0942      	lsrs	r2, r0, #5
 8000ab0:	f000 001f 	and.w	r0, r0, #31
 8000ab4:	fa03 f000 	lsl.w	r0, r3, r0
 8000ab8:	4b01      	ldr	r3, [pc, #4]	; (8000ac0 <HAL_NVIC_EnableIRQ+0x18>)
 8000aba:	f843 0022 	str.w	r0, [r3, r2, lsl #2]
  /* Check the parameters */
  assert_param(IS_NVIC_DEVICE_IRQ(IRQn));

  /* Enable interrupt */
  NVIC_EnableIRQ(IRQn);
}
 8000abe:	4770      	bx	lr
 8000ac0:	e000e100 	.word	0xe000e100

08000ac4 <HAL_SYSTICK_Config>:
           function <b>SysTick_Config</b> is not included. In this case, the file <b><i>device</i>.h</b>
           must contain a vendor-specific implementation of this function.
 */
__STATIC_INLINE uint32_t SysTick_Config(uint32_t ticks)
{
  if ((ticks - 1UL) > SysTick_LOAD_RELOAD_Msk)
 8000ac4:	3801      	subs	r0, #1
 8000ac6:	f1b0 7f80 	cmp.w	r0, #16777216	; 0x1000000
 8000aca:	d20a      	bcs.n	8000ae2 <HAL_SYSTICK_Config+0x1e>
    SCB->SHP[(((uint32_t)IRQn) & 0xFUL)-4UL] = (uint8_t)((priority << (8U - __NVIC_PRIO_BITS)) & (uint32_t)0xFFUL);
 8000acc:	21f0      	movs	r1, #240	; 0xf0
  {
    return (1UL);                                                   /* Reload value impossible */
  }

  SysTick->LOAD  = (uint32_t)(ticks - 1UL);                         /* set reload register */
 8000ace:	4b06      	ldr	r3, [pc, #24]	; (8000ae8 <HAL_SYSTICK_Config+0x24>)
    SCB->SHP[(((uint32_t)IRQn) & 0xFUL)-4UL] = (uint8_t)((priority << (8U - __NVIC_PRIO_BITS)) & (uint32_t)0xFFUL);
 8000ad0:	4a06      	ldr	r2, [pc, #24]	; (8000aec <HAL_SYSTICK_Config+0x28>)
  SysTick->LOAD  = (uint32_t)(ticks - 1UL);                         /* set reload register */
 8000ad2:	6058      	str	r0, [r3, #4]
    SCB->SHP[(((uint32_t)IRQn) & 0xFUL)-4UL] = (uint8_t)((priority << (8U - __NVIC_PRIO_BITS)) & (uint32_t)0xFFUL);
 8000ad4:	f882 1023 	strb.w	r1, [r2, #35]	; 0x23
  NVIC_SetPriority (SysTick_IRQn, (1UL << __NVIC_PRIO_BITS) - 1UL); /* set Priority for Systick Interrupt */
  SysTick->VAL   = 0UL;                                             /* Load the SysTick Counter Value */
 8000ad8:	2000      	movs	r0, #0
  SysTick->CTRL  = SysTick_CTRL_CLKSOURCE_Msk |
 8000ada:	2207      	movs	r2, #7
  SysTick->VAL   = 0UL;                                             /* Load the SysTick Counter Value */
 8000adc:	6098      	str	r0, [r3, #8]
  SysTick->CTRL  = SysTick_CTRL_CLKSOURCE_Msk |
 8000ade:	601a      	str	r2, [r3, #0]
                   SysTick_CTRL_TICKINT_Msk   |
                   SysTick_CTRL_ENABLE_Msk;                         /* Enable SysTick IRQ and SysTick Timer */
  return (0UL);                                                     /* Function successful */
 8000ae0:	4770      	bx	lr
    return (1UL);                                                   /* Reload value impossible */
 8000ae2:	2001      	movs	r0, #1
  *                  - 1  Function failed.
  */
uint32_t HAL_SYSTICK_Config(uint32_t TicksNumb)
{
   return SysTick_Config(TicksNumb);
}
 8000ae4:	4770      	bx	lr
 8000ae6:	bf00      	nop
 8000ae8:	e000e010 	.word	0xe000e010
 8000aec:	e000ed00 	.word	0xe000ed00

08000af0 <HAL_DMA_Init>:
  * @param  hdma: Pointer to a DMA_HandleTypeDef structure that contains
  *               the configuration information for the specified DMA Channel.
  * @retval HAL status
  */
HAL_StatusTypeDef HAL_DMA_Init(DMA_HandleTypeDef *hdma)
{
 8000af0:	b510      	push	{r4, lr}
  uint32_t tmp = 0U;

  /* Check the DMA handle allocation */
  if(hdma == NULL)
 8000af2:	b348      	cbz	r0, 8000b48 <HAL_DMA_Init+0x58>
    hdma->ChannelIndex = (((uint32_t)hdma->Instance - (uint32_t)DMA2_Channel1) / ((uint32_t)DMA2_Channel2 - (uint32_t)DMA2_Channel1)) << 2;
    hdma->DmaBaseAddress = DMA2;
  }
#else
  /* DMA1 */
  hdma->ChannelIndex = (((uint32_t)hdma->Instance - (uint32_t)DMA1_Channel1) / ((uint32_t)DMA1_Channel2 - (uint32_t)DMA1_Channel1)) << 2;
 8000af4:	2214      	movs	r2, #20
 8000af6:	6801      	ldr	r1, [r0, #0]
 8000af8:	4b14      	ldr	r3, [pc, #80]	; (8000b4c <HAL_DMA_Init+0x5c>)
 8000afa:	440b      	add	r3, r1
 8000afc:	fbb3 f3f2 	udiv	r3, r3, r2
 8000b00:	009b      	lsls	r3, r3, #2
 8000b02:	6403      	str	r3, [r0, #64]	; 0x40
  hdma->DmaBaseAddress = DMA1;
 8000b04:	4b12      	ldr	r3, [pc, #72]	; (8000b50 <HAL_DMA_Init+0x60>)
 8000b06:	63c3      	str	r3, [r0, #60]	; 0x3c
#endif /* DMA2 */

  /* Change DMA peripheral state */
  hdma->State = HAL_DMA_STATE_BUSY;
 8000b08:	2302      	movs	r3, #2
 8000b0a:	f880 3021 	strb.w	r3, [r0, #33]	; 0x21
  tmp &= ((uint32_t)~(DMA_CCR_PL    | DMA_CCR_MSIZE  | DMA_CCR_PSIZE  | \
                      DMA_CCR_MINC  | DMA_CCR_PINC   | DMA_CCR_CIRC   | \
                      DMA_CCR_DIR));

  /* Prepare the DMA Channel configuration */
  tmp |=  hdma->Init.Direction        |
 8000b0e:	e9d0 3401 	ldrd	r3, r4, [r0, #4]
 8000b12:	4323      	orrs	r3, r4
          hdma->Init.PeriphInc           | hdma->Init.MemInc           |
 8000b14:	68c4      	ldr	r4, [r0, #12]
  tmp = hdma->Instance->CCR;
 8000b16:	680a      	ldr	r2, [r1, #0]
          hdma->Init.PeriphInc           | hdma->Init.MemInc           |
 8000b18:	4323      	orrs	r3, r4
 8000b1a:	6904      	ldr	r4, [r0, #16]
  tmp &= ((uint32_t)~(DMA_CCR_PL    | DMA_CCR_MSIZE  | DMA_CCR_PSIZE  | \
 8000b1c:	f422 527f 	bic.w	r2, r2, #16320	; 0x3fc0
          hdma->Init.PeriphInc           | hdma->Init.MemInc           |
 8000b20:	4323      	orrs	r3, r4
          hdma->Init.PeriphDataAlignment | hdma->Init.MemDataAlignment |
 8000b22:	6944      	ldr	r4, [r0, #20]
  tmp &= ((uint32_t)~(DMA_CCR_PL    | DMA_CCR_MSIZE  | DMA_CCR_PSIZE  | \
 8000b24:	f022 0230 	bic.w	r2, r2, #48	; 0x30
          hdma->Init.PeriphDataAlignment | hdma->Init.MemDataAlignment |
 8000b28:	4323      	orrs	r3, r4
 8000b2a:	6984      	ldr	r4, [r0, #24]
 8000b2c:	4323      	orrs	r3, r4
          hdma->Init.Mode                | hdma->Init.Priority;
 8000b2e:	69c4      	ldr	r4, [r0, #28]
 8000b30:	4323      	orrs	r3, r4
  tmp |=  hdma->Init.Direction        |
 8000b32:	4313      	orrs	r3, r2

  /* Write to DMA Channel CR register */
  hdma->Instance->CCR = tmp;
 8000b34:	600b      	str	r3, [r1, #0]

  /* Initialise the error code */
  hdma->ErrorCode = HAL_DMA_ERROR_NONE;

  /* Initialize the DMA state*/
  hdma->State = HAL_DMA_STATE_READY;
 8000b36:	2201      	movs	r2, #1
  hdma->ErrorCode = HAL_DMA_ERROR_NONE;
 8000b38:	2300      	movs	r3, #0
 8000b3a:	6383      	str	r3, [r0, #56]	; 0x38
  /* Allocate lock resource and initialize it */
  hdma->Lock = HAL_UNLOCKED;
 8000b3c:	f880 3020 	strb.w	r3, [r0, #32]
  hdma->State = HAL_DMA_STATE_READY;
 8000b40:	f880 2021 	strb.w	r2, [r0, #33]	; 0x21

  return HAL_OK;
 8000b44:	4618      	mov	r0, r3
}
 8000b46:	bd10      	pop	{r4, pc}
    return HAL_ERROR;
 8000b48:	2001      	movs	r0, #1
 8000b4a:	e7fc      	b.n	8000b46 <HAL_DMA_Init+0x56>
 8000b4c:	bffdfff8 	.word	0xbffdfff8
 8000b50:	40020000 	.word	0x40020000

08000b54 <HAL_DMA_DeInit>:
  * @retval HAL status
  */
HAL_StatusTypeDef HAL_DMA_DeInit(DMA_HandleTypeDef *hdma)
{
  /* Check the DMA handle allocation */
  if(hdma == NULL)
 8000b54:	4603      	mov	r3, r0
{
 8000b56:	b510      	push	{r4, lr}
  if(hdma == NULL)
 8000b58:	b300      	cbz	r0, 8000b9c <HAL_DMA_DeInit+0x48>

  /* Check the parameters */
  assert_param(IS_DMA_ALL_INSTANCE(hdma->Instance));

  /* Disable the selected DMA Channelx */
  __HAL_DMA_DISABLE(hdma);
 8000b5a:	6801      	ldr	r1, [r0, #0]

  /* Reset DMA Channel control register */
  hdma->Instance->CCR  = 0U;
 8000b5c:	2000      	movs	r0, #0
  __HAL_DMA_DISABLE(hdma);
 8000b5e:	680a      	ldr	r2, [r1, #0]
    hdma->DmaBaseAddress = DMA2;
  }
#else
  /* DMA1 */
  hdma->ChannelIndex = (((uint32_t)hdma->Instance - (uint32_t)DMA1_Channel1) / ((uint32_t)DMA1_Channel2 - (uint32_t)DMA1_Channel1)) << 2;
  hdma->DmaBaseAddress = DMA1;
 8000b60:	4c0f      	ldr	r4, [pc, #60]	; (8000ba0 <HAL_DMA_DeInit+0x4c>)
  __HAL_DMA_DISABLE(hdma);
 8000b62:	f022 0201 	bic.w	r2, r2, #1
 8000b66:	600a      	str	r2, [r1, #0]
  hdma->ChannelIndex = (((uint32_t)hdma->Instance - (uint32_t)DMA1_Channel1) / ((uint32_t)DMA1_Channel2 - (uint32_t)DMA1_Channel1)) << 2;
 8000b68:	4a0e      	ldr	r2, [pc, #56]	; (8000ba4 <HAL_DMA_DeInit+0x50>)
  hdma->Instance->CCR  = 0U;
 8000b6a:	6008      	str	r0, [r1, #0]
  hdma->ChannelIndex = (((uint32_t)hdma->Instance - (uint32_t)DMA1_Channel1) / ((uint32_t)DMA1_Channel2 - (uint32_t)DMA1_Channel1)) << 2;
 8000b6c:	440a      	add	r2, r1
  hdma->Instance->CNDTR = 0U;
 8000b6e:	6048      	str	r0, [r1, #4]
  hdma->Instance->CPAR  = 0U;
 8000b70:	6088      	str	r0, [r1, #8]
  hdma->Instance->CMAR = 0U;
 8000b72:	60c8      	str	r0, [r1, #12]
  hdma->ChannelIndex = (((uint32_t)hdma->Instance - (uint32_t)DMA1_Channel1) / ((uint32_t)DMA1_Channel2 - (uint32_t)DMA1_Channel1)) << 2;
 8000b74:	2114      	movs	r1, #20
 8000b76:	fbb2 f2f1 	udiv	r2, r2, r1
#endif /* DMA2 */

  /* Clear all flags */
  hdma->DmaBaseAddress->IFCR = (DMA_ISR_GIF1 << (hdma->ChannelIndex));
 8000b7a:	2101      	movs	r1, #1
  hdma->ChannelIndex = (((uint32_t)hdma->Instance - (uint32_t)DMA1_Channel1) / ((uint32_t)DMA1_Channel2 - (uint32_t)DMA1_Channel1)) << 2;
 8000b7c:	0092      	lsls	r2, r2, #2
 8000b7e:	641a      	str	r2, [r3, #64]	; 0x40
  hdma->DmaBaseAddress->IFCR = (DMA_ISR_GIF1 << (hdma->ChannelIndex));
 8000b80:	fa01 f202 	lsl.w	r2, r1, r2
  hdma->DmaBaseAddress = DMA1;
 8000b84:	63dc      	str	r4, [r3, #60]	; 0x3c
  hdma->DmaBaseAddress->IFCR = (DMA_ISR_GIF1 << (hdma->ChannelIndex));
 8000b86:	6062      	str	r2, [r4, #4]

  /* Clean all callbacks */
  hdma->XferCpltCallback = NULL;
  hdma->XferHalfCpltCallback = NULL;
 8000b88:	e9c3 000a 	strd	r0, r0, [r3, #40]	; 0x28
  hdma->XferErrorCallback = NULL;
  hdma->XferAbortCallback = NULL;
 8000b8c:	e9c3 000c 	strd	r0, r0, [r3, #48]	; 0x30

  /* Reset the error code */
  hdma->ErrorCode = HAL_DMA_ERROR_NONE;
 8000b90:	6398      	str	r0, [r3, #56]	; 0x38

  /* Reset the DMA state */
  hdma->State = HAL_DMA_STATE_RESET;

  /* Release Lock */
  __HAL_UNLOCK(hdma);
 8000b92:	f883 0020 	strb.w	r0, [r3, #32]
  hdma->State = HAL_DMA_STATE_RESET;
 8000b96:	f883 0021 	strb.w	r0, [r3, #33]	; 0x21

  return HAL_OK;
}
 8000b9a:	bd10      	pop	{r4, pc}
    return HAL_ERROR;
 8000b9c:	2001      	movs	r0, #1
 8000b9e:	e7fc      	b.n	8000b9a <HAL_DMA_DeInit+0x46>
 8000ba0:	40020000 	.word	0x40020000
 8000ba4:	bffdfff8 	.word	0xbffdfff8

08000ba8 <HAL_DMA_IRQHandler>:
  * @param  hdma: pointer to a DMA_HandleTypeDef structure that contains
  *               the configuration information for the specified DMA Channel.  
  * @retval None
  */
void HAL_DMA_IRQHandler(DMA_HandleTypeDef *hdma)
{
 8000ba8:	b470      	push	{r4, r5, r6}
  uint32_t flag_it = hdma->DmaBaseAddress->ISR;
  uint32_t source_it = hdma->Instance->CCR;
  
  /* Half Transfer Complete Interrupt management ******************************/
  if (((flag_it & (DMA_FLAG_HT1 << hdma->ChannelIndex)) != RESET) && ((source_it & DMA_IT_HT) != RESET))
 8000baa:	2504      	movs	r5, #4
  uint32_t flag_it = hdma->DmaBaseAddress->ISR;
 8000bac:	6bc6      	ldr	r6, [r0, #60]	; 0x3c
  if (((flag_it & (DMA_FLAG_HT1 << hdma->ChannelIndex)) != RESET) && ((source_it & DMA_IT_HT) != RESET))
 8000bae:	6c02      	ldr	r2, [r0, #64]	; 0x40
  uint32_t flag_it = hdma->DmaBaseAddress->ISR;
 8000bb0:	6834      	ldr	r4, [r6, #0]
  uint32_t source_it = hdma->Instance->CCR;
 8000bb2:	6803      	ldr	r3, [r0, #0]
  if (((flag_it & (DMA_FLAG_HT1 << hdma->ChannelIndex)) != RESET) && ((source_it & DMA_IT_HT) != RESET))
 8000bb4:	4095      	lsls	r5, r2
 8000bb6:	4225      	tst	r5, r4
  uint32_t source_it = hdma->Instance->CCR;
 8000bb8:	6819      	ldr	r1, [r3, #0]
  if (((flag_it & (DMA_FLAG_HT1 << hdma->ChannelIndex)) != RESET) && ((source_it & DMA_IT_HT) != RESET))
 8000bba:	d032      	beq.n	8000c22 <HAL_DMA_IRQHandler+0x7a>
 8000bbc:	074d      	lsls	r5, r1, #29
 8000bbe:	d530      	bpl.n	8000c22 <HAL_DMA_IRQHandler+0x7a>
  {
    /* Disable the half transfer interrupt if the DMA mode is not CIRCULAR */
    if((hdma->Instance->CCR & DMA_CCR_CIRC) == 0U)
 8000bc0:	681a      	ldr	r2, [r3, #0]
 8000bc2:	0696      	lsls	r6, r2, #26
    {
      /* Disable the half transfer interrupt */
      __HAL_DMA_DISABLE_IT(hdma, DMA_IT_HT);
 8000bc4:	bf5e      	ittt	pl
 8000bc6:	681a      	ldrpl	r2, [r3, #0]
 8000bc8:	f022 0204 	bicpl.w	r2, r2, #4
 8000bcc:	601a      	strpl	r2, [r3, #0]
    }
    /* Clear the half transfer complete flag */
    __HAL_DMA_CLEAR_FLAG(hdma, __HAL_DMA_GET_HT_FLAG_INDEX(hdma));
 8000bce:	4a3e      	ldr	r2, [pc, #248]	; (8000cc8 <HAL_DMA_IRQHandler+0x120>)
 8000bd0:	4293      	cmp	r3, r2
 8000bd2:	d019      	beq.n	8000c08 <HAL_DMA_IRQHandler+0x60>
 8000bd4:	3214      	adds	r2, #20
 8000bd6:	4293      	cmp	r3, r2
 8000bd8:	d018      	beq.n	8000c0c <HAL_DMA_IRQHandler+0x64>
 8000bda:	3214      	adds	r2, #20
 8000bdc:	4293      	cmp	r3, r2
 8000bde:	d017      	beq.n	8000c10 <HAL_DMA_IRQHandler+0x68>
 8000be0:	3214      	adds	r2, #20
 8000be2:	4293      	cmp	r3, r2
 8000be4:	d017      	beq.n	8000c16 <HAL_DMA_IRQHandler+0x6e>
 8000be6:	3214      	adds	r2, #20
 8000be8:	4293      	cmp	r3, r2
 8000bea:	d017      	beq.n	8000c1c <HAL_DMA_IRQHandler+0x74>
 8000bec:	3214      	adds	r2, #20
 8000bee:	4293      	cmp	r3, r2
 8000bf0:	bf0c      	ite	eq
 8000bf2:	f44f 0380 	moveq.w	r3, #4194304	; 0x400000
 8000bf6:	f04f 6380 	movne.w	r3, #67108864	; 0x4000000
 8000bfa:	4a34      	ldr	r2, [pc, #208]	; (8000ccc <HAL_DMA_IRQHandler+0x124>)
 8000bfc:	6053      	str	r3, [r2, #4]

    /* DMA peripheral state is not updated in Half Transfer */
    /* but in Transfer Complete case */

    if(hdma->XferHalfCpltCallback != NULL)
 8000bfe:	6ac3      	ldr	r3, [r0, #44]	; 0x2c
    hdma->State = HAL_DMA_STATE_READY;

    /* Process Unlocked */
    __HAL_UNLOCK(hdma);

    if (hdma->XferErrorCallback != NULL)
 8000c00:	2b00      	cmp	r3, #0
 8000c02:	d05e      	beq.n	8000cc2 <HAL_DMA_IRQHandler+0x11a>
      /* Transfer error callback */
      hdma->XferErrorCallback(hdma);
    }
  }
  return;
}
 8000c04:	bc70      	pop	{r4, r5, r6}
      hdma->XferErrorCallback(hdma);
 8000c06:	4718      	bx	r3
    __HAL_DMA_CLEAR_FLAG(hdma, __HAL_DMA_GET_HT_FLAG_INDEX(hdma));
 8000c08:	2304      	movs	r3, #4
 8000c0a:	e7f6      	b.n	8000bfa <HAL_DMA_IRQHandler+0x52>
 8000c0c:	2340      	movs	r3, #64	; 0x40
 8000c0e:	e7f4      	b.n	8000bfa <HAL_DMA_IRQHandler+0x52>
 8000c10:	f44f 6380 	mov.w	r3, #1024	; 0x400
 8000c14:	e7f1      	b.n	8000bfa <HAL_DMA_IRQHandler+0x52>
 8000c16:	f44f 4380 	mov.w	r3, #16384	; 0x4000
 8000c1a:	e7ee      	b.n	8000bfa <HAL_DMA_IRQHandler+0x52>
 8000c1c:	f44f 2380 	mov.w	r3, #262144	; 0x40000
 8000c20:	e7eb      	b.n	8000bfa <HAL_DMA_IRQHandler+0x52>
  else if (((flag_it & (DMA_FLAG_TC1 << hdma->ChannelIndex)) != RESET) && ((source_it & DMA_IT_TC) != RESET))
 8000c22:	2502      	movs	r5, #2
 8000c24:	4095      	lsls	r5, r2
 8000c26:	4225      	tst	r5, r4
 8000c28:	d035      	beq.n	8000c96 <HAL_DMA_IRQHandler+0xee>
 8000c2a:	078d      	lsls	r5, r1, #30
 8000c2c:	d533      	bpl.n	8000c96 <HAL_DMA_IRQHandler+0xee>
    if((hdma->Instance->CCR & DMA_CCR_CIRC) == 0U)
 8000c2e:	681a      	ldr	r2, [r3, #0]
 8000c30:	0694      	lsls	r4, r2, #26
 8000c32:	d406      	bmi.n	8000c42 <HAL_DMA_IRQHandler+0x9a>
      __HAL_DMA_DISABLE_IT(hdma, DMA_IT_TE | DMA_IT_TC);  
 8000c34:	681a      	ldr	r2, [r3, #0]
 8000c36:	f022 020a 	bic.w	r2, r2, #10
 8000c3a:	601a      	str	r2, [r3, #0]
      hdma->State = HAL_DMA_STATE_READY;
 8000c3c:	2201      	movs	r2, #1
 8000c3e:	f880 2021 	strb.w	r2, [r0, #33]	; 0x21
      __HAL_DMA_CLEAR_FLAG(hdma, __HAL_DMA_GET_TC_FLAG_INDEX(hdma));
 8000c42:	4a21      	ldr	r2, [pc, #132]	; (8000cc8 <HAL_DMA_IRQHandler+0x120>)
 8000c44:	4293      	cmp	r3, r2
 8000c46:	d019      	beq.n	8000c7c <HAL_DMA_IRQHandler+0xd4>
 8000c48:	3214      	adds	r2, #20
 8000c4a:	4293      	cmp	r3, r2
 8000c4c:	d018      	beq.n	8000c80 <HAL_DMA_IRQHandler+0xd8>
 8000c4e:	3214      	adds	r2, #20
 8000c50:	4293      	cmp	r3, r2
 8000c52:	d017      	beq.n	8000c84 <HAL_DMA_IRQHandler+0xdc>
 8000c54:	3214      	adds	r2, #20
 8000c56:	4293      	cmp	r3, r2
 8000c58:	d017      	beq.n	8000c8a <HAL_DMA_IRQHandler+0xe2>
 8000c5a:	3214      	adds	r2, #20
 8000c5c:	4293      	cmp	r3, r2
 8000c5e:	d017      	beq.n	8000c90 <HAL_DMA_IRQHandler+0xe8>
 8000c60:	3214      	adds	r2, #20
 8000c62:	4293      	cmp	r3, r2
 8000c64:	bf0c      	ite	eq
 8000c66:	f44f 1300 	moveq.w	r3, #2097152	; 0x200000
 8000c6a:	f04f 7300 	movne.w	r3, #33554432	; 0x2000000
 8000c6e:	4a17      	ldr	r2, [pc, #92]	; (8000ccc <HAL_DMA_IRQHandler+0x124>)
 8000c70:	6053      	str	r3, [r2, #4]
    __HAL_UNLOCK(hdma);
 8000c72:	2300      	movs	r3, #0
 8000c74:	f880 3020 	strb.w	r3, [r0, #32]
    if(hdma->XferCpltCallback != NULL)
 8000c78:	6a83      	ldr	r3, [r0, #40]	; 0x28
 8000c7a:	e7c1      	b.n	8000c00 <HAL_DMA_IRQHandler+0x58>
      __HAL_DMA_CLEAR_FLAG(hdma, __HAL_DMA_GET_TC_FLAG_INDEX(hdma));
 8000c7c:	2302      	movs	r3, #2
 8000c7e:	e7f6      	b.n	8000c6e <HAL_DMA_IRQHandler+0xc6>
 8000c80:	2320      	movs	r3, #32
 8000c82:	e7f4      	b.n	8000c6e <HAL_DMA_IRQHandler+0xc6>
 8000c84:	f44f 7300 	mov.w	r3, #512	; 0x200
 8000c88:	e7f1      	b.n	8000c6e <HAL_DMA_IRQHandler+0xc6>
 8000c8a:	f44f 5300 	mov.w	r3, #8192	; 0x2000
 8000c8e:	e7ee      	b.n	8000c6e <HAL_DMA_IRQHandler+0xc6>
 8000c90:	f44f 3300 	mov.w	r3, #131072	; 0x20000
 8000c94:	e7eb      	b.n	8000c6e <HAL_DMA_IRQHandler+0xc6>
  else if (( RESET != (flag_it & (DMA_FLAG_TE1 << hdma->ChannelIndex))) && (RESET != (source_it & DMA_IT_TE)))
 8000c96:	2508      	movs	r5, #8
 8000c98:	4095      	lsls	r5, r2
 8000c9a:	4225      	tst	r5, r4
 8000c9c:	d011      	beq.n	8000cc2 <HAL_DMA_IRQHandler+0x11a>
 8000c9e:	0709      	lsls	r1, r1, #28
 8000ca0:	d50f      	bpl.n	8000cc2 <HAL_DMA_IRQHandler+0x11a>
    __HAL_DMA_DISABLE_IT(hdma, (DMA_IT_TC | DMA_IT_HT | DMA_IT_TE));
 8000ca2:	6819      	ldr	r1, [r3, #0]
 8000ca4:	f021 010e 	bic.w	r1, r1, #14
 8000ca8:	6019      	str	r1, [r3, #0]
    hdma->DmaBaseAddress->IFCR = (DMA_ISR_GIF1 << hdma->ChannelIndex);
 8000caa:	2301      	movs	r3, #1
 8000cac:	fa03 f202 	lsl.w	r2, r3, r2
 8000cb0:	6072      	str	r2, [r6, #4]
    hdma->ErrorCode = HAL_DMA_ERROR_TE;
 8000cb2:	6383      	str	r3, [r0, #56]	; 0x38
    hdma->State = HAL_DMA_STATE_READY;
 8000cb4:	f880 3021 	strb.w	r3, [r0, #33]	; 0x21
    __HAL_UNLOCK(hdma);
 8000cb8:	2300      	movs	r3, #0
 8000cba:	f880 3020 	strb.w	r3, [r0, #32]
    if (hdma->XferErrorCallback != NULL)
 8000cbe:	6b03      	ldr	r3, [r0, #48]	; 0x30
 8000cc0:	e79e      	b.n	8000c00 <HAL_DMA_IRQHandler+0x58>
}
 8000cc2:	bc70      	pop	{r4, r5, r6}
 8000cc4:	4770      	bx	lr
 8000cc6:	bf00      	nop
 8000cc8:	40020008 	.word	0x40020008
 8000ccc:	40020000 	.word	0x40020000

08000cd0 <HAL_GPIO_Init>:
  * @param  GPIO_Init: pointer to a GPIO_InitTypeDef structure that contains
  *         the configuration information for the specified GPIO peripheral.
  * @retval None
  */
void HAL_GPIO_Init(GPIO_TypeDef  *GPIOx, GPIO_InitTypeDef *GPIO_Init)
{
 8000cd0:	e92d 4ff7 	stmdb	sp!, {r0, r1, r2, r4, r5, r6, r7, r8, r9, sl, fp, lr}
  uint32_t position = 0x00u;
  uint32_t ioposition;
  uint32_t iocurrent;
  uint32_t temp;
  uint32_t config = 0x00u;
 8000cd4:	2200      	movs	r2, #0
  uint32_t position = 0x00u;
 8000cd6:	4616      	mov	r6, r2
 8000cd8:	4b64      	ldr	r3, [pc, #400]	; (8000e6c <HAL_GPIO_Init+0x19c>)
    {
      /* Check the Alternate function parameters */
      assert_param(IS_GPIO_AF_INSTANCE(GPIOx));

      /* Based on the required mode, filling config variable with MODEy[1:0] and CNFy[3:2] corresponding bits */
      switch (GPIO_Init->Mode)
 8000cda:	f8df c1a0 	ldr.w	ip, [pc, #416]	; 8000e7c <HAL_GPIO_Init+0x1ac>
 8000cde:	f8df e1a0 	ldr.w	lr, [pc, #416]	; 8000e80 <HAL_GPIO_Init+0x1b0>
  while (((GPIO_Init->Pin) >> position) != 0x00u)
 8000ce2:	680d      	ldr	r5, [r1, #0]
 8000ce4:	fa35 f406 	lsrs.w	r4, r5, r6
 8000ce8:	d102      	bne.n	8000cf0 <HAL_GPIO_Init+0x20>
      }
    }

	position++;
  }
}
 8000cea:	b003      	add	sp, #12
 8000cec:	e8bd 8ff0 	ldmia.w	sp!, {r4, r5, r6, r7, r8, r9, sl, fp, pc}
    ioposition = (0x01uL << position);
 8000cf0:	f04f 0801 	mov.w	r8, #1
 8000cf4:	fa08 f806 	lsl.w	r8, r8, r6
    iocurrent = (uint32_t)(GPIO_Init->Pin) & ioposition;
 8000cf8:	ea05 0408 	and.w	r4, r5, r8
    if (iocurrent == ioposition)
 8000cfc:	ea38 0505 	bics.w	r5, r8, r5
 8000d00:	d17c      	bne.n	8000dfc <HAL_GPIO_Init+0x12c>
      switch (GPIO_Init->Mode)
 8000d02:	684d      	ldr	r5, [r1, #4]
 8000d04:	2d03      	cmp	r5, #3
 8000d06:	d807      	bhi.n	8000d18 <HAL_GPIO_Init+0x48>
 8000d08:	3d01      	subs	r5, #1
 8000d0a:	2d02      	cmp	r5, #2
 8000d0c:	f200 8088 	bhi.w	8000e20 <HAL_GPIO_Init+0x150>
 8000d10:	e8df f005 	tbb	[pc, r5]
 8000d14:	9b96      	.short	0x9b96
 8000d16:	a1          	.byte	0xa1
 8000d17:	00          	.byte	0x00
 8000d18:	2d12      	cmp	r5, #18
 8000d1a:	f000 8099 	beq.w	8000e50 <HAL_GPIO_Init+0x180>
 8000d1e:	d86f      	bhi.n	8000e00 <HAL_GPIO_Init+0x130>
 8000d20:	2d11      	cmp	r5, #17
 8000d22:	f000 808f 	beq.w	8000e44 <HAL_GPIO_Init+0x174>
      configregister = (iocurrent < GPIO_PIN_8) ? &GPIOx->CRL     : &GPIOx->CRH;
 8000d26:	2cff      	cmp	r4, #255	; 0xff
 8000d28:	bf98      	it	ls
 8000d2a:	4682      	movls	sl, r0
      MODIFY_REG((*configregister), ((GPIO_CRL_MODE0 | GPIO_CRL_CNF0) << registeroffset), (config << registeroffset));
 8000d2c:	f04f 090f 	mov.w	r9, #15
      configregister = (iocurrent < GPIO_PIN_8) ? &GPIOx->CRL     : &GPIOx->CRH;
 8000d30:	bf88      	it	hi
 8000d32:	f100 0a04 	addhi.w	sl, r0, #4
 8000d36:	ea4f 0586 	mov.w	r5, r6, lsl #2
      MODIFY_REG((*configregister), ((GPIO_CRL_MODE0 | GPIO_CRL_CNF0) << registeroffset), (config << registeroffset));
 8000d3a:	f8da 8000 	ldr.w	r8, [sl]
      registeroffset = (iocurrent < GPIO_PIN_8) ? (position << 2u) : ((position - 8u) << 2u);
 8000d3e:	bf88      	it	hi
 8000d40:	3d20      	subhi	r5, #32
      MODIFY_REG((*configregister), ((GPIO_CRL_MODE0 | GPIO_CRL_CNF0) << registeroffset), (config << registeroffset));
 8000d42:	fa09 fb05 	lsl.w	fp, r9, r5
 8000d46:	ea28 080b 	bic.w	r8, r8, fp
 8000d4a:	fa02 f505 	lsl.w	r5, r2, r5
 8000d4e:	ea48 0505 	orr.w	r5, r8, r5
 8000d52:	f8ca 5000 	str.w	r5, [sl]
      if ((GPIO_Init->Mode & EXTI_MODE) == EXTI_MODE)
 8000d56:	f8d1 a004 	ldr.w	sl, [r1, #4]
 8000d5a:	f01a 5f80 	tst.w	sl, #268435456	; 0x10000000
 8000d5e:	d04d      	beq.n	8000dfc <HAL_GPIO_Init+0x12c>
        __HAL_RCC_AFIO_CLK_ENABLE();
 8000d60:	4f43      	ldr	r7, [pc, #268]	; (8000e70 <HAL_GPIO_Init+0x1a0>)
 8000d62:	f026 0803 	bic.w	r8, r6, #3
 8000d66:	69bd      	ldr	r5, [r7, #24]
 8000d68:	f108 4880 	add.w	r8, r8, #1073741824	; 0x40000000
 8000d6c:	f045 0501 	orr.w	r5, r5, #1
 8000d70:	61bd      	str	r5, [r7, #24]
 8000d72:	69bd      	ldr	r5, [r7, #24]
 8000d74:	f508 3880 	add.w	r8, r8, #65536	; 0x10000
 8000d78:	f005 0501 	and.w	r5, r5, #1
 8000d7c:	9501      	str	r5, [sp, #4]
        CLEAR_BIT(temp, (0x0Fu) << (4u * (position & 0x03u)));
 8000d7e:	f006 0b03 	and.w	fp, r6, #3
        __HAL_RCC_AFIO_CLK_ENABLE();
 8000d82:	9d01      	ldr	r5, [sp, #4]
        CLEAR_BIT(temp, (0x0Fu) << (4u * (position & 0x03u)));
 8000d84:	ea4f 0b8b 	mov.w	fp, fp, lsl #2
        temp = AFIO->EXTICR[position >> 2u];
 8000d88:	f8d8 5008 	ldr.w	r5, [r8, #8]
        CLEAR_BIT(temp, (0x0Fu) << (4u * (position & 0x03u)));
 8000d8c:	fa09 f90b 	lsl.w	r9, r9, fp
 8000d90:	ea25 0909 	bic.w	r9, r5, r9
        SET_BIT(temp, (GPIO_GET_INDEX(GPIOx)) << (4u * (position & 0x03u)));
 8000d94:	4d37      	ldr	r5, [pc, #220]	; (8000e74 <HAL_GPIO_Init+0x1a4>)
 8000d96:	42a8      	cmp	r0, r5
 8000d98:	d061      	beq.n	8000e5e <HAL_GPIO_Init+0x18e>
 8000d9a:	f505 6580 	add.w	r5, r5, #1024	; 0x400
 8000d9e:	42a8      	cmp	r0, r5
 8000da0:	d05f      	beq.n	8000e62 <HAL_GPIO_Init+0x192>
 8000da2:	f505 6580 	add.w	r5, r5, #1024	; 0x400
 8000da6:	42a8      	cmp	r0, r5
 8000da8:	d05d      	beq.n	8000e66 <HAL_GPIO_Init+0x196>
 8000daa:	f505 6580 	add.w	r5, r5, #1024	; 0x400
 8000dae:	42a8      	cmp	r0, r5
 8000db0:	bf0c      	ite	eq
 8000db2:	2503      	moveq	r5, #3
 8000db4:	2504      	movne	r5, #4
 8000db6:	fa05 f50b 	lsl.w	r5, r5, fp
 8000dba:	ea45 0509 	orr.w	r5, r5, r9
        AFIO->EXTICR[position >> 2u] = temp;
 8000dbe:	f8c8 5008 	str.w	r5, [r8, #8]
          SET_BIT(EXTI->RTSR, iocurrent);
 8000dc2:	689d      	ldr	r5, [r3, #8]
        if ((GPIO_Init->Mode & RISING_EDGE) == RISING_EDGE)
 8000dc4:	f41a 1f80 	tst.w	sl, #1048576	; 0x100000
          SET_BIT(EXTI->RTSR, iocurrent);
 8000dc8:	bf14      	ite	ne
 8000dca:	4325      	orrne	r5, r4
          CLEAR_BIT(EXTI->RTSR, iocurrent);
 8000dcc:	43a5      	biceq	r5, r4
 8000dce:	609d      	str	r5, [r3, #8]
          SET_BIT(EXTI->FTSR, iocurrent);
 8000dd0:	68dd      	ldr	r5, [r3, #12]
        if ((GPIO_Init->Mode & FALLING_EDGE) == FALLING_EDGE)
 8000dd2:	f41a 1f00 	tst.w	sl, #2097152	; 0x200000
          SET_BIT(EXTI->FTSR, iocurrent);
 8000dd6:	bf14      	ite	ne
 8000dd8:	4325      	orrne	r5, r4
          CLEAR_BIT(EXTI->FTSR, iocurrent);
 8000dda:	43a5      	biceq	r5, r4
 8000ddc:	60dd      	str	r5, [r3, #12]
          SET_BIT(EXTI->EMR, iocurrent);
 8000dde:	685d      	ldr	r5, [r3, #4]
        if ((GPIO_Init->Mode & GPIO_MODE_EVT) == GPIO_MODE_EVT)
 8000de0:	f41a 3f00 	tst.w	sl, #131072	; 0x20000
          SET_BIT(EXTI->EMR, iocurrent);
 8000de4:	bf14      	ite	ne
 8000de6:	4325      	orrne	r5, r4
          CLEAR_BIT(EXTI->EMR, iocurrent);
 8000de8:	43a5      	biceq	r5, r4
 8000dea:	605d      	str	r5, [r3, #4]
          SET_BIT(EXTI->IMR, iocurrent);
 8000dec:	681d      	ldr	r5, [r3, #0]
        if ((GPIO_Init->Mode & GPIO_MODE_IT) == GPIO_MODE_IT)
 8000dee:	f41a 3f80 	tst.w	sl, #65536	; 0x10000
          SET_BIT(EXTI->IMR, iocurrent);
 8000df2:	bf14      	ite	ne
 8000df4:	432c      	orrne	r4, r5
          CLEAR_BIT(EXTI->IMR, iocurrent);
 8000df6:	ea25 0404 	biceq.w	r4, r5, r4
 8000dfa:	601c      	str	r4, [r3, #0]
	position++;
 8000dfc:	3601      	adds	r6, #1
 8000dfe:	e770      	b.n	8000ce2 <HAL_GPIO_Init+0x12>
      switch (GPIO_Init->Mode)
 8000e00:	4f1d      	ldr	r7, [pc, #116]	; (8000e78 <HAL_GPIO_Init+0x1a8>)
 8000e02:	42bd      	cmp	r5, r7
 8000e04:	d00c      	beq.n	8000e20 <HAL_GPIO_Init+0x150>
 8000e06:	d817      	bhi.n	8000e38 <HAL_GPIO_Init+0x168>
 8000e08:	f8df 9078 	ldr.w	r9, [pc, #120]	; 8000e84 <HAL_GPIO_Init+0x1b4>
 8000e0c:	454d      	cmp	r5, r9
 8000e0e:	d007      	beq.n	8000e20 <HAL_GPIO_Init+0x150>
 8000e10:	f509 2970 	add.w	r9, r9, #983040	; 0xf0000
 8000e14:	454d      	cmp	r5, r9
 8000e16:	d003      	beq.n	8000e20 <HAL_GPIO_Init+0x150>
 8000e18:	f5a9 1980 	sub.w	r9, r9, #1048576	; 0x100000
 8000e1c:	454d      	cmp	r5, r9
 8000e1e:	d182      	bne.n	8000d26 <HAL_GPIO_Init+0x56>
          if (GPIO_Init->Pull == GPIO_NOPULL)
 8000e20:	688a      	ldr	r2, [r1, #8]
 8000e22:	b1d2      	cbz	r2, 8000e5a <HAL_GPIO_Init+0x18a>
          else if (GPIO_Init->Pull == GPIO_PULLUP)
 8000e24:	2a01      	cmp	r2, #1
            GPIOx->BSRR = ioposition;
 8000e26:	bf08      	it	eq
 8000e28:	f8c0 8010 	streq.w	r8, [r0, #16]
            config = GPIO_CR_MODE_INPUT + GPIO_CR_CNF_INPUT_PU_PD;
 8000e2c:	f04f 0208 	mov.w	r2, #8
            GPIOx->BRR = ioposition;
 8000e30:	bf18      	it	ne
 8000e32:	f8c0 8014 	strne.w	r8, [r0, #20]
 8000e36:	e776      	b.n	8000d26 <HAL_GPIO_Init+0x56>
      switch (GPIO_Init->Mode)
 8000e38:	4565      	cmp	r5, ip
 8000e3a:	d0f1      	beq.n	8000e20 <HAL_GPIO_Init+0x150>
 8000e3c:	4575      	cmp	r5, lr
 8000e3e:	e7ee      	b.n	8000e1e <HAL_GPIO_Init+0x14e>
          config = GPIO_Init->Speed + GPIO_CR_CNF_GP_OUTPUT_PP;
 8000e40:	68ca      	ldr	r2, [r1, #12]
          break;
 8000e42:	e770      	b.n	8000d26 <HAL_GPIO_Init+0x56>
          config = GPIO_Init->Speed + GPIO_CR_CNF_GP_OUTPUT_OD;
 8000e44:	68ca      	ldr	r2, [r1, #12]
 8000e46:	3204      	adds	r2, #4
          break;
 8000e48:	e76d      	b.n	8000d26 <HAL_GPIO_Init+0x56>
          config = GPIO_Init->Speed + GPIO_CR_CNF_AF_OUTPUT_PP;
 8000e4a:	68ca      	ldr	r2, [r1, #12]
 8000e4c:	3208      	adds	r2, #8
          break;
 8000e4e:	e76a      	b.n	8000d26 <HAL_GPIO_Init+0x56>
          config = GPIO_Init->Speed + GPIO_CR_CNF_AF_OUTPUT_OD;
 8000e50:	68ca      	ldr	r2, [r1, #12]
 8000e52:	320c      	adds	r2, #12
          break;
 8000e54:	e767      	b.n	8000d26 <HAL_GPIO_Init+0x56>
      switch (GPIO_Init->Mode)
 8000e56:	2200      	movs	r2, #0
 8000e58:	e765      	b.n	8000d26 <HAL_GPIO_Init+0x56>
            config = GPIO_CR_MODE_INPUT + GPIO_CR_CNF_INPUT_FLOATING;
 8000e5a:	2204      	movs	r2, #4
 8000e5c:	e763      	b.n	8000d26 <HAL_GPIO_Init+0x56>
        SET_BIT(temp, (GPIO_GET_INDEX(GPIOx)) << (4u * (position & 0x03u)));
 8000e5e:	2500      	movs	r5, #0
 8000e60:	e7a9      	b.n	8000db6 <HAL_GPIO_Init+0xe6>
 8000e62:	2501      	movs	r5, #1
 8000e64:	e7a7      	b.n	8000db6 <HAL_GPIO_Init+0xe6>
 8000e66:	2502      	movs	r5, #2
 8000e68:	e7a5      	b.n	8000db6 <HAL_GPIO_Init+0xe6>
 8000e6a:	bf00      	nop
 8000e6c:	40010400 	.word	0x40010400
 8000e70:	40021000 	.word	0x40021000
 8000e74:	40010800 	.word	0x40010800
 8000e78:	10220000 	.word	0x10220000
 8000e7c:	10310000 	.word	0x10310000
 8000e80:	10320000 	.word	0x10320000
 8000e84:	10120000 	.word	0x10120000

08000e88 <HAL_GPIO_DeInit>:
  * @param  GPIO_Pin: specifies the port bit to be written.
  *         This parameter can be one of GPIO_PIN_x where x can be (0..15).
  * @retval None
  */
void HAL_GPIO_DeInit(GPIO_TypeDef  *GPIOx, uint32_t GPIO_Pin)
{
 8000e88:	e92d 4ff7 	stmdb	sp!, {r0, r1, r2, r4, r5, r6, r7, r8, r9, sl, fp, lr}
       in order to address CRH or CRL register */
      configregister = (iocurrent < GPIO_PIN_8) ? &GPIOx->CRL     : &GPIOx->CRH;
      registeroffset = (iocurrent < GPIO_PIN_8) ? (position << 2u) : ((position - 8u) << 2u);

      /* CRL/CRH default value is floating input(0x04) shifted to correct position */
      MODIFY_REG(*configregister, ((GPIO_CRL_MODE0 | GPIO_CRL_CNF0) << registeroffset), GPIO_CRL_CNF0_0 << registeroffset);
 8000e8c:	f04f 0b04 	mov.w	fp, #4
  uint32_t position = 0x00u;
 8000e90:	2200      	movs	r2, #0
    iocurrent = (GPIO_Pin) & (1uL << position);
 8000e92:	f04f 0a01 	mov.w	sl, #1
      tmp &= 0x0FuL << (4u * (position & 0x03u));
 8000e96:	f04f 080f 	mov.w	r8, #15
      configregister = (iocurrent < GPIO_PIN_8) ? &GPIOx->CRL     : &GPIOx->CRH;
 8000e9a:	eb00 030b 	add.w	r3, r0, fp
 8000e9e:	9301      	str	r3, [sp, #4]
        CLEAR_BIT(EXTI->IMR, (uint32_t)iocurrent);
 8000ea0:	4b2e      	ldr	r3, [pc, #184]	; (8000f5c <HAL_GPIO_DeInit+0xd4>)
  while ((GPIO_Pin >> position) != 0u)
 8000ea2:	fa31 f402 	lsrs.w	r4, r1, r2
 8000ea6:	d102      	bne.n	8000eae <HAL_GPIO_DeInit+0x26>
      CLEAR_BIT(GPIOx->ODR, iocurrent);
    }

    position++;
  }
}
 8000ea8:	b003      	add	sp, #12
 8000eaa:	e8bd 8ff0 	ldmia.w	sp!, {r4, r5, r6, r7, r8, r9, sl, fp, pc}
    iocurrent = (GPIO_Pin) & (1uL << position);
 8000eae:	fa0a f702 	lsl.w	r7, sl, r2
    if (iocurrent)
 8000eb2:	400f      	ands	r7, r1
 8000eb4:	d049      	beq.n	8000f4a <HAL_GPIO_DeInit+0xc2>
      tmp = AFIO->EXTICR[position >> 2u];
 8000eb6:	f022 0403 	bic.w	r4, r2, #3
 8000eba:	f104 4480 	add.w	r4, r4, #1073741824	; 0x40000000
      if (tmp == (GPIO_GET_INDEX(GPIOx) << (4u * (position & 0x03u))))
 8000ebe:	4d28      	ldr	r5, [pc, #160]	; (8000f60 <HAL_GPIO_DeInit+0xd8>)
 8000ec0:	f504 3480 	add.w	r4, r4, #65536	; 0x10000
      tmp &= 0x0FuL << (4u * (position & 0x03u));
 8000ec4:	f002 0c03 	and.w	ip, r2, #3
      tmp = AFIO->EXTICR[position >> 2u];
 8000ec8:	68a6      	ldr	r6, [r4, #8]
      tmp &= 0x0FuL << (4u * (position & 0x03u));
 8000eca:	ea4f 0c8c 	mov.w	ip, ip, lsl #2
 8000ece:	fa08 f90c 	lsl.w	r9, r8, ip
      if (tmp == (GPIO_GET_INDEX(GPIOx) << (4u * (position & 0x03u))))
 8000ed2:	42a8      	cmp	r0, r5
      tmp &= 0x0FuL << (4u * (position & 0x03u));
 8000ed4:	ea09 0e06 	and.w	lr, r9, r6
      if (tmp == (GPIO_GET_INDEX(GPIOx) << (4u * (position & 0x03u))))
 8000ed8:	d039      	beq.n	8000f4e <HAL_GPIO_DeInit+0xc6>
 8000eda:	f505 6580 	add.w	r5, r5, #1024	; 0x400
 8000ede:	42a8      	cmp	r0, r5
 8000ee0:	d037      	beq.n	8000f52 <HAL_GPIO_DeInit+0xca>
 8000ee2:	f505 6580 	add.w	r5, r5, #1024	; 0x400
 8000ee6:	42a8      	cmp	r0, r5
 8000ee8:	d035      	beq.n	8000f56 <HAL_GPIO_DeInit+0xce>
 8000eea:	f505 6580 	add.w	r5, r5, #1024	; 0x400
 8000eee:	42a8      	cmp	r0, r5
 8000ef0:	bf0c      	ite	eq
 8000ef2:	2503      	moveq	r5, #3
 8000ef4:	2504      	movne	r5, #4
 8000ef6:	fa05 f50c 	lsl.w	r5, r5, ip
 8000efa:	4575      	cmp	r5, lr
 8000efc:	ea6f 0607 	mvn.w	r6, r7
 8000f00:	d10f      	bne.n	8000f22 <HAL_GPIO_DeInit+0x9a>
        CLEAR_BIT(EXTI->IMR, (uint32_t)iocurrent);
 8000f02:	681d      	ldr	r5, [r3, #0]
 8000f04:	4035      	ands	r5, r6
 8000f06:	601d      	str	r5, [r3, #0]
        CLEAR_BIT(EXTI->EMR, (uint32_t)iocurrent);
 8000f08:	685d      	ldr	r5, [r3, #4]
 8000f0a:	4035      	ands	r5, r6
 8000f0c:	605d      	str	r5, [r3, #4]
        CLEAR_BIT(EXTI->FTSR, (uint32_t)iocurrent);
 8000f0e:	68dd      	ldr	r5, [r3, #12]
 8000f10:	4035      	ands	r5, r6
 8000f12:	60dd      	str	r5, [r3, #12]
        CLEAR_BIT(EXTI->RTSR, (uint32_t)iocurrent);
 8000f14:	689d      	ldr	r5, [r3, #8]
 8000f16:	4035      	ands	r5, r6
 8000f18:	609d      	str	r5, [r3, #8]
        CLEAR_BIT(AFIO->EXTICR[position >> 2u], tmp);
 8000f1a:	68a5      	ldr	r5, [r4, #8]
 8000f1c:	ea25 0509 	bic.w	r5, r5, r9
 8000f20:	60a5      	str	r5, [r4, #8]
      configregister = (iocurrent < GPIO_PIN_8) ? &GPIOx->CRL     : &GPIOx->CRH;
 8000f22:	2fff      	cmp	r7, #255	; 0xff
 8000f24:	bf94      	ite	ls
 8000f26:	4607      	movls	r7, r0
 8000f28:	9f01      	ldrhi	r7, [sp, #4]
 8000f2a:	ea4f 0482 	mov.w	r4, r2, lsl #2
      MODIFY_REG(*configregister, ((GPIO_CRL_MODE0 | GPIO_CRL_CNF0) << registeroffset), GPIO_CRL_CNF0_0 << registeroffset);
 8000f2e:	683d      	ldr	r5, [r7, #0]
      registeroffset = (iocurrent < GPIO_PIN_8) ? (position << 2u) : ((position - 8u) << 2u);
 8000f30:	bf88      	it	hi
 8000f32:	3c20      	subhi	r4, #32
      MODIFY_REG(*configregister, ((GPIO_CRL_MODE0 | GPIO_CRL_CNF0) << registeroffset), GPIO_CRL_CNF0_0 << registeroffset);
 8000f34:	fa08 fc04 	lsl.w	ip, r8, r4
 8000f38:	ea25 050c 	bic.w	r5, r5, ip
 8000f3c:	fa0b f404 	lsl.w	r4, fp, r4
 8000f40:	4325      	orrs	r5, r4
 8000f42:	603d      	str	r5, [r7, #0]
      CLEAR_BIT(GPIOx->ODR, iocurrent);
 8000f44:	68c4      	ldr	r4, [r0, #12]
 8000f46:	4026      	ands	r6, r4
 8000f48:	60c6      	str	r6, [r0, #12]
    position++;
 8000f4a:	3201      	adds	r2, #1
 8000f4c:	e7a9      	b.n	8000ea2 <HAL_GPIO_DeInit+0x1a>
      if (tmp == (GPIO_GET_INDEX(GPIOx) << (4u * (position & 0x03u))))
 8000f4e:	2500      	movs	r5, #0
 8000f50:	e7d1      	b.n	8000ef6 <HAL_GPIO_DeInit+0x6e>
 8000f52:	2501      	movs	r5, #1
 8000f54:	e7cf      	b.n	8000ef6 <HAL_GPIO_DeInit+0x6e>
 8000f56:	2502      	movs	r5, #2
 8000f58:	e7cd      	b.n	8000ef6 <HAL_GPIO_DeInit+0x6e>
 8000f5a:	bf00      	nop
 8000f5c:	40010400 	.word	0x40010400
 8000f60:	40010800 	.word	0x40010800

08000f64 <HAL_GPIO_ReadPin>:
  GPIO_PinState bitstatus;

  /* Check the parameters */
  assert_param(IS_GPIO_PIN(GPIO_Pin));

  if ((GPIOx->IDR & GPIO_Pin) != (uint32_t)GPIO_PIN_RESET)
 8000f64:	6883      	ldr	r3, [r0, #8]
 8000f66:	4219      	tst	r1, r3
  else
  {
    bitstatus = GPIO_PIN_RESET;
  }
  return bitstatus;
}
 8000f68:	bf14      	ite	ne
 8000f6a:	2001      	movne	r0, #1
 8000f6c:	2000      	moveq	r0, #0
 8000f6e:	4770      	bx	lr

08000f70 <HAL_GPIO_WritePin>:
{
  /* Check the parameters */
  assert_param(IS_GPIO_PIN(GPIO_Pin));
  assert_param(IS_GPIO_PIN_ACTION(PinState));

  if (PinState != GPIO_PIN_RESET)
 8000f70:	b10a      	cbz	r2, 8000f76 <HAL_GPIO_WritePin+0x6>
  {
    GPIOx->BSRR = GPIO_Pin;
  }
  else
  {
    GPIOx->BSRR = (uint32_t)GPIO_Pin << 16u;
 8000f72:	6101      	str	r1, [r0, #16]
  }
}
 8000f74:	4770      	bx	lr
    GPIOx->BSRR = (uint32_t)GPIO_Pin << 16u;
 8000f76:	0409      	lsls	r1, r1, #16
 8000f78:	e7fb      	b.n	8000f72 <HAL_GPIO_WritePin+0x2>
	...

08000f7c <HAL_I2C_Init>:
  * @param  hi2c Pointer to a I2C_HandleTypeDef structure that contains
  *                the configuration information for the specified I2C.
  * @retval HAL status
  */
HAL_StatusTypeDef HAL_I2C_Init(I2C_HandleTypeDef *hi2c)
{
 8000f7c:	b570      	push	{r4, r5, r6, lr}
  uint32_t freqrange;
  uint32_t pclk1;

  /* Check the I2C handle allocation */
  if (hi2c == NULL)
 8000f7e:	4604      	mov	r4, r0
 8000f80:	b908      	cbnz	r0, 8000f86 <HAL_I2C_Init+0xa>
  {
    return HAL_ERROR;
 8000f82:	2001      	movs	r0, #1
  hi2c->State = HAL_I2C_STATE_READY;
  hi2c->PreviousState = I2C_STATE_NONE;
  hi2c->Mode = HAL_I2C_MODE_NONE;

  return HAL_OK;
}
 8000f84:	bd70      	pop	{r4, r5, r6, pc}
  if (hi2c->State == HAL_I2C_STATE_RESET)
 8000f86:	f890 303d 	ldrb.w	r3, [r0, #61]	; 0x3d
 8000f8a:	f003 02ff 	and.w	r2, r3, #255	; 0xff
 8000f8e:	b91b      	cbnz	r3, 8000f98 <HAL_I2C_Init+0x1c>
    hi2c->Lock = HAL_UNLOCKED;
 8000f90:	f880 203c 	strb.w	r2, [r0, #60]	; 0x3c
    HAL_I2C_MspInit(hi2c);
 8000f94:	f7ff fafa 	bl	800058c <HAL_I2C_MspInit>
  hi2c->State = HAL_I2C_STATE_BUSY;
 8000f98:	2324      	movs	r3, #36	; 0x24
 8000f9a:	f884 303d 	strb.w	r3, [r4, #61]	; 0x3d
  __HAL_I2C_DISABLE(hi2c);
 8000f9e:	6823      	ldr	r3, [r4, #0]
 8000fa0:	681a      	ldr	r2, [r3, #0]
 8000fa2:	f022 0201 	bic.w	r2, r2, #1
 8000fa6:	601a      	str	r2, [r3, #0]
  hi2c->Instance->CR1 |= I2C_CR1_SWRST;
 8000fa8:	681a      	ldr	r2, [r3, #0]
 8000faa:	f442 4200 	orr.w	r2, r2, #32768	; 0x8000
 8000fae:	601a      	str	r2, [r3, #0]
  hi2c->Instance->CR1 &= ~I2C_CR1_SWRST;
 8000fb0:	681a      	ldr	r2, [r3, #0]
 8000fb2:	f422 4200 	bic.w	r2, r2, #32768	; 0x8000
 8000fb6:	601a      	str	r2, [r3, #0]
  pclk1 = HAL_RCC_GetPCLK1Freq();
 8000fb8:	f000 fae6 	bl	8001588 <HAL_RCC_GetPCLK1Freq>
  if (I2C_MIN_PCLK_FREQ(pclk1, hi2c->Init.ClockSpeed) == 1U)
 8000fbc:	4a3f      	ldr	r2, [pc, #252]	; (80010bc <HAL_I2C_Init+0x140>)
 8000fbe:	6863      	ldr	r3, [r4, #4]
 8000fc0:	4293      	cmp	r3, r2
 8000fc2:	bf94      	ite	ls
 8000fc4:	4a3e      	ldrls	r2, [pc, #248]	; (80010c0 <HAL_I2C_Init+0x144>)
 8000fc6:	4a3f      	ldrhi	r2, [pc, #252]	; (80010c4 <HAL_I2C_Init+0x148>)
 8000fc8:	4290      	cmp	r0, r2
 8000fca:	bf8c      	ite	hi
 8000fcc:	2200      	movhi	r2, #0
 8000fce:	2201      	movls	r2, #1
 8000fd0:	2a00      	cmp	r2, #0
 8000fd2:	d1d6      	bne.n	8000f82 <HAL_I2C_Init+0x6>
  freqrange = I2C_FREQRANGE(pclk1);
 8000fd4:	4e3c      	ldr	r6, [pc, #240]	; (80010c8 <HAL_I2C_Init+0x14c>)
  MODIFY_REG(hi2c->Instance->CR2, I2C_CR2_FREQ, freqrange);
 8000fd6:	6822      	ldr	r2, [r4, #0]
  freqrange = I2C_FREQRANGE(pclk1);
 8000fd8:	fbb0 f6f6 	udiv	r6, r0, r6
  MODIFY_REG(hi2c->Instance->CR2, I2C_CR2_FREQ, freqrange);
 8000fdc:	6851      	ldr	r1, [r2, #4]
 8000fde:	3801      	subs	r0, #1
 8000fe0:	f021 013f 	bic.w	r1, r1, #63	; 0x3f
 8000fe4:	4331      	orrs	r1, r6
 8000fe6:	6051      	str	r1, [r2, #4]
  MODIFY_REG(hi2c->Instance->TRISE, I2C_TRISE_TRISE, I2C_RISE_TIME(freqrange, hi2c->Init.ClockSpeed));
 8000fe8:	4934      	ldr	r1, [pc, #208]	; (80010bc <HAL_I2C_Init+0x140>)
 8000fea:	6a15      	ldr	r5, [r2, #32]
 8000fec:	428b      	cmp	r3, r1
 8000fee:	bf81      	itttt	hi
 8000ff0:	f44f 7196 	movhi.w	r1, #300	; 0x12c
 8000ff4:	4371      	mulhi	r1, r6
 8000ff6:	f44f 767a 	movhi.w	r6, #1000	; 0x3e8
 8000ffa:	fbb1 f1f6 	udivhi	r1, r1, r6
 8000ffe:	f025 053f 	bic.w	r5, r5, #63	; 0x3f
 8001002:	bf94      	ite	ls
 8001004:	1c71      	addls	r1, r6, #1
 8001006:	3101      	addhi	r1, #1
 8001008:	4329      	orrs	r1, r5
 800100a:	6211      	str	r1, [r2, #32]
  MODIFY_REG(hi2c->Instance->CCR, (I2C_CCR_FS | I2C_CCR_DUTY | I2C_CCR_CCR), I2C_SPEED(pclk1, hi2c->Init.ClockSpeed, hi2c->Init.DutyCycle));
 800100c:	69d1      	ldr	r1, [r2, #28]
 800100e:	4d2b      	ldr	r5, [pc, #172]	; (80010bc <HAL_I2C_Init+0x140>)
 8001010:	f421 414f 	bic.w	r1, r1, #52992	; 0xcf00
 8001014:	42ab      	cmp	r3, r5
 8001016:	f021 01ff 	bic.w	r1, r1, #255	; 0xff
 800101a:	d832      	bhi.n	8001082 <HAL_I2C_Init+0x106>
 800101c:	005b      	lsls	r3, r3, #1
 800101e:	fbb0 f0f3 	udiv	r0, r0, r3
 8001022:	1c43      	adds	r3, r0, #1
 8001024:	f640 70fc 	movw	r0, #4092	; 0xffc
 8001028:	4203      	tst	r3, r0
 800102a:	d042      	beq.n	80010b2 <HAL_I2C_Init+0x136>
 800102c:	f3c3 030b 	ubfx	r3, r3, #0, #12
 8001030:	430b      	orrs	r3, r1
 8001032:	61d3      	str	r3, [r2, #28]
  MODIFY_REG(hi2c->Instance->CR1, (I2C_CR1_ENGC | I2C_CR1_NOSTRETCH), (hi2c->Init.GeneralCallMode | hi2c->Init.NoStretchMode));
 8001034:	6811      	ldr	r1, [r2, #0]
 8001036:	e9d4 3007 	ldrd	r3, r0, [r4, #28]
 800103a:	f021 01c0 	bic.w	r1, r1, #192	; 0xc0
 800103e:	4303      	orrs	r3, r0
 8001040:	430b      	orrs	r3, r1
 8001042:	6013      	str	r3, [r2, #0]
  MODIFY_REG(hi2c->Instance->OAR1, (I2C_OAR1_ADDMODE | I2C_OAR1_ADD8_9 | I2C_OAR1_ADD1_7 | I2C_OAR1_ADD0), (hi2c->Init.AddressingMode | hi2c->Init.OwnAddress1));
 8001044:	6891      	ldr	r1, [r2, #8]
 8001046:	e9d4 0303 	ldrd	r0, r3, [r4, #12]
 800104a:	f421 4103 	bic.w	r1, r1, #33536	; 0x8300
 800104e:	4303      	orrs	r3, r0
 8001050:	f021 01ff 	bic.w	r1, r1, #255	; 0xff
 8001054:	430b      	orrs	r3, r1
 8001056:	6093      	str	r3, [r2, #8]
  MODIFY_REG(hi2c->Instance->OAR2, (I2C_OAR2_ENDUAL | I2C_OAR2_ADD2), (hi2c->Init.DualAddressMode | hi2c->Init.OwnAddress2));
 8001058:	68d1      	ldr	r1, [r2, #12]
 800105a:	e9d4 3005 	ldrd	r3, r0, [r4, #20]
 800105e:	f021 01ff 	bic.w	r1, r1, #255	; 0xff
 8001062:	4303      	orrs	r3, r0
 8001064:	430b      	orrs	r3, r1
 8001066:	60d3      	str	r3, [r2, #12]
  __HAL_I2C_ENABLE(hi2c);
 8001068:	6813      	ldr	r3, [r2, #0]
  hi2c->ErrorCode = HAL_I2C_ERROR_NONE;
 800106a:	2000      	movs	r0, #0
  __HAL_I2C_ENABLE(hi2c);
 800106c:	f043 0301 	orr.w	r3, r3, #1
 8001070:	6013      	str	r3, [r2, #0]
  hi2c->State = HAL_I2C_STATE_READY;
 8001072:	2320      	movs	r3, #32
  hi2c->ErrorCode = HAL_I2C_ERROR_NONE;
 8001074:	6420      	str	r0, [r4, #64]	; 0x40
  hi2c->State = HAL_I2C_STATE_READY;
 8001076:	f884 303d 	strb.w	r3, [r4, #61]	; 0x3d
  hi2c->PreviousState = I2C_STATE_NONE;
 800107a:	6320      	str	r0, [r4, #48]	; 0x30
  hi2c->Mode = HAL_I2C_MODE_NONE;
 800107c:	f884 003e 	strb.w	r0, [r4, #62]	; 0x3e
  return HAL_OK;
 8001080:	e780      	b.n	8000f84 <HAL_I2C_Init+0x8>
  MODIFY_REG(hi2c->Instance->CCR, (I2C_CCR_FS | I2C_CCR_DUTY | I2C_CCR_CCR), I2C_SPEED(pclk1, hi2c->Init.ClockSpeed, hi2c->Init.DutyCycle));
 8001082:	68a5      	ldr	r5, [r4, #8]
 8001084:	b955      	cbnz	r5, 800109c <HAL_I2C_Init+0x120>
 8001086:	eb03 0343 	add.w	r3, r3, r3, lsl #1
 800108a:	fbb0 f3f3 	udiv	r3, r0, r3
 800108e:	3301      	adds	r3, #1
 8001090:	f3c3 030b 	ubfx	r3, r3, #0, #12
 8001094:	b17b      	cbz	r3, 80010b6 <HAL_I2C_Init+0x13a>
 8001096:	f443 4300 	orr.w	r3, r3, #32768	; 0x8000
 800109a:	e7c9      	b.n	8001030 <HAL_I2C_Init+0xb4>
 800109c:	2519      	movs	r5, #25
 800109e:	436b      	muls	r3, r5
 80010a0:	fbb0 f3f3 	udiv	r3, r0, r3
 80010a4:	3301      	adds	r3, #1
 80010a6:	f3c3 030b 	ubfx	r3, r3, #0, #12
 80010aa:	b123      	cbz	r3, 80010b6 <HAL_I2C_Init+0x13a>
 80010ac:	f443 4340 	orr.w	r3, r3, #49152	; 0xc000
 80010b0:	e7be      	b.n	8001030 <HAL_I2C_Init+0xb4>
 80010b2:	2304      	movs	r3, #4
 80010b4:	e7bc      	b.n	8001030 <HAL_I2C_Init+0xb4>
 80010b6:	2301      	movs	r3, #1
 80010b8:	e7ba      	b.n	8001030 <HAL_I2C_Init+0xb4>
 80010ba:	bf00      	nop
 80010bc:	000186a0 	.word	0x000186a0
 80010c0:	001e847f 	.word	0x001e847f
 80010c4:	003d08ff 	.word	0x003d08ff
 80010c8:	000f4240 	.word	0x000f4240

080010cc <HAL_RCC_OscConfig>:
  *         supported by this macro. User should request a transition to HSE Off
  *         first and then HSE On or HSE Bypass.
  * @retval HAL status
  */
HAL_StatusTypeDef HAL_RCC_OscConfig(RCC_OscInitTypeDef  *RCC_OscInitStruct)
{
 80010cc:	e92d 41f3 	stmdb	sp!, {r0, r1, r4, r5, r6, r7, r8, lr}
  uint32_t tickstart;
  uint32_t pll_config;

  /* Check Null pointer */
  if (RCC_OscInitStruct == NULL)
 80010d0:	4605      	mov	r5, r0
 80010d2:	b338      	cbz	r0, 8001124 <HAL_RCC_OscConfig+0x58>

  /* Check the parameters */
  assert_param(IS_RCC_OSCILLATORTYPE(RCC_OscInitStruct->OscillatorType));

  /*------------------------------- HSE Configuration ------------------------*/
  if (((RCC_OscInitStruct->OscillatorType) & RCC_OSCILLATORTYPE_HSE) == RCC_OSCILLATORTYPE_HSE)
 80010d4:	6803      	ldr	r3, [r0, #0]
 80010d6:	07db      	lsls	r3, r3, #31
 80010d8:	d410      	bmi.n	80010fc <HAL_RCC_OscConfig+0x30>
        }
      }
    }
  }
  /*----------------------------- HSI Configuration --------------------------*/
  if (((RCC_OscInitStruct->OscillatorType) & RCC_OSCILLATORTYPE_HSI) == RCC_OSCILLATORTYPE_HSI)
 80010da:	682b      	ldr	r3, [r5, #0]
 80010dc:	079f      	lsls	r7, r3, #30
 80010de:	d45e      	bmi.n	800119e <HAL_RCC_OscConfig+0xd2>
        }
      }
    }
  }
  /*------------------------------ LSI Configuration -------------------------*/
  if (((RCC_OscInitStruct->OscillatorType) & RCC_OSCILLATORTYPE_LSI) == RCC_OSCILLATORTYPE_LSI)
 80010e0:	682b      	ldr	r3, [r5, #0]
 80010e2:	0719      	lsls	r1, r3, #28
 80010e4:	f100 8095 	bmi.w	8001212 <HAL_RCC_OscConfig+0x146>
        }
      }
    }
  }
  /*------------------------------ LSE Configuration -------------------------*/
  if (((RCC_OscInitStruct->OscillatorType) & RCC_OSCILLATORTYPE_LSE) == RCC_OSCILLATORTYPE_LSE)
 80010e8:	682b      	ldr	r3, [r5, #0]
 80010ea:	075a      	lsls	r2, r3, #29
 80010ec:	f100 80bf 	bmi.w	800126e <HAL_RCC_OscConfig+0x1a2>

#endif /* RCC_CR_PLL2ON */
  /*-------------------------------- PLL Configuration -----------------------*/
  /* Check the parameters */
  assert_param(IS_RCC_PLL(RCC_OscInitStruct->PLL.PLLState));
  if ((RCC_OscInitStruct->PLL.PLLState) != RCC_PLL_NONE)
 80010f0:	69e8      	ldr	r0, [r5, #28]
 80010f2:	2800      	cmp	r0, #0
 80010f4:	f040 812c 	bne.w	8001350 <HAL_RCC_OscConfig+0x284>
        }
      }
    }
  }

  return HAL_OK;
 80010f8:	2000      	movs	r0, #0
 80010fa:	e029      	b.n	8001150 <HAL_RCC_OscConfig+0x84>
    if ((__HAL_RCC_GET_SYSCLK_SOURCE() == RCC_SYSCLKSOURCE_STATUS_HSE)
 80010fc:	4c8f      	ldr	r4, [pc, #572]	; (800133c <HAL_RCC_OscConfig+0x270>)
 80010fe:	6863      	ldr	r3, [r4, #4]
 8001100:	f003 030c 	and.w	r3, r3, #12
 8001104:	2b04      	cmp	r3, #4
 8001106:	d007      	beq.n	8001118 <HAL_RCC_OscConfig+0x4c>
        || ((__HAL_RCC_GET_SYSCLK_SOURCE() == RCC_SYSCLKSOURCE_STATUS_PLLCLK) && (__HAL_RCC_GET_PLL_OSCSOURCE() == RCC_PLLSOURCE_HSE)))
 8001108:	6863      	ldr	r3, [r4, #4]
 800110a:	f003 030c 	and.w	r3, r3, #12
 800110e:	2b08      	cmp	r3, #8
 8001110:	d10a      	bne.n	8001128 <HAL_RCC_OscConfig+0x5c>
 8001112:	6863      	ldr	r3, [r4, #4]
 8001114:	03de      	lsls	r6, r3, #15
 8001116:	d507      	bpl.n	8001128 <HAL_RCC_OscConfig+0x5c>
      if ((__HAL_RCC_GET_FLAG(RCC_FLAG_HSERDY) != RESET) && (RCC_OscInitStruct->HSEState == RCC_HSE_OFF))
 8001118:	6823      	ldr	r3, [r4, #0]
 800111a:	039c      	lsls	r4, r3, #14
 800111c:	d5dd      	bpl.n	80010da <HAL_RCC_OscConfig+0xe>
 800111e:	686b      	ldr	r3, [r5, #4]
 8001120:	2b00      	cmp	r3, #0
 8001122:	d1da      	bne.n	80010da <HAL_RCC_OscConfig+0xe>
          return HAL_ERROR;
 8001124:	2001      	movs	r0, #1
 8001126:	e013      	b.n	8001150 <HAL_RCC_OscConfig+0x84>
      __HAL_RCC_HSE_CONFIG(RCC_OscInitStruct->HSEState);
 8001128:	686b      	ldr	r3, [r5, #4]
 800112a:	f5b3 3f80 	cmp.w	r3, #65536	; 0x10000
 800112e:	d112      	bne.n	8001156 <HAL_RCC_OscConfig+0x8a>
 8001130:	6823      	ldr	r3, [r4, #0]
 8001132:	f443 3380 	orr.w	r3, r3, #65536	; 0x10000
 8001136:	6023      	str	r3, [r4, #0]
        tickstart = HAL_GetTick();
 8001138:	f7ff fc5a 	bl	80009f0 <HAL_GetTick>
 800113c:	4606      	mov	r6, r0
        while (__HAL_RCC_GET_FLAG(RCC_FLAG_HSERDY) == RESET)
 800113e:	6823      	ldr	r3, [r4, #0]
 8001140:	0398      	lsls	r0, r3, #14
 8001142:	d4ca      	bmi.n	80010da <HAL_RCC_OscConfig+0xe>
          if ((HAL_GetTick() - tickstart) > HSE_TIMEOUT_VALUE)
 8001144:	f7ff fc54 	bl	80009f0 <HAL_GetTick>
 8001148:	1b80      	subs	r0, r0, r6
 800114a:	2864      	cmp	r0, #100	; 0x64
 800114c:	d9f7      	bls.n	800113e <HAL_RCC_OscConfig+0x72>
            return HAL_TIMEOUT;
 800114e:	2003      	movs	r0, #3
}
 8001150:	b002      	add	sp, #8
 8001152:	e8bd 81f0 	ldmia.w	sp!, {r4, r5, r6, r7, r8, pc}
      __HAL_RCC_HSE_CONFIG(RCC_OscInitStruct->HSEState);
 8001156:	b99b      	cbnz	r3, 8001180 <HAL_RCC_OscConfig+0xb4>
 8001158:	6823      	ldr	r3, [r4, #0]
 800115a:	f423 3380 	bic.w	r3, r3, #65536	; 0x10000
 800115e:	6023      	str	r3, [r4, #0]
 8001160:	6823      	ldr	r3, [r4, #0]
 8001162:	f423 2380 	bic.w	r3, r3, #262144	; 0x40000
 8001166:	6023      	str	r3, [r4, #0]
        tickstart = HAL_GetTick();
 8001168:	f7ff fc42 	bl	80009f0 <HAL_GetTick>
 800116c:	4606      	mov	r6, r0
        while (__HAL_RCC_GET_FLAG(RCC_FLAG_HSERDY) != RESET)
 800116e:	6823      	ldr	r3, [r4, #0]
 8001170:	0399      	lsls	r1, r3, #14
 8001172:	d5b2      	bpl.n	80010da <HAL_RCC_OscConfig+0xe>
          if ((HAL_GetTick() - tickstart) > HSE_TIMEOUT_VALUE)
 8001174:	f7ff fc3c 	bl	80009f0 <HAL_GetTick>
 8001178:	1b80      	subs	r0, r0, r6
 800117a:	2864      	cmp	r0, #100	; 0x64
 800117c:	d9f7      	bls.n	800116e <HAL_RCC_OscConfig+0xa2>
 800117e:	e7e6      	b.n	800114e <HAL_RCC_OscConfig+0x82>
      __HAL_RCC_HSE_CONFIG(RCC_OscInitStruct->HSEState);
 8001180:	f5b3 2fa0 	cmp.w	r3, #327680	; 0x50000
 8001184:	6823      	ldr	r3, [r4, #0]
 8001186:	d103      	bne.n	8001190 <HAL_RCC_OscConfig+0xc4>
 8001188:	f443 2380 	orr.w	r3, r3, #262144	; 0x40000
 800118c:	6023      	str	r3, [r4, #0]
 800118e:	e7cf      	b.n	8001130 <HAL_RCC_OscConfig+0x64>
 8001190:	f423 3380 	bic.w	r3, r3, #65536	; 0x10000
 8001194:	6023      	str	r3, [r4, #0]
 8001196:	6823      	ldr	r3, [r4, #0]
 8001198:	f423 2380 	bic.w	r3, r3, #262144	; 0x40000
 800119c:	e7cb      	b.n	8001136 <HAL_RCC_OscConfig+0x6a>
    if ((__HAL_RCC_GET_SYSCLK_SOURCE() == RCC_SYSCLKSOURCE_STATUS_HSI)
 800119e:	4c67      	ldr	r4, [pc, #412]	; (800133c <HAL_RCC_OscConfig+0x270>)
 80011a0:	6863      	ldr	r3, [r4, #4]
 80011a2:	f013 0f0c 	tst.w	r3, #12
 80011a6:	d007      	beq.n	80011b8 <HAL_RCC_OscConfig+0xec>
        || ((__HAL_RCC_GET_SYSCLK_SOURCE() == RCC_SYSCLKSOURCE_STATUS_PLLCLK) && (__HAL_RCC_GET_PLL_OSCSOURCE() == RCC_PLLSOURCE_HSI_DIV2)))
 80011a8:	6863      	ldr	r3, [r4, #4]
 80011aa:	f003 030c 	and.w	r3, r3, #12
 80011ae:	2b08      	cmp	r3, #8
 80011b0:	d110      	bne.n	80011d4 <HAL_RCC_OscConfig+0x108>
 80011b2:	6863      	ldr	r3, [r4, #4]
 80011b4:	03da      	lsls	r2, r3, #15
 80011b6:	d40d      	bmi.n	80011d4 <HAL_RCC_OscConfig+0x108>
      if ((__HAL_RCC_GET_FLAG(RCC_FLAG_HSIRDY) != RESET) && (RCC_OscInitStruct->HSIState != RCC_HSI_ON))
 80011b8:	6823      	ldr	r3, [r4, #0]
 80011ba:	079b      	lsls	r3, r3, #30
 80011bc:	d502      	bpl.n	80011c4 <HAL_RCC_OscConfig+0xf8>
 80011be:	692b      	ldr	r3, [r5, #16]
 80011c0:	2b01      	cmp	r3, #1
 80011c2:	d1af      	bne.n	8001124 <HAL_RCC_OscConfig+0x58>
        __HAL_RCC_HSI_CALIBRATIONVALUE_ADJUST(RCC_OscInitStruct->HSICalibrationValue);
 80011c4:	6823      	ldr	r3, [r4, #0]
 80011c6:	696a      	ldr	r2, [r5, #20]
 80011c8:	f023 03f8 	bic.w	r3, r3, #248	; 0xf8
 80011cc:	ea43 03c2 	orr.w	r3, r3, r2, lsl #3
 80011d0:	6023      	str	r3, [r4, #0]
 80011d2:	e785      	b.n	80010e0 <HAL_RCC_OscConfig+0x14>
      if (RCC_OscInitStruct->HSIState != RCC_HSI_OFF)
 80011d4:	692a      	ldr	r2, [r5, #16]
 80011d6:	4b5a      	ldr	r3, [pc, #360]	; (8001340 <HAL_RCC_OscConfig+0x274>)
 80011d8:	b16a      	cbz	r2, 80011f6 <HAL_RCC_OscConfig+0x12a>
        __HAL_RCC_HSI_ENABLE();
 80011da:	2201      	movs	r2, #1
 80011dc:	601a      	str	r2, [r3, #0]
        tickstart = HAL_GetTick();
 80011de:	f7ff fc07 	bl	80009f0 <HAL_GetTick>
 80011e2:	4606      	mov	r6, r0
        while (__HAL_RCC_GET_FLAG(RCC_FLAG_HSIRDY) == RESET)
 80011e4:	6823      	ldr	r3, [r4, #0]
 80011e6:	079f      	lsls	r7, r3, #30
 80011e8:	d4ec      	bmi.n	80011c4 <HAL_RCC_OscConfig+0xf8>
          if ((HAL_GetTick() - tickstart) > HSI_TIMEOUT_VALUE)
 80011ea:	f7ff fc01 	bl	80009f0 <HAL_GetTick>
 80011ee:	1b80      	subs	r0, r0, r6
 80011f0:	2802      	cmp	r0, #2
 80011f2:	d9f7      	bls.n	80011e4 <HAL_RCC_OscConfig+0x118>
 80011f4:	e7ab      	b.n	800114e <HAL_RCC_OscConfig+0x82>
        __HAL_RCC_HSI_DISABLE();
 80011f6:	601a      	str	r2, [r3, #0]
        tickstart = HAL_GetTick();
 80011f8:	f7ff fbfa 	bl	80009f0 <HAL_GetTick>
 80011fc:	4606      	mov	r6, r0
        while (__HAL_RCC_GET_FLAG(RCC_FLAG_HSIRDY) != RESET)
 80011fe:	6823      	ldr	r3, [r4, #0]
 8001200:	0798      	lsls	r0, r3, #30
 8001202:	f57f af6d 	bpl.w	80010e0 <HAL_RCC_OscConfig+0x14>
          if ((HAL_GetTick() - tickstart) > HSI_TIMEOUT_VALUE)
 8001206:	f7ff fbf3 	bl	80009f0 <HAL_GetTick>
 800120a:	1b80      	subs	r0, r0, r6
 800120c:	2802      	cmp	r0, #2
 800120e:	d9f6      	bls.n	80011fe <HAL_RCC_OscConfig+0x132>
 8001210:	e79d      	b.n	800114e <HAL_RCC_OscConfig+0x82>
    if (RCC_OscInitStruct->LSIState != RCC_LSI_OFF)
 8001212:	69aa      	ldr	r2, [r5, #24]
 8001214:	4e49      	ldr	r6, [pc, #292]	; (800133c <HAL_RCC_OscConfig+0x270>)
 8001216:	4b4b      	ldr	r3, [pc, #300]	; (8001344 <HAL_RCC_OscConfig+0x278>)
 8001218:	b1da      	cbz	r2, 8001252 <HAL_RCC_OscConfig+0x186>
      __HAL_RCC_LSI_ENABLE();
 800121a:	2201      	movs	r2, #1
 800121c:	601a      	str	r2, [r3, #0]
      tickstart = HAL_GetTick();
 800121e:	f7ff fbe7 	bl	80009f0 <HAL_GetTick>
 8001222:	4604      	mov	r4, r0
      while (__HAL_RCC_GET_FLAG(RCC_FLAG_LSIRDY) == RESET)
 8001224:	6a73      	ldr	r3, [r6, #36]	; 0x24
 8001226:	079b      	lsls	r3, r3, #30
 8001228:	d50d      	bpl.n	8001246 <HAL_RCC_OscConfig+0x17a>
  * @param  mdelay: specifies the delay time length, in milliseconds.
  * @retval None
  */
static void RCC_Delay(uint32_t mdelay)
{
  __IO uint32_t Delay = mdelay * (SystemCoreClock / 8U / 1000U);
 800122a:	f44f 52fa 	mov.w	r2, #8000	; 0x1f40
 800122e:	4b46      	ldr	r3, [pc, #280]	; (8001348 <HAL_RCC_OscConfig+0x27c>)
 8001230:	681b      	ldr	r3, [r3, #0]
 8001232:	fbb3 f3f2 	udiv	r3, r3, r2
 8001236:	9301      	str	r3, [sp, #4]
  do
  {
    __NOP();
 8001238:	bf00      	nop
  }
  while (Delay --);
 800123a:	9b01      	ldr	r3, [sp, #4]
 800123c:	1e5a      	subs	r2, r3, #1
 800123e:	9201      	str	r2, [sp, #4]
 8001240:	2b00      	cmp	r3, #0
 8001242:	d1f9      	bne.n	8001238 <HAL_RCC_OscConfig+0x16c>
 8001244:	e750      	b.n	80010e8 <HAL_RCC_OscConfig+0x1c>
        if ((HAL_GetTick() - tickstart) > LSI_TIMEOUT_VALUE)
 8001246:	f7ff fbd3 	bl	80009f0 <HAL_GetTick>
 800124a:	1b00      	subs	r0, r0, r4
 800124c:	2802      	cmp	r0, #2
 800124e:	d9e9      	bls.n	8001224 <HAL_RCC_OscConfig+0x158>
 8001250:	e77d      	b.n	800114e <HAL_RCC_OscConfig+0x82>
      __HAL_RCC_LSI_DISABLE();
 8001252:	601a      	str	r2, [r3, #0]
      tickstart = HAL_GetTick();
 8001254:	f7ff fbcc 	bl	80009f0 <HAL_GetTick>
 8001258:	4604      	mov	r4, r0
      while (__HAL_RCC_GET_FLAG(RCC_FLAG_LSIRDY) != RESET)
 800125a:	6a73      	ldr	r3, [r6, #36]	; 0x24
 800125c:	079f      	lsls	r7, r3, #30
 800125e:	f57f af43 	bpl.w	80010e8 <HAL_RCC_OscConfig+0x1c>
        if ((HAL_GetTick() - tickstart) > LSI_TIMEOUT_VALUE)
 8001262:	f7ff fbc5 	bl	80009f0 <HAL_GetTick>
 8001266:	1b00      	subs	r0, r0, r4
 8001268:	2802      	cmp	r0, #2
 800126a:	d9f6      	bls.n	800125a <HAL_RCC_OscConfig+0x18e>
 800126c:	e76f      	b.n	800114e <HAL_RCC_OscConfig+0x82>
    if (__HAL_RCC_PWR_IS_CLK_DISABLED())
 800126e:	4c33      	ldr	r4, [pc, #204]	; (800133c <HAL_RCC_OscConfig+0x270>)
 8001270:	69e3      	ldr	r3, [r4, #28]
 8001272:	00d8      	lsls	r0, r3, #3
 8001274:	d424      	bmi.n	80012c0 <HAL_RCC_OscConfig+0x1f4>
      pwrclkchanged = SET;
 8001276:	2701      	movs	r7, #1
      __HAL_RCC_PWR_CLK_ENABLE();
 8001278:	69e3      	ldr	r3, [r4, #28]
 800127a:	f043 5380 	orr.w	r3, r3, #268435456	; 0x10000000
 800127e:	61e3      	str	r3, [r4, #28]
 8001280:	69e3      	ldr	r3, [r4, #28]
 8001282:	f003 5380 	and.w	r3, r3, #268435456	; 0x10000000
 8001286:	9300      	str	r3, [sp, #0]
 8001288:	9b00      	ldr	r3, [sp, #0]
    if (HAL_IS_BIT_CLR(PWR->CR, PWR_CR_DBP))
 800128a:	4e30      	ldr	r6, [pc, #192]	; (800134c <HAL_RCC_OscConfig+0x280>)
 800128c:	6833      	ldr	r3, [r6, #0]
 800128e:	05d9      	lsls	r1, r3, #23
 8001290:	d518      	bpl.n	80012c4 <HAL_RCC_OscConfig+0x1f8>
    __HAL_RCC_LSE_CONFIG(RCC_OscInitStruct->LSEState);
 8001292:	68eb      	ldr	r3, [r5, #12]
 8001294:	2b01      	cmp	r3, #1
 8001296:	d126      	bne.n	80012e6 <HAL_RCC_OscConfig+0x21a>
 8001298:	6a23      	ldr	r3, [r4, #32]
 800129a:	f043 0301 	orr.w	r3, r3, #1
 800129e:	6223      	str	r3, [r4, #32]
      tickstart = HAL_GetTick();
 80012a0:	f7ff fba6 	bl	80009f0 <HAL_GetTick>
        if ((HAL_GetTick() - tickstart) > RCC_LSE_TIMEOUT_VALUE)
 80012a4:	f241 3888 	movw	r8, #5000	; 0x1388
      tickstart = HAL_GetTick();
 80012a8:	4606      	mov	r6, r0
      while (__HAL_RCC_GET_FLAG(RCC_FLAG_LSERDY) == RESET)
 80012aa:	6a23      	ldr	r3, [r4, #32]
 80012ac:	079b      	lsls	r3, r3, #30
 80012ae:	d53f      	bpl.n	8001330 <HAL_RCC_OscConfig+0x264>
    if (pwrclkchanged == SET)
 80012b0:	2f00      	cmp	r7, #0
 80012b2:	f43f af1d 	beq.w	80010f0 <HAL_RCC_OscConfig+0x24>
      __HAL_RCC_PWR_CLK_DISABLE();
 80012b6:	69e3      	ldr	r3, [r4, #28]
 80012b8:	f023 5380 	bic.w	r3, r3, #268435456	; 0x10000000
 80012bc:	61e3      	str	r3, [r4, #28]
 80012be:	e717      	b.n	80010f0 <HAL_RCC_OscConfig+0x24>
    FlagStatus       pwrclkchanged = RESET;
 80012c0:	2700      	movs	r7, #0
 80012c2:	e7e2      	b.n	800128a <HAL_RCC_OscConfig+0x1be>
      SET_BIT(PWR->CR, PWR_CR_DBP);
 80012c4:	6833      	ldr	r3, [r6, #0]
 80012c6:	f443 7380 	orr.w	r3, r3, #256	; 0x100
 80012ca:	6033      	str	r3, [r6, #0]
      tickstart = HAL_GetTick();
 80012cc:	f7ff fb90 	bl	80009f0 <HAL_GetTick>
 80012d0:	4680      	mov	r8, r0
      while (HAL_IS_BIT_CLR(PWR->CR, PWR_CR_DBP))
 80012d2:	6833      	ldr	r3, [r6, #0]
 80012d4:	05da      	lsls	r2, r3, #23
 80012d6:	d4dc      	bmi.n	8001292 <HAL_RCC_OscConfig+0x1c6>
        if ((HAL_GetTick() - tickstart) > RCC_DBP_TIMEOUT_VALUE)
 80012d8:	f7ff fb8a 	bl	80009f0 <HAL_GetTick>
 80012dc:	eba0 0008 	sub.w	r0, r0, r8
 80012e0:	2864      	cmp	r0, #100	; 0x64
 80012e2:	d9f6      	bls.n	80012d2 <HAL_RCC_OscConfig+0x206>
 80012e4:	e733      	b.n	800114e <HAL_RCC_OscConfig+0x82>
    __HAL_RCC_LSE_CONFIG(RCC_OscInitStruct->LSEState);
 80012e6:	b9ab      	cbnz	r3, 8001314 <HAL_RCC_OscConfig+0x248>
 80012e8:	6a23      	ldr	r3, [r4, #32]
        if ((HAL_GetTick() - tickstart) > RCC_LSE_TIMEOUT_VALUE)
 80012ea:	f241 3888 	movw	r8, #5000	; 0x1388
    __HAL_RCC_LSE_CONFIG(RCC_OscInitStruct->LSEState);
 80012ee:	f023 0301 	bic.w	r3, r3, #1
 80012f2:	6223      	str	r3, [r4, #32]
 80012f4:	6a23      	ldr	r3, [r4, #32]
 80012f6:	f023 0304 	bic.w	r3, r3, #4
 80012fa:	6223      	str	r3, [r4, #32]
      tickstart = HAL_GetTick();
 80012fc:	f7ff fb78 	bl	80009f0 <HAL_GetTick>
 8001300:	4606      	mov	r6, r0
      while (__HAL_RCC_GET_FLAG(RCC_FLAG_LSERDY) != RESET)
 8001302:	6a23      	ldr	r3, [r4, #32]
 8001304:	0798      	lsls	r0, r3, #30
 8001306:	d5d3      	bpl.n	80012b0 <HAL_RCC_OscConfig+0x1e4>
        if ((HAL_GetTick() - tickstart) > RCC_LSE_TIMEOUT_VALUE)
 8001308:	f7ff fb72 	bl	80009f0 <HAL_GetTick>
 800130c:	1b80      	subs	r0, r0, r6
 800130e:	4540      	cmp	r0, r8
 8001310:	d9f7      	bls.n	8001302 <HAL_RCC_OscConfig+0x236>
 8001312:	e71c      	b.n	800114e <HAL_RCC_OscConfig+0x82>
    __HAL_RCC_LSE_CONFIG(RCC_OscInitStruct->LSEState);
 8001314:	2b05      	cmp	r3, #5
 8001316:	6a23      	ldr	r3, [r4, #32]
 8001318:	d103      	bne.n	8001322 <HAL_RCC_OscConfig+0x256>
 800131a:	f043 0304 	orr.w	r3, r3, #4
 800131e:	6223      	str	r3, [r4, #32]
 8001320:	e7ba      	b.n	8001298 <HAL_RCC_OscConfig+0x1cc>
 8001322:	f023 0301 	bic.w	r3, r3, #1
 8001326:	6223      	str	r3, [r4, #32]
 8001328:	6a23      	ldr	r3, [r4, #32]
 800132a:	f023 0304 	bic.w	r3, r3, #4
 800132e:	e7b6      	b.n	800129e <HAL_RCC_OscConfig+0x1d2>
        if ((HAL_GetTick() - tickstart) > RCC_LSE_TIMEOUT_VALUE)
 8001330:	f7ff fb5e 	bl	80009f0 <HAL_GetTick>
 8001334:	1b80      	subs	r0, r0, r6
 8001336:	4540      	cmp	r0, r8
 8001338:	d9b7      	bls.n	80012aa <HAL_RCC_OscConfig+0x1de>
 800133a:	e708      	b.n	800114e <HAL_RCC_OscConfig+0x82>
 800133c:	40021000 	.word	0x40021000
 8001340:	42420000 	.word	0x42420000
 8001344:	42420480 	.word	0x42420480
 8001348:	20000008 	.word	0x20000008
 800134c:	40007000 	.word	0x40007000
    if (__HAL_RCC_GET_SYSCLK_SOURCE() != RCC_SYSCLKSOURCE_STATUS_PLLCLK)
 8001350:	4b2a      	ldr	r3, [pc, #168]	; (80013fc <HAL_RCC_OscConfig+0x330>)
 8001352:	685a      	ldr	r2, [r3, #4]
 8001354:	461c      	mov	r4, r3
 8001356:	f002 020c 	and.w	r2, r2, #12
 800135a:	2a08      	cmp	r2, #8
 800135c:	d03d      	beq.n	80013da <HAL_RCC_OscConfig+0x30e>
      if ((RCC_OscInitStruct->PLL.PLLState) == RCC_PLL_ON)
 800135e:	2300      	movs	r3, #0
 8001360:	4e27      	ldr	r6, [pc, #156]	; (8001400 <HAL_RCC_OscConfig+0x334>)
 8001362:	2802      	cmp	r0, #2
        __HAL_RCC_PLL_DISABLE();
 8001364:	6033      	str	r3, [r6, #0]
      if ((RCC_OscInitStruct->PLL.PLLState) == RCC_PLL_ON)
 8001366:	d12b      	bne.n	80013c0 <HAL_RCC_OscConfig+0x2f4>
        tickstart = HAL_GetTick();
 8001368:	f7ff fb42 	bl	80009f0 <HAL_GetTick>
 800136c:	4607      	mov	r7, r0
        while (__HAL_RCC_GET_FLAG(RCC_FLAG_PLLRDY)  != RESET)
 800136e:	6823      	ldr	r3, [r4, #0]
 8001370:	0199      	lsls	r1, r3, #6
 8001372:	d41f      	bmi.n	80013b4 <HAL_RCC_OscConfig+0x2e8>
        if (RCC_OscInitStruct->PLL.PLLSource == RCC_PLLSOURCE_HSE)
 8001374:	6a2b      	ldr	r3, [r5, #32]
 8001376:	f5b3 3f80 	cmp.w	r3, #65536	; 0x10000
 800137a:	d105      	bne.n	8001388 <HAL_RCC_OscConfig+0x2bc>
          __HAL_RCC_HSE_PREDIV_CONFIG(RCC_OscInitStruct->HSEPredivValue);
 800137c:	6862      	ldr	r2, [r4, #4]
 800137e:	68a9      	ldr	r1, [r5, #8]
 8001380:	f422 3200 	bic.w	r2, r2, #131072	; 0x20000
 8001384:	430a      	orrs	r2, r1
 8001386:	6062      	str	r2, [r4, #4]
        __HAL_RCC_PLL_CONFIG(RCC_OscInitStruct->PLL.PLLSource,
 8001388:	6a69      	ldr	r1, [r5, #36]	; 0x24
 800138a:	6862      	ldr	r2, [r4, #4]
 800138c:	430b      	orrs	r3, r1
 800138e:	f422 1274 	bic.w	r2, r2, #3997696	; 0x3d0000
 8001392:	4313      	orrs	r3, r2
 8001394:	6063      	str	r3, [r4, #4]
        __HAL_RCC_PLL_ENABLE();
 8001396:	2301      	movs	r3, #1
 8001398:	6033      	str	r3, [r6, #0]
        tickstart = HAL_GetTick();
 800139a:	f7ff fb29 	bl	80009f0 <HAL_GetTick>
 800139e:	4605      	mov	r5, r0
        while (__HAL_RCC_GET_FLAG(RCC_FLAG_PLLRDY)  == RESET)
 80013a0:	6823      	ldr	r3, [r4, #0]
 80013a2:	019a      	lsls	r2, r3, #6
 80013a4:	f53f aea8 	bmi.w	80010f8 <HAL_RCC_OscConfig+0x2c>
          if ((HAL_GetTick() - tickstart) > PLL_TIMEOUT_VALUE)
 80013a8:	f7ff fb22 	bl	80009f0 <HAL_GetTick>
 80013ac:	1b40      	subs	r0, r0, r5
 80013ae:	2802      	cmp	r0, #2
 80013b0:	d9f6      	bls.n	80013a0 <HAL_RCC_OscConfig+0x2d4>
 80013b2:	e6cc      	b.n	800114e <HAL_RCC_OscConfig+0x82>
          if ((HAL_GetTick() - tickstart) > PLL_TIMEOUT_VALUE)
 80013b4:	f7ff fb1c 	bl	80009f0 <HAL_GetTick>
 80013b8:	1bc0      	subs	r0, r0, r7
 80013ba:	2802      	cmp	r0, #2
 80013bc:	d9d7      	bls.n	800136e <HAL_RCC_OscConfig+0x2a2>
 80013be:	e6c6      	b.n	800114e <HAL_RCC_OscConfig+0x82>
        tickstart = HAL_GetTick();
 80013c0:	f7ff fb16 	bl	80009f0 <HAL_GetTick>
 80013c4:	4605      	mov	r5, r0
        while (__HAL_RCC_GET_FLAG(RCC_FLAG_PLLRDY)  != RESET)
 80013c6:	6823      	ldr	r3, [r4, #0]
 80013c8:	019b      	lsls	r3, r3, #6
 80013ca:	f57f ae95 	bpl.w	80010f8 <HAL_RCC_OscConfig+0x2c>
          if ((HAL_GetTick() - tickstart) > PLL_TIMEOUT_VALUE)
 80013ce:	f7ff fb0f 	bl	80009f0 <HAL_GetTick>
 80013d2:	1b40      	subs	r0, r0, r5
 80013d4:	2802      	cmp	r0, #2
 80013d6:	d9f6      	bls.n	80013c6 <HAL_RCC_OscConfig+0x2fa>
 80013d8:	e6b9      	b.n	800114e <HAL_RCC_OscConfig+0x82>
      if ((RCC_OscInitStruct->PLL.PLLState) == RCC_PLL_OFF)
 80013da:	2801      	cmp	r0, #1
 80013dc:	f43f aeb8 	beq.w	8001150 <HAL_RCC_OscConfig+0x84>
        pll_config = RCC->CFGR;
 80013e0:	685b      	ldr	r3, [r3, #4]
        if ((READ_BIT(pll_config, RCC_CFGR_PLLSRC) != RCC_OscInitStruct->PLL.PLLSource) ||
 80013e2:	6a2a      	ldr	r2, [r5, #32]
 80013e4:	f403 3180 	and.w	r1, r3, #65536	; 0x10000
 80013e8:	4291      	cmp	r1, r2
 80013ea:	f47f ae9b 	bne.w	8001124 <HAL_RCC_OscConfig+0x58>
 80013ee:	6a6a      	ldr	r2, [r5, #36]	; 0x24
            (READ_BIT(pll_config, RCC_CFGR_PLLMULL) != RCC_OscInitStruct->PLL.PLLMUL))
 80013f0:	f403 1370 	and.w	r3, r3, #3932160	; 0x3c0000
        if ((READ_BIT(pll_config, RCC_CFGR_PLLSRC) != RCC_OscInitStruct->PLL.PLLSource) ||
 80013f4:	4293      	cmp	r3, r2
 80013f6:	f43f ae7f 	beq.w	80010f8 <HAL_RCC_OscConfig+0x2c>
 80013fa:	e693      	b.n	8001124 <HAL_RCC_OscConfig+0x58>
 80013fc:	40021000 	.word	0x40021000
 8001400:	42420060 	.word	0x42420060

08001404 <HAL_RCC_GetSysClockFreq>:
  tmpreg = RCC->CFGR;
 8001404:	490d      	ldr	r1, [pc, #52]	; (800143c <HAL_RCC_GetSysClockFreq+0x38>)
 8001406:	684b      	ldr	r3, [r1, #4]
  switch (tmpreg & RCC_CFGR_SWS)
 8001408:	f003 020c 	and.w	r2, r3, #12
 800140c:	2a08      	cmp	r2, #8
 800140e:	d112      	bne.n	8001436 <HAL_RCC_GetSysClockFreq+0x32>
      pllmul = aPLLMULFactorTable[(uint32_t)(tmpreg & RCC_CFGR_PLLMULL) >> RCC_CFGR_PLLMULL_Pos];
 8001410:	480b      	ldr	r0, [pc, #44]	; (8001440 <HAL_RCC_GetSysClockFreq+0x3c>)
 8001412:	f3c3 4283 	ubfx	r2, r3, #18, #4
      if ((tmpreg & RCC_CFGR_PLLSRC) != RCC_PLLSOURCE_HSI_DIV2)
 8001416:	03db      	lsls	r3, r3, #15
      pllmul = aPLLMULFactorTable[(uint32_t)(tmpreg & RCC_CFGR_PLLMULL) >> RCC_CFGR_PLLMULL_Pos];
 8001418:	5c82      	ldrb	r2, [r0, r2]
      if ((tmpreg & RCC_CFGR_PLLSRC) != RCC_PLLSOURCE_HSI_DIV2)
 800141a:	d509      	bpl.n	8001430 <HAL_RCC_GetSysClockFreq+0x2c>
        pllclk = (uint32_t)((HSE_VALUE  * pllmul) / prediv);
 800141c:	4809      	ldr	r0, [pc, #36]	; (8001444 <HAL_RCC_GetSysClockFreq+0x40>)
        prediv = aPredivFactorTable[(uint32_t)(RCC->CFGR & RCC_CFGR_PLLXTPRE) >> RCC_CFGR_PLLXTPRE_Pos];
 800141e:	684b      	ldr	r3, [r1, #4]
        pllclk = (uint32_t)((HSE_VALUE  * pllmul) / prediv);
 8001420:	4350      	muls	r0, r2
        prediv = aPredivFactorTable[(uint32_t)(RCC->CFGR & RCC_CFGR_PLLXTPRE) >> RCC_CFGR_PLLXTPRE_Pos];
 8001422:	4a09      	ldr	r2, [pc, #36]	; (8001448 <HAL_RCC_GetSysClockFreq+0x44>)
 8001424:	f3c3 4340 	ubfx	r3, r3, #17, #1
 8001428:	5cd3      	ldrb	r3, [r2, r3]
        pllclk = (uint32_t)((HSE_VALUE  * pllmul) / prediv);
 800142a:	fbb0 f0f3 	udiv	r0, r0, r3
 800142e:	4770      	bx	lr
        pllclk = (uint32_t)((HSI_VALUE >> 1) * pllmul);
 8001430:	4806      	ldr	r0, [pc, #24]	; (800144c <HAL_RCC_GetSysClockFreq+0x48>)
 8001432:	4350      	muls	r0, r2
 8001434:	4770      	bx	lr
      sysclockfreq = HSE_VALUE;
 8001436:	4803      	ldr	r0, [pc, #12]	; (8001444 <HAL_RCC_GetSysClockFreq+0x40>)
}
 8001438:	4770      	bx	lr
 800143a:	bf00      	nop
 800143c:	40021000 	.word	0x40021000
 8001440:	080057d8 	.word	0x080057d8
 8001444:	007a1200 	.word	0x007a1200
 8001448:	080057e8 	.word	0x080057e8
 800144c:	003d0900 	.word	0x003d0900

08001450 <HAL_RCC_ClockConfig>:
{
 8001450:	e92d 41f0 	stmdb	sp!, {r4, r5, r6, r7, r8, lr}
 8001454:	460d      	mov	r5, r1
  if (RCC_ClkInitStruct == NULL)
 8001456:	4604      	mov	r4, r0
 8001458:	b910      	cbnz	r0, 8001460 <HAL_RCC_ClockConfig+0x10>
    return HAL_ERROR;
 800145a:	2001      	movs	r0, #1
}
 800145c:	e8bd 81f0 	ldmia.w	sp!, {r4, r5, r6, r7, r8, pc}
  if (FLatency > __HAL_FLASH_GET_LATENCY())
 8001460:	4a44      	ldr	r2, [pc, #272]	; (8001574 <HAL_RCC_ClockConfig+0x124>)
 8001462:	6813      	ldr	r3, [r2, #0]
 8001464:	f003 0307 	and.w	r3, r3, #7
 8001468:	428b      	cmp	r3, r1
 800146a:	d328      	bcc.n	80014be <HAL_RCC_ClockConfig+0x6e>
if (((RCC_ClkInitStruct->ClockType) & RCC_CLOCKTYPE_HCLK) == RCC_CLOCKTYPE_HCLK)
 800146c:	6821      	ldr	r1, [r4, #0]
 800146e:	078e      	lsls	r6, r1, #30
 8001470:	d430      	bmi.n	80014d4 <HAL_RCC_ClockConfig+0x84>
  if (((RCC_ClkInitStruct->ClockType) & RCC_CLOCKTYPE_SYSCLK) == RCC_CLOCKTYPE_SYSCLK)
 8001472:	07ca      	lsls	r2, r1, #31
 8001474:	d443      	bmi.n	80014fe <HAL_RCC_ClockConfig+0xae>
  if (FLatency < __HAL_FLASH_GET_LATENCY())
 8001476:	4a3f      	ldr	r2, [pc, #252]	; (8001574 <HAL_RCC_ClockConfig+0x124>)
 8001478:	6813      	ldr	r3, [r2, #0]
 800147a:	f003 0307 	and.w	r3, r3, #7
 800147e:	42ab      	cmp	r3, r5
 8001480:	d865      	bhi.n	800154e <HAL_RCC_ClockConfig+0xfe>
if (((RCC_ClkInitStruct->ClockType) & RCC_CLOCKTYPE_PCLK1) == RCC_CLOCKTYPE_PCLK1)
 8001482:	6822      	ldr	r2, [r4, #0]
 8001484:	4d3c      	ldr	r5, [pc, #240]	; (8001578 <HAL_RCC_ClockConfig+0x128>)
 8001486:	f012 0f04 	tst.w	r2, #4
 800148a:	d16c      	bne.n	8001566 <HAL_RCC_ClockConfig+0x116>
  if (((RCC_ClkInitStruct->ClockType) & RCC_CLOCKTYPE_PCLK2) == RCC_CLOCKTYPE_PCLK2)
 800148c:	0713      	lsls	r3, r2, #28
 800148e:	d506      	bpl.n	800149e <HAL_RCC_ClockConfig+0x4e>
    MODIFY_REG(RCC->CFGR, RCC_CFGR_PPRE2, ((RCC_ClkInitStruct->APB2CLKDivider) << 3));
 8001490:	686b      	ldr	r3, [r5, #4]
 8001492:	6922      	ldr	r2, [r4, #16]
 8001494:	f423 5360 	bic.w	r3, r3, #14336	; 0x3800
 8001498:	ea43 03c2 	orr.w	r3, r3, r2, lsl #3
 800149c:	606b      	str	r3, [r5, #4]
  SystemCoreClock = HAL_RCC_GetSysClockFreq() >> AHBPrescTable[(RCC->CFGR & RCC_CFGR_HPRE) >> RCC_CFGR_HPRE_Pos];
 800149e:	f7ff ffb1 	bl	8001404 <HAL_RCC_GetSysClockFreq>
 80014a2:	686b      	ldr	r3, [r5, #4]
 80014a4:	4a35      	ldr	r2, [pc, #212]	; (800157c <HAL_RCC_ClockConfig+0x12c>)
 80014a6:	f3c3 1303 	ubfx	r3, r3, #4, #4
 80014aa:	5cd3      	ldrb	r3, [r2, r3]
 80014ac:	40d8      	lsrs	r0, r3
 80014ae:	4b34      	ldr	r3, [pc, #208]	; (8001580 <HAL_RCC_ClockConfig+0x130>)
 80014b0:	6018      	str	r0, [r3, #0]
  HAL_InitTick(uwTickPrio);
 80014b2:	4b34      	ldr	r3, [pc, #208]	; (8001584 <HAL_RCC_ClockConfig+0x134>)
 80014b4:	6818      	ldr	r0, [r3, #0]
 80014b6:	f7ff fa59 	bl	800096c <HAL_InitTick>
  return HAL_OK;
 80014ba:	2000      	movs	r0, #0
 80014bc:	e7ce      	b.n	800145c <HAL_RCC_ClockConfig+0xc>
    __HAL_FLASH_SET_LATENCY(FLatency);
 80014be:	6813      	ldr	r3, [r2, #0]
 80014c0:	f023 0307 	bic.w	r3, r3, #7
 80014c4:	430b      	orrs	r3, r1
 80014c6:	6013      	str	r3, [r2, #0]
    if (__HAL_FLASH_GET_LATENCY() != FLatency)
 80014c8:	6813      	ldr	r3, [r2, #0]
 80014ca:	f003 0307 	and.w	r3, r3, #7
 80014ce:	428b      	cmp	r3, r1
 80014d0:	d1c3      	bne.n	800145a <HAL_RCC_ClockConfig+0xa>
 80014d2:	e7cb      	b.n	800146c <HAL_RCC_ClockConfig+0x1c>
    if (((RCC_ClkInitStruct->ClockType) & RCC_CLOCKTYPE_PCLK1) == RCC_CLOCKTYPE_PCLK1)
 80014d4:	4b28      	ldr	r3, [pc, #160]	; (8001578 <HAL_RCC_ClockConfig+0x128>)
 80014d6:	f011 0f04 	tst.w	r1, #4
      MODIFY_REG(RCC->CFGR, RCC_CFGR_PPRE1, RCC_HCLK_DIV16);
 80014da:	bf1e      	ittt	ne
 80014dc:	685a      	ldrne	r2, [r3, #4]
 80014de:	f442 62e0 	orrne.w	r2, r2, #1792	; 0x700
 80014e2:	605a      	strne	r2, [r3, #4]
    if (((RCC_ClkInitStruct->ClockType) & RCC_CLOCKTYPE_PCLK2) == RCC_CLOCKTYPE_PCLK2)
 80014e4:	0708      	lsls	r0, r1, #28
      MODIFY_REG(RCC->CFGR, RCC_CFGR_PPRE2, (RCC_HCLK_DIV16 << 3));
 80014e6:	bf42      	ittt	mi
 80014e8:	685a      	ldrmi	r2, [r3, #4]
 80014ea:	f442 5260 	orrmi.w	r2, r2, #14336	; 0x3800
 80014ee:	605a      	strmi	r2, [r3, #4]
    MODIFY_REG(RCC->CFGR, RCC_CFGR_HPRE, RCC_ClkInitStruct->AHBCLKDivider);
 80014f0:	685a      	ldr	r2, [r3, #4]
 80014f2:	68a0      	ldr	r0, [r4, #8]
 80014f4:	f022 02f0 	bic.w	r2, r2, #240	; 0xf0
 80014f8:	4302      	orrs	r2, r0
 80014fa:	605a      	str	r2, [r3, #4]
 80014fc:	e7b9      	b.n	8001472 <HAL_RCC_ClockConfig+0x22>
    if (RCC_ClkInitStruct->SYSCLKSource == RCC_SYSCLKSOURCE_HSE)
 80014fe:	6862      	ldr	r2, [r4, #4]
 8001500:	4e1d      	ldr	r6, [pc, #116]	; (8001578 <HAL_RCC_ClockConfig+0x128>)
 8001502:	2a01      	cmp	r2, #1
      if (__HAL_RCC_GET_FLAG(RCC_FLAG_HSERDY) == RESET)
 8001504:	6833      	ldr	r3, [r6, #0]
    if (RCC_ClkInitStruct->SYSCLKSource == RCC_SYSCLKSOURCE_HSE)
 8001506:	d11a      	bne.n	800153e <HAL_RCC_ClockConfig+0xee>
      if (__HAL_RCC_GET_FLAG(RCC_FLAG_HSERDY) == RESET)
 8001508:	f413 3f00 	tst.w	r3, #131072	; 0x20000
      if (__HAL_RCC_GET_FLAG(RCC_FLAG_HSIRDY) == RESET)
 800150c:	d0a5      	beq.n	800145a <HAL_RCC_ClockConfig+0xa>
    __HAL_RCC_SYSCLK_CONFIG(RCC_ClkInitStruct->SYSCLKSource);
 800150e:	6873      	ldr	r3, [r6, #4]
      if ((HAL_GetTick() - tickstart) > CLOCKSWITCH_TIMEOUT_VALUE)
 8001510:	f241 3888 	movw	r8, #5000	; 0x1388
    __HAL_RCC_SYSCLK_CONFIG(RCC_ClkInitStruct->SYSCLKSource);
 8001514:	f023 0303 	bic.w	r3, r3, #3
 8001518:	4313      	orrs	r3, r2
 800151a:	6073      	str	r3, [r6, #4]
    tickstart = HAL_GetTick();
 800151c:	f7ff fa68 	bl	80009f0 <HAL_GetTick>
 8001520:	4607      	mov	r7, r0
    while (__HAL_RCC_GET_SYSCLK_SOURCE() != (RCC_ClkInitStruct->SYSCLKSource << RCC_CFGR_SWS_Pos))
 8001522:	6873      	ldr	r3, [r6, #4]
 8001524:	6862      	ldr	r2, [r4, #4]
 8001526:	f003 030c 	and.w	r3, r3, #12
 800152a:	ebb3 0f82 	cmp.w	r3, r2, lsl #2
 800152e:	d0a2      	beq.n	8001476 <HAL_RCC_ClockConfig+0x26>
      if ((HAL_GetTick() - tickstart) > CLOCKSWITCH_TIMEOUT_VALUE)
 8001530:	f7ff fa5e 	bl	80009f0 <HAL_GetTick>
 8001534:	1bc0      	subs	r0, r0, r7
 8001536:	4540      	cmp	r0, r8
 8001538:	d9f3      	bls.n	8001522 <HAL_RCC_ClockConfig+0xd2>
        return HAL_TIMEOUT;
 800153a:	2003      	movs	r0, #3
 800153c:	e78e      	b.n	800145c <HAL_RCC_ClockConfig+0xc>
    else if (RCC_ClkInitStruct->SYSCLKSource == RCC_SYSCLKSOURCE_PLLCLK)
 800153e:	2a02      	cmp	r2, #2
 8001540:	d102      	bne.n	8001548 <HAL_RCC_ClockConfig+0xf8>
      if (__HAL_RCC_GET_FLAG(RCC_FLAG_PLLRDY) == RESET)
 8001542:	f013 7f00 	tst.w	r3, #33554432	; 0x2000000
 8001546:	e7e1      	b.n	800150c <HAL_RCC_ClockConfig+0xbc>
      if (__HAL_RCC_GET_FLAG(RCC_FLAG_HSIRDY) == RESET)
 8001548:	f013 0f02 	tst.w	r3, #2
 800154c:	e7de      	b.n	800150c <HAL_RCC_ClockConfig+0xbc>
    __HAL_FLASH_SET_LATENCY(FLatency);
 800154e:	6813      	ldr	r3, [r2, #0]
 8001550:	f023 0307 	bic.w	r3, r3, #7
 8001554:	432b      	orrs	r3, r5
 8001556:	6013      	str	r3, [r2, #0]
    if (__HAL_FLASH_GET_LATENCY() != FLatency)
 8001558:	6813      	ldr	r3, [r2, #0]
 800155a:	f003 0307 	and.w	r3, r3, #7
 800155e:	42ab      	cmp	r3, r5
 8001560:	f47f af7b 	bne.w	800145a <HAL_RCC_ClockConfig+0xa>
 8001564:	e78d      	b.n	8001482 <HAL_RCC_ClockConfig+0x32>
    MODIFY_REG(RCC->CFGR, RCC_CFGR_PPRE1, RCC_ClkInitStruct->APB1CLKDivider);
 8001566:	686b      	ldr	r3, [r5, #4]
 8001568:	68e1      	ldr	r1, [r4, #12]
 800156a:	f423 63e0 	bic.w	r3, r3, #1792	; 0x700
 800156e:	430b      	orrs	r3, r1
 8001570:	606b      	str	r3, [r5, #4]
 8001572:	e78b      	b.n	800148c <HAL_RCC_ClockConfig+0x3c>
 8001574:	40022000 	.word	0x40022000
 8001578:	40021000 	.word	0x40021000
 800157c:	080057c0 	.word	0x080057c0
 8001580:	20000008 	.word	0x20000008
 8001584:	20000010 	.word	0x20000010

08001588 <HAL_RCC_GetPCLK1Freq>:
  return (HAL_RCC_GetHCLKFreq() >> APBPrescTable[(RCC->CFGR & RCC_CFGR_PPRE1) >> RCC_CFGR_PPRE1_Pos]);
 8001588:	4b04      	ldr	r3, [pc, #16]	; (800159c <HAL_RCC_GetPCLK1Freq+0x14>)
 800158a:	4a05      	ldr	r2, [pc, #20]	; (80015a0 <HAL_RCC_GetPCLK1Freq+0x18>)
 800158c:	685b      	ldr	r3, [r3, #4]
 800158e:	f3c3 2302 	ubfx	r3, r3, #8, #3
 8001592:	5cd3      	ldrb	r3, [r2, r3]
 8001594:	4a03      	ldr	r2, [pc, #12]	; (80015a4 <HAL_RCC_GetPCLK1Freq+0x1c>)
 8001596:	6810      	ldr	r0, [r2, #0]
}
 8001598:	40d8      	lsrs	r0, r3
 800159a:	4770      	bx	lr
 800159c:	40021000 	.word	0x40021000
 80015a0:	080057d0 	.word	0x080057d0
 80015a4:	20000008 	.word	0x20000008

080015a8 <HAL_RCC_GetPCLK2Freq>:
  return (HAL_RCC_GetHCLKFreq() >> APBPrescTable[(RCC->CFGR & RCC_CFGR_PPRE2) >> RCC_CFGR_PPRE2_Pos]);
 80015a8:	4b04      	ldr	r3, [pc, #16]	; (80015bc <HAL_RCC_GetPCLK2Freq+0x14>)
 80015aa:	4a05      	ldr	r2, [pc, #20]	; (80015c0 <HAL_RCC_GetPCLK2Freq+0x18>)
 80015ac:	685b      	ldr	r3, [r3, #4]
 80015ae:	f3c3 23c2 	ubfx	r3, r3, #11, #3
 80015b2:	5cd3      	ldrb	r3, [r2, r3]
 80015b4:	4a03      	ldr	r2, [pc, #12]	; (80015c4 <HAL_RCC_GetPCLK2Freq+0x1c>)
 80015b6:	6810      	ldr	r0, [r2, #0]
}
 80015b8:	40d8      	lsrs	r0, r3
 80015ba:	4770      	bx	lr
 80015bc:	40021000 	.word	0x40021000
 80015c0:	080057d0 	.word	0x080057d0
 80015c4:	20000008 	.word	0x20000008

080015c8 <SPI_WaitFlagStateUntilTimeout>:
  * @param  Tickstart tick start value
  * @retval HAL status
  */
static HAL_StatusTypeDef SPI_WaitFlagStateUntilTimeout(SPI_HandleTypeDef *hspi, uint32_t Flag, FlagStatus State,
                                                       uint32_t Timeout, uint32_t Tickstart)
{
 80015c8:	e92d 47f3 	stmdb	sp!, {r0, r1, r4, r5, r6, r7, r8, r9, sl, lr}
 80015cc:	461f      	mov	r7, r3
 80015ce:	4689      	mov	r9, r1
 80015d0:	4690      	mov	r8, r2
 80015d2:	4604      	mov	r4, r0
  __IO uint32_t count;
  uint32_t tmp_timeout;
  uint32_t tmp_tickstart;

  /* Adjust Timeout value  in case of end of transfer */
  tmp_timeout   = Timeout - (HAL_GetTick() - Tickstart);
 80015d4:	f7ff fa0c 	bl	80009f0 <HAL_GetTick>
 80015d8:	9d0a      	ldr	r5, [sp, #40]	; 0x28
 80015da:	443d      	add	r5, r7
 80015dc:	1a2d      	subs	r5, r5, r0
  tmp_tickstart = HAL_GetTick();
 80015de:	f7ff fa07 	bl	80009f0 <HAL_GetTick>
 80015e2:	4682      	mov	sl, r0

  /* Calculate Timeout based on a software loop to avoid blocking issue if Systick is disabled */
  count = tmp_timeout * ((SystemCoreClock * 32U) >> 20U);
 80015e4:	4b25      	ldr	r3, [pc, #148]	; (800167c <SPI_WaitFlagStateUntilTimeout+0xb4>)
 80015e6:	681e      	ldr	r6, [r3, #0]
 80015e8:	f3c6 36cb 	ubfx	r6, r6, #15, #12
 80015ec:	436e      	muls	r6, r5
 80015ee:	9601      	str	r6, [sp, #4]

  while ((__HAL_SPI_GET_FLAG(hspi, Flag) ? SET : RESET) != State)
 80015f0:	6822      	ldr	r2, [r4, #0]
 80015f2:	6893      	ldr	r3, [r2, #8]
 80015f4:	ea39 0303 	bics.w	r3, r9, r3
 80015f8:	bf0c      	ite	eq
 80015fa:	2301      	moveq	r3, #1
 80015fc:	2300      	movne	r3, #0
 80015fe:	4543      	cmp	r3, r8
 8001600:	d101      	bne.n	8001606 <SPI_WaitFlagStateUntilTimeout+0x3e>
      }
      count--;
    }
  }

  return HAL_OK;
 8001602:	2000      	movs	r0, #0
 8001604:	e02e      	b.n	8001664 <SPI_WaitFlagStateUntilTimeout+0x9c>
    if (Timeout != HAL_MAX_DELAY)
 8001606:	1c7b      	adds	r3, r7, #1
 8001608:	d0f3      	beq.n	80015f2 <SPI_WaitFlagStateUntilTimeout+0x2a>
      if (((HAL_GetTick() - tmp_tickstart) >= tmp_timeout) || (tmp_timeout == 0U))
 800160a:	f7ff f9f1 	bl	80009f0 <HAL_GetTick>
 800160e:	eba0 000a 	sub.w	r0, r0, sl
 8001612:	42a8      	cmp	r0, r5
 8001614:	d329      	bcc.n	800166a <SPI_WaitFlagStateUntilTimeout+0xa2>
        __HAL_SPI_DISABLE_IT(hspi, (SPI_IT_TXE | SPI_IT_RXNE | SPI_IT_ERR));
 8001616:	6823      	ldr	r3, [r4, #0]
 8001618:	685a      	ldr	r2, [r3, #4]
 800161a:	f022 02e0 	bic.w	r2, r2, #224	; 0xe0
 800161e:	605a      	str	r2, [r3, #4]
        if ((hspi->Init.Mode == SPI_MODE_MASTER) && ((hspi->Init.Direction == SPI_DIRECTION_1LINE)
 8001620:	6862      	ldr	r2, [r4, #4]
 8001622:	f5b2 7f82 	cmp.w	r2, #260	; 0x104
 8001626:	d10a      	bne.n	800163e <SPI_WaitFlagStateUntilTimeout+0x76>
 8001628:	68a2      	ldr	r2, [r4, #8]
 800162a:	f5b2 4f00 	cmp.w	r2, #32768	; 0x8000
 800162e:	d002      	beq.n	8001636 <SPI_WaitFlagStateUntilTimeout+0x6e>
                                                     || (hspi->Init.Direction == SPI_DIRECTION_2LINES_RXONLY)))
 8001630:	f5b2 6f80 	cmp.w	r2, #1024	; 0x400
 8001634:	d103      	bne.n	800163e <SPI_WaitFlagStateUntilTimeout+0x76>
          __HAL_SPI_DISABLE(hspi);
 8001636:	681a      	ldr	r2, [r3, #0]
 8001638:	f022 0240 	bic.w	r2, r2, #64	; 0x40
 800163c:	601a      	str	r2, [r3, #0]
        if (hspi->Init.CRCCalculation == SPI_CRCCALCULATION_ENABLE)
 800163e:	6aa2      	ldr	r2, [r4, #40]	; 0x28
 8001640:	f5b2 5f00 	cmp.w	r2, #8192	; 0x2000
 8001644:	d107      	bne.n	8001656 <SPI_WaitFlagStateUntilTimeout+0x8e>
          SPI_RESET_CRC(hspi);
 8001646:	681a      	ldr	r2, [r3, #0]
 8001648:	f422 5200 	bic.w	r2, r2, #8192	; 0x2000
 800164c:	601a      	str	r2, [r3, #0]
 800164e:	681a      	ldr	r2, [r3, #0]
 8001650:	f442 5200 	orr.w	r2, r2, #8192	; 0x2000
 8001654:	601a      	str	r2, [r3, #0]
        hspi->State = HAL_SPI_STATE_READY;
 8001656:	2301      	movs	r3, #1
 8001658:	f884 3051 	strb.w	r3, [r4, #81]	; 0x51
        __HAL_UNLOCK(hspi);
 800165c:	2300      	movs	r3, #0
 800165e:	2003      	movs	r0, #3
 8001660:	f884 3050 	strb.w	r3, [r4, #80]	; 0x50
}
 8001664:	b002      	add	sp, #8
 8001666:	e8bd 87f0 	ldmia.w	sp!, {r4, r5, r6, r7, r8, r9, sl, pc}
      if (count == 0U)
 800166a:	9b01      	ldr	r3, [sp, #4]
        tmp_timeout = 0U;
 800166c:	2b00      	cmp	r3, #0
      count--;
 800166e:	9b01      	ldr	r3, [sp, #4]
        tmp_timeout = 0U;
 8001670:	bf08      	it	eq
 8001672:	2500      	moveq	r5, #0
      count--;
 8001674:	3b01      	subs	r3, #1
 8001676:	9301      	str	r3, [sp, #4]
 8001678:	e7ba      	b.n	80015f0 <SPI_WaitFlagStateUntilTimeout+0x28>
 800167a:	bf00      	nop
 800167c:	20000008 	.word	0x20000008

08001680 <SPI_EndRxTxTransaction>:
  * @param  Timeout Timeout duration
  * @param  Tickstart tick start value
  * @retval HAL status
  */
static HAL_StatusTypeDef SPI_EndRxTxTransaction(SPI_HandleTypeDef *hspi, uint32_t Timeout, uint32_t Tickstart)
{
 8001680:	b573      	push	{r0, r1, r4, r5, r6, lr}
  /* Wait until TXE flag */
  if (SPI_WaitFlagStateUntilTimeout(hspi, SPI_FLAG_TXE, SET, Timeout, Tickstart) != HAL_OK)
 8001682:	460b      	mov	r3, r1
 8001684:	9200      	str	r2, [sp, #0]
{
 8001686:	460d      	mov	r5, r1
 8001688:	4616      	mov	r6, r2
  if (SPI_WaitFlagStateUntilTimeout(hspi, SPI_FLAG_TXE, SET, Timeout, Tickstart) != HAL_OK)
 800168a:	2102      	movs	r1, #2
 800168c:	2201      	movs	r2, #1
{
 800168e:	4604      	mov	r4, r0
  if (SPI_WaitFlagStateUntilTimeout(hspi, SPI_FLAG_TXE, SET, Timeout, Tickstart) != HAL_OK)
 8001690:	f7ff ff9a 	bl	80015c8 <SPI_WaitFlagStateUntilTimeout>
 8001694:	4602      	mov	r2, r0
 8001696:	b128      	cbz	r0, 80016a4 <SPI_EndRxTxTransaction+0x24>
  }

  /* Control the BSY flag */
  if (SPI_WaitFlagStateUntilTimeout(hspi, SPI_FLAG_BSY, RESET, Timeout, Tickstart) != HAL_OK)
  {
    SET_BIT(hspi->ErrorCode, HAL_SPI_ERROR_FLAG);
 8001698:	6d63      	ldr	r3, [r4, #84]	; 0x54
    return HAL_TIMEOUT;
 800169a:	2003      	movs	r0, #3
    SET_BIT(hspi->ErrorCode, HAL_SPI_ERROR_FLAG);
 800169c:	f043 0320 	orr.w	r3, r3, #32
 80016a0:	6563      	str	r3, [r4, #84]	; 0x54
    return HAL_TIMEOUT;
 80016a2:	e007      	b.n	80016b4 <SPI_EndRxTxTransaction+0x34>
  if (SPI_WaitFlagStateUntilTimeout(hspi, SPI_FLAG_BSY, RESET, Timeout, Tickstart) != HAL_OK)
 80016a4:	462b      	mov	r3, r5
 80016a6:	2180      	movs	r1, #128	; 0x80
 80016a8:	4620      	mov	r0, r4
 80016aa:	9600      	str	r6, [sp, #0]
 80016ac:	f7ff ff8c 	bl	80015c8 <SPI_WaitFlagStateUntilTimeout>
 80016b0:	2800      	cmp	r0, #0
 80016b2:	d1f1      	bne.n	8001698 <SPI_EndRxTxTransaction+0x18>
  }
  return HAL_OK;
}
 80016b4:	b002      	add	sp, #8
 80016b6:	bd70      	pop	{r4, r5, r6, pc}

080016b8 <HAL_SPI_Init>:
{
 80016b8:	b510      	push	{r4, lr}
  if (hspi == NULL)
 80016ba:	4604      	mov	r4, r0
 80016bc:	2800      	cmp	r0, #0
 80016be:	d051      	beq.n	8001764 <HAL_SPI_Init+0xac>
  if (hspi->Init.TIMode == SPI_TIMODE_DISABLE)
 80016c0:	6a43      	ldr	r3, [r0, #36]	; 0x24
 80016c2:	2b00      	cmp	r3, #0
 80016c4:	d14a      	bne.n	800175c <HAL_SPI_Init+0xa4>
    if (hspi->Init.Mode == SPI_MODE_MASTER)
 80016c6:	6842      	ldr	r2, [r0, #4]
 80016c8:	f5b2 7f82 	cmp.w	r2, #260	; 0x104
 80016cc:	d000      	beq.n	80016d0 <HAL_SPI_Init+0x18>
      hspi->Init.BaudRatePrescaler = SPI_BAUDRATEPRESCALER_2;
 80016ce:	61c3      	str	r3, [r0, #28]
  hspi->Init.CRCCalculation = SPI_CRCCALCULATION_DISABLE;
 80016d0:	2300      	movs	r3, #0
 80016d2:	62a3      	str	r3, [r4, #40]	; 0x28
  if (hspi->State == HAL_SPI_STATE_RESET)
 80016d4:	f894 3051 	ldrb.w	r3, [r4, #81]	; 0x51
 80016d8:	f003 02ff 	and.w	r2, r3, #255	; 0xff
 80016dc:	b923      	cbnz	r3, 80016e8 <HAL_SPI_Init+0x30>
    HAL_SPI_MspInit(hspi);
 80016de:	4620      	mov	r0, r4
    hspi->Lock = HAL_UNLOCKED;
 80016e0:	f884 2050 	strb.w	r2, [r4, #80]	; 0x50
    HAL_SPI_MspInit(hspi);
 80016e4:	f7fe ff8e 	bl	8000604 <HAL_SPI_MspInit>
  hspi->State = HAL_SPI_STATE_BUSY;
 80016e8:	2302      	movs	r3, #2
  __HAL_SPI_DISABLE(hspi);
 80016ea:	6822      	ldr	r2, [r4, #0]
  hspi->State = HAL_SPI_STATE_BUSY;
 80016ec:	f884 3051 	strb.w	r3, [r4, #81]	; 0x51
  __HAL_SPI_DISABLE(hspi);
 80016f0:	6813      	ldr	r3, [r2, #0]
  WRITE_REG(hspi->Instance->CR1, ((hspi->Init.Mode & (SPI_CR1_MSTR | SPI_CR1_SSI)) |
 80016f2:	68a0      	ldr	r0, [r4, #8]
  __HAL_SPI_DISABLE(hspi);
 80016f4:	f023 0340 	bic.w	r3, r3, #64	; 0x40
 80016f8:	6013      	str	r3, [r2, #0]
  WRITE_REG(hspi->Instance->CR1, ((hspi->Init.Mode & (SPI_CR1_MSTR | SPI_CR1_SSI)) |
 80016fa:	6863      	ldr	r3, [r4, #4]
 80016fc:	f400 4004 	and.w	r0, r0, #33792	; 0x8400
 8001700:	f403 7382 	and.w	r3, r3, #260	; 0x104
 8001704:	4303      	orrs	r3, r0
 8001706:	68e0      	ldr	r0, [r4, #12]
 8001708:	69a1      	ldr	r1, [r4, #24]
 800170a:	f400 6000 	and.w	r0, r0, #2048	; 0x800
 800170e:	4303      	orrs	r3, r0
 8001710:	6920      	ldr	r0, [r4, #16]
 8001712:	f000 0002 	and.w	r0, r0, #2
 8001716:	4303      	orrs	r3, r0
 8001718:	6960      	ldr	r0, [r4, #20]
 800171a:	f000 0001 	and.w	r0, r0, #1
 800171e:	4303      	orrs	r3, r0
 8001720:	f401 7000 	and.w	r0, r1, #512	; 0x200
 8001724:	4303      	orrs	r3, r0
 8001726:	69e0      	ldr	r0, [r4, #28]
  WRITE_REG(hspi->Instance->CR2, ((hspi->Init.NSS >> 16U) & SPI_CR2_SSOE));
 8001728:	0c09      	lsrs	r1, r1, #16
  WRITE_REG(hspi->Instance->CR1, ((hspi->Init.Mode & (SPI_CR1_MSTR | SPI_CR1_SSI)) |
 800172a:	f000 0038 	and.w	r0, r0, #56	; 0x38
 800172e:	4303      	orrs	r3, r0
 8001730:	6a20      	ldr	r0, [r4, #32]
  WRITE_REG(hspi->Instance->CR2, ((hspi->Init.NSS >> 16U) & SPI_CR2_SSOE));
 8001732:	f001 0104 	and.w	r1, r1, #4
  WRITE_REG(hspi->Instance->CR1, ((hspi->Init.Mode & (SPI_CR1_MSTR | SPI_CR1_SSI)) |
 8001736:	f000 0080 	and.w	r0, r0, #128	; 0x80
 800173a:	4303      	orrs	r3, r0
 800173c:	6aa0      	ldr	r0, [r4, #40]	; 0x28
 800173e:	f400 5000 	and.w	r0, r0, #8192	; 0x2000
 8001742:	4303      	orrs	r3, r0
 8001744:	6013      	str	r3, [r2, #0]
  WRITE_REG(hspi->Instance->CR2, ((hspi->Init.NSS >> 16U) & SPI_CR2_SSOE));
 8001746:	6051      	str	r1, [r2, #4]
  CLEAR_BIT(hspi->Instance->I2SCFGR, SPI_I2SCFGR_I2SMOD);
 8001748:	69d3      	ldr	r3, [r2, #28]
  hspi->ErrorCode = HAL_SPI_ERROR_NONE;
 800174a:	2000      	movs	r0, #0
  CLEAR_BIT(hspi->Instance->I2SCFGR, SPI_I2SCFGR_I2SMOD);
 800174c:	f423 6300 	bic.w	r3, r3, #2048	; 0x800
 8001750:	61d3      	str	r3, [r2, #28]
  hspi->State     = HAL_SPI_STATE_READY;
 8001752:	2301      	movs	r3, #1
  hspi->ErrorCode = HAL_SPI_ERROR_NONE;
 8001754:	6560      	str	r0, [r4, #84]	; 0x54
  hspi->State     = HAL_SPI_STATE_READY;
 8001756:	f884 3051 	strb.w	r3, [r4, #81]	; 0x51
}
 800175a:	bd10      	pop	{r4, pc}
    hspi->Init.CLKPolarity = SPI_POLARITY_LOW;
 800175c:	2300      	movs	r3, #0
    hspi->Init.CLKPhase    = SPI_PHASE_1EDGE;
 800175e:	e9c0 3304 	strd	r3, r3, [r0, #16]
 8001762:	e7b5      	b.n	80016d0 <HAL_SPI_Init+0x18>
    return HAL_ERROR;
 8001764:	2001      	movs	r0, #1
 8001766:	e7f8      	b.n	800175a <HAL_SPI_Init+0xa2>

08001768 <HAL_SPI_DeInit>:
{
 8001768:	b510      	push	{r4, lr}
  if (hspi == NULL)
 800176a:	4604      	mov	r4, r0
 800176c:	b180      	cbz	r0, 8001790 <HAL_SPI_DeInit+0x28>
  hspi->State = HAL_SPI_STATE_BUSY;
 800176e:	2302      	movs	r3, #2
  __HAL_SPI_DISABLE(hspi);
 8001770:	6802      	ldr	r2, [r0, #0]
  hspi->State = HAL_SPI_STATE_BUSY;
 8001772:	f880 3051 	strb.w	r3, [r0, #81]	; 0x51
  __HAL_SPI_DISABLE(hspi);
 8001776:	6813      	ldr	r3, [r2, #0]
 8001778:	f023 0340 	bic.w	r3, r3, #64	; 0x40
 800177c:	6013      	str	r3, [r2, #0]
  HAL_SPI_MspDeInit(hspi);
 800177e:	f7fe ffc3 	bl	8000708 <HAL_SPI_MspDeInit>
  hspi->ErrorCode = HAL_SPI_ERROR_NONE;
 8001782:	2000      	movs	r0, #0
 8001784:	6560      	str	r0, [r4, #84]	; 0x54
  __HAL_UNLOCK(hspi);
 8001786:	f884 0050 	strb.w	r0, [r4, #80]	; 0x50
  hspi->State = HAL_SPI_STATE_RESET;
 800178a:	f884 0051 	strb.w	r0, [r4, #81]	; 0x51
}
 800178e:	bd10      	pop	{r4, pc}
    return HAL_ERROR;
 8001790:	2001      	movs	r0, #1
 8001792:	e7fc      	b.n	800178e <HAL_SPI_DeInit+0x26>

08001794 <HAL_SPI_Transmit>:
{
 8001794:	e92d 43f7 	stmdb	sp!, {r0, r1, r2, r4, r5, r6, r7, r8, r9, lr}
 8001798:	4604      	mov	r4, r0
 800179a:	461f      	mov	r7, r3
 800179c:	460d      	mov	r5, r1
 800179e:	4690      	mov	r8, r2
  tickstart = HAL_GetTick();
 80017a0:	f7ff f926 	bl	80009f0 <HAL_GetTick>
  if (hspi->State != HAL_SPI_STATE_READY)
 80017a4:	f894 3051 	ldrb.w	r3, [r4, #81]	; 0x51
  tickstart = HAL_GetTick();
 80017a8:	4681      	mov	r9, r0
  if (hspi->State != HAL_SPI_STATE_READY)
 80017aa:	2b01      	cmp	r3, #1
 80017ac:	b2d8      	uxtb	r0, r3
 80017ae:	f040 80a0 	bne.w	80018f2 <HAL_SPI_Transmit+0x15e>
  if ((pData == NULL) || (Size == 0U))
 80017b2:	2d00      	cmp	r5, #0
 80017b4:	d074      	beq.n	80018a0 <HAL_SPI_Transmit+0x10c>
 80017b6:	f1b8 0f00 	cmp.w	r8, #0
 80017ba:	d071      	beq.n	80018a0 <HAL_SPI_Transmit+0x10c>
  __HAL_LOCK(hspi);
 80017bc:	f894 3050 	ldrb.w	r3, [r4, #80]	; 0x50
 80017c0:	2b01      	cmp	r3, #1
 80017c2:	f000 8096 	beq.w	80018f2 <HAL_SPI_Transmit+0x15e>
  hspi->State       = HAL_SPI_STATE_BUSY_TX;
 80017c6:	2303      	movs	r3, #3
 80017c8:	f884 3051 	strb.w	r3, [r4, #81]	; 0x51
  hspi->ErrorCode   = HAL_SPI_ERROR_NONE;
 80017cc:	2300      	movs	r3, #0
 80017ce:	6563      	str	r3, [r4, #84]	; 0x54
  hspi->RxISR       = NULL;
 80017d0:	e9c4 3310 	strd	r3, r3, [r4, #64]	; 0x40
  hspi->TxXferCount = Size;
 80017d4:	f8a4 8036 	strh.w	r8, [r4, #54]	; 0x36
  hspi->pRxBuffPtr  = (uint8_t *)NULL;
 80017d8:	63a3      	str	r3, [r4, #56]	; 0x38
  hspi->RxXferSize  = 0U;
 80017da:	87a3      	strh	r3, [r4, #60]	; 0x3c
  hspi->RxXferCount = 0U;
 80017dc:	87e3      	strh	r3, [r4, #62]	; 0x3e
  if (hspi->Init.Direction == SPI_DIRECTION_1LINE)
 80017de:	68a3      	ldr	r3, [r4, #8]
 80017e0:	6826      	ldr	r6, [r4, #0]
 80017e2:	f5b3 4f00 	cmp.w	r3, #32768	; 0x8000
  __HAL_LOCK(hspi);
 80017e6:	f884 0050 	strb.w	r0, [r4, #80]	; 0x50
  hspi->pTxBuffPtr  = (const uint8_t *)pData;
 80017ea:	6325      	str	r5, [r4, #48]	; 0x30
  hspi->TxXferSize  = Size;
 80017ec:	f8a4 8034 	strh.w	r8, [r4, #52]	; 0x34
  if (hspi->Init.Direction == SPI_DIRECTION_1LINE)
 80017f0:	d107      	bne.n	8001802 <HAL_SPI_Transmit+0x6e>
    __HAL_SPI_DISABLE(hspi);
 80017f2:	6833      	ldr	r3, [r6, #0]
 80017f4:	f023 0340 	bic.w	r3, r3, #64	; 0x40
 80017f8:	6033      	str	r3, [r6, #0]
    SPI_1LINE_TX(hspi);
 80017fa:	6833      	ldr	r3, [r6, #0]
 80017fc:	f443 4380 	orr.w	r3, r3, #16384	; 0x4000
 8001800:	6033      	str	r3, [r6, #0]
  if ((hspi->Instance->CR1 & SPI_CR1_SPE) != SPI_CR1_SPE)
 8001802:	6833      	ldr	r3, [r6, #0]
  if (hspi->Init.DataSize == SPI_DATASIZE_16BIT)
 8001804:	68e2      	ldr	r2, [r4, #12]
  if ((hspi->Instance->CR1 & SPI_CR1_SPE) != SPI_CR1_SPE)
 8001806:	0659      	lsls	r1, r3, #25
    __HAL_SPI_ENABLE(hspi);
 8001808:	bf5e      	ittt	pl
 800180a:	6833      	ldrpl	r3, [r6, #0]
 800180c:	f043 0340 	orrpl.w	r3, r3, #64	; 0x40
 8001810:	6033      	strpl	r3, [r6, #0]
  if (hspi->Init.DataSize == SPI_DATASIZE_16BIT)
 8001812:	f5b2 6f00 	cmp.w	r2, #2048	; 0x800
 8001816:	6863      	ldr	r3, [r4, #4]
 8001818:	d145      	bne.n	80018a6 <HAL_SPI_Transmit+0x112>
    if ((hspi->Init.Mode == SPI_MODE_SLAVE) || (initial_TxXferCount == 0x01U))
 800181a:	b113      	cbz	r3, 8001822 <HAL_SPI_Transmit+0x8e>
 800181c:	f1b8 0f01 	cmp.w	r8, #1
 8001820:	d107      	bne.n	8001832 <HAL_SPI_Transmit+0x9e>
      hspi->Instance->DR = *((const uint16_t *)hspi->pTxBuffPtr);
 8001822:	f835 3b02 	ldrh.w	r3, [r5], #2
 8001826:	60f3      	str	r3, [r6, #12]
      hspi->pTxBuffPtr += sizeof(uint16_t);
 8001828:	6325      	str	r5, [r4, #48]	; 0x30
        hspi->TxXferCount--;
 800182a:	8ee3      	ldrh	r3, [r4, #54]	; 0x36
 800182c:	3b01      	subs	r3, #1
 800182e:	b29b      	uxth	r3, r3
 8001830:	86e3      	strh	r3, [r4, #54]	; 0x36
    while (hspi->TxXferCount > 0U)
 8001832:	8ee3      	ldrh	r3, [r4, #54]	; 0x36
 8001834:	b29b      	uxth	r3, r3
 8001836:	b9d3      	cbnz	r3, 800186e <HAL_SPI_Transmit+0xda>
  if (SPI_EndRxTxTransaction(hspi, Timeout, tickstart) != HAL_OK)
 8001838:	464a      	mov	r2, r9
 800183a:	4639      	mov	r1, r7
 800183c:	4620      	mov	r0, r4
 800183e:	f7ff ff1f 	bl	8001680 <SPI_EndRxTxTransaction>
 8001842:	2800      	cmp	r0, #0
 8001844:	d152      	bne.n	80018ec <HAL_SPI_Transmit+0x158>
  if (hspi->Init.Direction == SPI_DIRECTION_2LINES)
 8001846:	68a3      	ldr	r3, [r4, #8]
 8001848:	b933      	cbnz	r3, 8001858 <HAL_SPI_Transmit+0xc4>
    __HAL_SPI_CLEAR_OVRFLAG(hspi);
 800184a:	9301      	str	r3, [sp, #4]
 800184c:	6823      	ldr	r3, [r4, #0]
 800184e:	68da      	ldr	r2, [r3, #12]
 8001850:	9201      	str	r2, [sp, #4]
 8001852:	689b      	ldr	r3, [r3, #8]
 8001854:	9301      	str	r3, [sp, #4]
 8001856:	9b01      	ldr	r3, [sp, #4]
  hspi->State = HAL_SPI_STATE_READY;
 8001858:	2301      	movs	r3, #1
 800185a:	f884 3051 	strb.w	r3, [r4, #81]	; 0x51
  __HAL_UNLOCK(hspi);
 800185e:	2300      	movs	r3, #0
  if (hspi->ErrorCode != HAL_SPI_ERROR_NONE)
 8001860:	6d60      	ldr	r0, [r4, #84]	; 0x54
  __HAL_UNLOCK(hspi);
 8001862:	f884 3050 	strb.w	r3, [r4, #80]	; 0x50
    return HAL_BUSY;
 8001866:	1ac0      	subs	r0, r0, r3
 8001868:	bf18      	it	ne
 800186a:	2001      	movne	r0, #1
 800186c:	e018      	b.n	80018a0 <HAL_SPI_Transmit+0x10c>
      if (__HAL_SPI_GET_FLAG(hspi, SPI_FLAG_TXE))
 800186e:	6822      	ldr	r2, [r4, #0]
 8001870:	6895      	ldr	r5, [r2, #8]
 8001872:	f015 0502 	ands.w	r5, r5, #2
 8001876:	d005      	beq.n	8001884 <HAL_SPI_Transmit+0xf0>
        hspi->Instance->DR = *((const uint16_t *)hspi->pTxBuffPtr);
 8001878:	6b23      	ldr	r3, [r4, #48]	; 0x30
 800187a:	f833 1b02 	ldrh.w	r1, [r3], #2
 800187e:	60d1      	str	r1, [r2, #12]
        hspi->pTxBuffPtr += sizeof(uint16_t);
 8001880:	6323      	str	r3, [r4, #48]	; 0x30
 8001882:	e7d2      	b.n	800182a <HAL_SPI_Transmit+0x96>
        if ((((HAL_GetTick() - tickstart) >=  Timeout) && (Timeout != HAL_MAX_DELAY)) || (Timeout == 0U))
 8001884:	f7ff f8b4 	bl	80009f0 <HAL_GetTick>
 8001888:	eba0 0009 	sub.w	r0, r0, r9
 800188c:	42b8      	cmp	r0, r7
 800188e:	d3d0      	bcc.n	8001832 <HAL_SPI_Transmit+0x9e>
 8001890:	1c7a      	adds	r2, r7, #1
 8001892:	d0ce      	beq.n	8001832 <HAL_SPI_Transmit+0x9e>
          hspi->State = HAL_SPI_STATE_READY;
 8001894:	2301      	movs	r3, #1
          return HAL_TIMEOUT;
 8001896:	2003      	movs	r0, #3
          hspi->State = HAL_SPI_STATE_READY;
 8001898:	f884 3051 	strb.w	r3, [r4, #81]	; 0x51
          __HAL_UNLOCK(hspi);
 800189c:	f884 5050 	strb.w	r5, [r4, #80]	; 0x50
}
 80018a0:	b003      	add	sp, #12
 80018a2:	e8bd 83f0 	ldmia.w	sp!, {r4, r5, r6, r7, r8, r9, pc}
    if ((hspi->Init.Mode == SPI_MODE_SLAVE) || (initial_TxXferCount == 0x01U))
 80018a6:	b113      	cbz	r3, 80018ae <HAL_SPI_Transmit+0x11a>
 80018a8:	f1b8 0f01 	cmp.w	r8, #1
 80018ac:	d108      	bne.n	80018c0 <HAL_SPI_Transmit+0x12c>
      *((__IO uint8_t *)&hspi->Instance->DR) = *((const uint8_t *)hspi->pTxBuffPtr);
 80018ae:	782b      	ldrb	r3, [r5, #0]
 80018b0:	7333      	strb	r3, [r6, #12]
        hspi->pTxBuffPtr += sizeof(uint8_t);
 80018b2:	6b23      	ldr	r3, [r4, #48]	; 0x30
 80018b4:	3301      	adds	r3, #1
 80018b6:	6323      	str	r3, [r4, #48]	; 0x30
        hspi->TxXferCount--;
 80018b8:	8ee3      	ldrh	r3, [r4, #54]	; 0x36
 80018ba:	3b01      	subs	r3, #1
 80018bc:	b29b      	uxth	r3, r3
 80018be:	86e3      	strh	r3, [r4, #54]	; 0x36
    while (hspi->TxXferCount > 0U)
 80018c0:	8ee3      	ldrh	r3, [r4, #54]	; 0x36
 80018c2:	b29b      	uxth	r3, r3
 80018c4:	2b00      	cmp	r3, #0
 80018c6:	d0b7      	beq.n	8001838 <HAL_SPI_Transmit+0xa4>
      if (__HAL_SPI_GET_FLAG(hspi, SPI_FLAG_TXE))
 80018c8:	6822      	ldr	r2, [r4, #0]
 80018ca:	6895      	ldr	r5, [r2, #8]
 80018cc:	f015 0502 	ands.w	r5, r5, #2
 80018d0:	d003      	beq.n	80018da <HAL_SPI_Transmit+0x146>
        *((__IO uint8_t *)&hspi->Instance->DR) = *((const uint8_t *)hspi->pTxBuffPtr);
 80018d2:	6b23      	ldr	r3, [r4, #48]	; 0x30
 80018d4:	781b      	ldrb	r3, [r3, #0]
 80018d6:	7313      	strb	r3, [r2, #12]
 80018d8:	e7eb      	b.n	80018b2 <HAL_SPI_Transmit+0x11e>
        if ((((HAL_GetTick() - tickstart) >=  Timeout) && (Timeout != HAL_MAX_DELAY)) || (Timeout == 0U))
 80018da:	f7ff f889 	bl	80009f0 <HAL_GetTick>
 80018de:	eba0 0009 	sub.w	r0, r0, r9
 80018e2:	42b8      	cmp	r0, r7
 80018e4:	d3ec      	bcc.n	80018c0 <HAL_SPI_Transmit+0x12c>
 80018e6:	1c7b      	adds	r3, r7, #1
 80018e8:	d0ea      	beq.n	80018c0 <HAL_SPI_Transmit+0x12c>
 80018ea:	e7d3      	b.n	8001894 <HAL_SPI_Transmit+0x100>
    hspi->ErrorCode = HAL_SPI_ERROR_FLAG;
 80018ec:	2320      	movs	r3, #32
 80018ee:	6563      	str	r3, [r4, #84]	; 0x54
 80018f0:	e7a9      	b.n	8001846 <HAL_SPI_Transmit+0xb2>
    return HAL_BUSY;
 80018f2:	2002      	movs	r0, #2
 80018f4:	e7d4      	b.n	80018a0 <HAL_SPI_Transmit+0x10c>

080018f6 <HAL_SPI_TransmitReceive>:
{
 80018f6:	e92d 43f7 	stmdb	sp!, {r0, r1, r2, r4, r5, r6, r7, r8, r9, lr}
 80018fa:	4604      	mov	r4, r0
 80018fc:	460d      	mov	r5, r1
 80018fe:	4691      	mov	r9, r2
 8001900:	461e      	mov	r6, r3
 8001902:	f8dd 8028 	ldr.w	r8, [sp, #40]	; 0x28
  tickstart = HAL_GetTick();
 8001906:	f7ff f873 	bl	80009f0 <HAL_GetTick>
  tmp_state           = hspi->State;
 800190a:	f894 3051 	ldrb.w	r3, [r4, #81]	; 0x51
  tickstart = HAL_GetTick();
 800190e:	4607      	mov	r7, r0
  if (!((tmp_state == HAL_SPI_STATE_READY) || \
 8001910:	2b01      	cmp	r3, #1
  tmp_mode            = hspi->Init.Mode;
 8001912:	6862      	ldr	r2, [r4, #4]
  tmp_state           = hspi->State;
 8001914:	b2d9      	uxtb	r1, r3
  if (!((tmp_state == HAL_SPI_STATE_READY) || \
 8001916:	d00a      	beq.n	800192e <HAL_SPI_TransmitReceive+0x38>
 8001918:	f5b2 7f82 	cmp.w	r2, #260	; 0x104
 800191c:	f040 80e5 	bne.w	8001aea <HAL_SPI_TransmitReceive+0x1f4>
        ((tmp_mode == SPI_MODE_MASTER) && (hspi->Init.Direction == SPI_DIRECTION_2LINES) &&
 8001920:	68a3      	ldr	r3, [r4, #8]
 8001922:	2b00      	cmp	r3, #0
 8001924:	f040 80e1 	bne.w	8001aea <HAL_SPI_TransmitReceive+0x1f4>
 8001928:	2904      	cmp	r1, #4
 800192a:	f040 80de 	bne.w	8001aea <HAL_SPI_TransmitReceive+0x1f4>
  if ((pTxData == NULL) || (pRxData == NULL) || (Size == 0U))
 800192e:	2d00      	cmp	r5, #0
 8001930:	d04b      	beq.n	80019ca <HAL_SPI_TransmitReceive+0xd4>
 8001932:	f1b9 0f00 	cmp.w	r9, #0
 8001936:	d048      	beq.n	80019ca <HAL_SPI_TransmitReceive+0xd4>
 8001938:	2e00      	cmp	r6, #0
 800193a:	d046      	beq.n	80019ca <HAL_SPI_TransmitReceive+0xd4>
  __HAL_LOCK(hspi);
 800193c:	f894 3050 	ldrb.w	r3, [r4, #80]	; 0x50
 8001940:	2b01      	cmp	r3, #1
 8001942:	f000 80d2 	beq.w	8001aea <HAL_SPI_TransmitReceive+0x1f4>
 8001946:	2301      	movs	r3, #1
 8001948:	f884 3050 	strb.w	r3, [r4, #80]	; 0x50
  if (hspi->State != HAL_SPI_STATE_BUSY_RX)
 800194c:	f894 3051 	ldrb.w	r3, [r4, #81]	; 0x51
  hspi->pRxBuffPtr  = (uint8_t *)pRxData;
 8001950:	f8c4 9038 	str.w	r9, [r4, #56]	; 0x38
  if (hspi->State != HAL_SPI_STATE_BUSY_RX)
 8001954:	2b04      	cmp	r3, #4
    hspi->State = HAL_SPI_STATE_BUSY_TX_RX;
 8001956:	bf1c      	itt	ne
 8001958:	2305      	movne	r3, #5
 800195a:	f884 3051 	strbne.w	r3, [r4, #81]	; 0x51
  hspi->ErrorCode   = HAL_SPI_ERROR_NONE;
 800195e:	2300      	movs	r3, #0
 8001960:	6563      	str	r3, [r4, #84]	; 0x54
  hspi->TxISR       = NULL;
 8001962:	e9c4 3310 	strd	r3, r3, [r4, #64]	; 0x40
  if ((hspi->Instance->CR1 & SPI_CR1_SPE) != SPI_CR1_SPE)
 8001966:	6823      	ldr	r3, [r4, #0]
  hspi->RxXferCount = Size;
 8001968:	87e6      	strh	r6, [r4, #62]	; 0x3e
  hspi->TxXferCount = Size;
 800196a:	86e6      	strh	r6, [r4, #54]	; 0x36
  if ((hspi->Instance->CR1 & SPI_CR1_SPE) != SPI_CR1_SPE)
 800196c:	6819      	ldr	r1, [r3, #0]
  hspi->RxXferSize  = Size;
 800196e:	87a6      	strh	r6, [r4, #60]	; 0x3c
  if ((hspi->Instance->CR1 & SPI_CR1_SPE) != SPI_CR1_SPE)
 8001970:	0649      	lsls	r1, r1, #25
    __HAL_SPI_ENABLE(hspi);
 8001972:	bf58      	it	pl
 8001974:	6819      	ldrpl	r1, [r3, #0]
  hspi->pTxBuffPtr  = (const uint8_t *)pTxData;
 8001976:	6325      	str	r5, [r4, #48]	; 0x30
    __HAL_SPI_ENABLE(hspi);
 8001978:	bf58      	it	pl
 800197a:	f041 0140 	orrpl.w	r1, r1, #64	; 0x40
  hspi->TxXferSize  = Size;
 800197e:	86a6      	strh	r6, [r4, #52]	; 0x34
    __HAL_SPI_ENABLE(hspi);
 8001980:	bf58      	it	pl
 8001982:	6019      	strpl	r1, [r3, #0]
  if (hspi->Init.DataSize == SPI_DATASIZE_16BIT)
 8001984:	68e1      	ldr	r1, [r4, #12]
 8001986:	f5b1 6f00 	cmp.w	r1, #2048	; 0x800
 800198a:	d155      	bne.n	8001a38 <HAL_SPI_TransmitReceive+0x142>
    if ((hspi->Init.Mode == SPI_MODE_SLAVE) || (initial_TxXferCount == 0x01U))
 800198c:	b10a      	cbz	r2, 8001992 <HAL_SPI_TransmitReceive+0x9c>
 800198e:	2e01      	cmp	r6, #1
 8001990:	d107      	bne.n	80019a2 <HAL_SPI_TransmitReceive+0xac>
      hspi->Instance->DR = *((const uint16_t *)hspi->pTxBuffPtr);
 8001992:	f835 2b02 	ldrh.w	r2, [r5], #2
 8001996:	60da      	str	r2, [r3, #12]
      hspi->TxXferCount--;
 8001998:	8ee3      	ldrh	r3, [r4, #54]	; 0x36
      hspi->pTxBuffPtr += sizeof(uint16_t);
 800199a:	6325      	str	r5, [r4, #48]	; 0x30
      hspi->TxXferCount--;
 800199c:	3b01      	subs	r3, #1
 800199e:	b29b      	uxth	r3, r3
 80019a0:	86e3      	strh	r3, [r4, #54]	; 0x36
        txallowed = 1U;
 80019a2:	2501      	movs	r5, #1
    while ((hspi->TxXferCount > 0U) || (hspi->RxXferCount > 0U))
 80019a4:	8ee3      	ldrh	r3, [r4, #54]	; 0x36
 80019a6:	b29b      	uxth	r3, r3
 80019a8:	b98b      	cbnz	r3, 80019ce <HAL_SPI_TransmitReceive+0xd8>
 80019aa:	8fe3      	ldrh	r3, [r4, #62]	; 0x3e
 80019ac:	b29b      	uxth	r3, r3
 80019ae:	b973      	cbnz	r3, 80019ce <HAL_SPI_TransmitReceive+0xd8>
  if (SPI_EndRxTxTransaction(hspi, Timeout, tickstart) != HAL_OK)
 80019b0:	463a      	mov	r2, r7
 80019b2:	4641      	mov	r1, r8
 80019b4:	4620      	mov	r0, r4
 80019b6:	f7ff fe63 	bl	8001680 <SPI_EndRxTxTransaction>
 80019ba:	2800      	cmp	r0, #0
 80019bc:	f000 8081 	beq.w	8001ac2 <HAL_SPI_TransmitReceive+0x1cc>
    hspi->ErrorCode = HAL_SPI_ERROR_FLAG;
 80019c0:	2320      	movs	r3, #32
 80019c2:	6563      	str	r3, [r4, #84]	; 0x54
    __HAL_UNLOCK(hspi);
 80019c4:	2300      	movs	r3, #0
 80019c6:	f884 3050 	strb.w	r3, [r4, #80]	; 0x50
    return HAL_ERROR;
 80019ca:	2001      	movs	r0, #1
 80019cc:	e031      	b.n	8001a32 <HAL_SPI_TransmitReceive+0x13c>
      if ((__HAL_SPI_GET_FLAG(hspi, SPI_FLAG_TXE)) && (hspi->TxXferCount > 0U) && (txallowed == 1U))
 80019ce:	6821      	ldr	r1, [r4, #0]
 80019d0:	688b      	ldr	r3, [r1, #8]
 80019d2:	079a      	lsls	r2, r3, #30
 80019d4:	d50d      	bpl.n	80019f2 <HAL_SPI_TransmitReceive+0xfc>
 80019d6:	8ee3      	ldrh	r3, [r4, #54]	; 0x36
 80019d8:	b29b      	uxth	r3, r3
 80019da:	b153      	cbz	r3, 80019f2 <HAL_SPI_TransmitReceive+0xfc>
 80019dc:	b14d      	cbz	r5, 80019f2 <HAL_SPI_TransmitReceive+0xfc>
        txallowed = 0U;
 80019de:	2500      	movs	r5, #0
        hspi->Instance->DR = *((const uint16_t *)hspi->pTxBuffPtr);
 80019e0:	6b23      	ldr	r3, [r4, #48]	; 0x30
 80019e2:	f833 2b02 	ldrh.w	r2, [r3], #2
 80019e6:	60ca      	str	r2, [r1, #12]
        hspi->pTxBuffPtr += sizeof(uint16_t);
 80019e8:	6323      	str	r3, [r4, #48]	; 0x30
        hspi->TxXferCount--;
 80019ea:	8ee3      	ldrh	r3, [r4, #54]	; 0x36
 80019ec:	3b01      	subs	r3, #1
 80019ee:	b29b      	uxth	r3, r3
 80019f0:	86e3      	strh	r3, [r4, #54]	; 0x36
      if ((__HAL_SPI_GET_FLAG(hspi, SPI_FLAG_RXNE)) && (hspi->RxXferCount > 0U))
 80019f2:	688a      	ldr	r2, [r1, #8]
 80019f4:	f012 0201 	ands.w	r2, r2, #1
 80019f8:	d00c      	beq.n	8001a14 <HAL_SPI_TransmitReceive+0x11e>
 80019fa:	8fe3      	ldrh	r3, [r4, #62]	; 0x3e
 80019fc:	b29b      	uxth	r3, r3
 80019fe:	b14b      	cbz	r3, 8001a14 <HAL_SPI_TransmitReceive+0x11e>
        txallowed = 1U;
 8001a00:	4615      	mov	r5, r2
        *((uint16_t *)hspi->pRxBuffPtr) = (uint16_t)hspi->Instance->DR;
 8001a02:	68c9      	ldr	r1, [r1, #12]
 8001a04:	6ba3      	ldr	r3, [r4, #56]	; 0x38
 8001a06:	f823 1b02 	strh.w	r1, [r3], #2
        hspi->pRxBuffPtr += sizeof(uint16_t);
 8001a0a:	63a3      	str	r3, [r4, #56]	; 0x38
        hspi->RxXferCount--;
 8001a0c:	8fe3      	ldrh	r3, [r4, #62]	; 0x3e
 8001a0e:	3b01      	subs	r3, #1
 8001a10:	b29b      	uxth	r3, r3
 8001a12:	87e3      	strh	r3, [r4, #62]	; 0x3e
      if (((HAL_GetTick() - tickstart) >=  Timeout) && (Timeout != HAL_MAX_DELAY))
 8001a14:	f7fe ffec 	bl	80009f0 <HAL_GetTick>
 8001a18:	1bc0      	subs	r0, r0, r7
 8001a1a:	4540      	cmp	r0, r8
 8001a1c:	d3c2      	bcc.n	80019a4 <HAL_SPI_TransmitReceive+0xae>
 8001a1e:	f1b8 3fff 	cmp.w	r8, #4294967295
 8001a22:	d0bf      	beq.n	80019a4 <HAL_SPI_TransmitReceive+0xae>
        hspi->State = HAL_SPI_STATE_READY;
 8001a24:	2301      	movs	r3, #1
 8001a26:	f884 3051 	strb.w	r3, [r4, #81]	; 0x51
        __HAL_UNLOCK(hspi);
 8001a2a:	2300      	movs	r3, #0
        return HAL_TIMEOUT;
 8001a2c:	2003      	movs	r0, #3
        __HAL_UNLOCK(hspi);
 8001a2e:	f884 3050 	strb.w	r3, [r4, #80]	; 0x50
}
 8001a32:	b003      	add	sp, #12
 8001a34:	e8bd 83f0 	ldmia.w	sp!, {r4, r5, r6, r7, r8, r9, pc}
    if ((hspi->Init.Mode == SPI_MODE_SLAVE) || (initial_TxXferCount == 0x01U))
 8001a38:	b10a      	cbz	r2, 8001a3e <HAL_SPI_TransmitReceive+0x148>
 8001a3a:	2e01      	cmp	r6, #1
 8001a3c:	d108      	bne.n	8001a50 <HAL_SPI_TransmitReceive+0x15a>
      *((__IO uint8_t *)&hspi->Instance->DR) = *((const uint8_t *)hspi->pTxBuffPtr);
 8001a3e:	782a      	ldrb	r2, [r5, #0]
 8001a40:	731a      	strb	r2, [r3, #12]
      hspi->pTxBuffPtr += sizeof(uint8_t);
 8001a42:	6b23      	ldr	r3, [r4, #48]	; 0x30
 8001a44:	3301      	adds	r3, #1
 8001a46:	6323      	str	r3, [r4, #48]	; 0x30
      hspi->TxXferCount--;
 8001a48:	8ee3      	ldrh	r3, [r4, #54]	; 0x36
 8001a4a:	3b01      	subs	r3, #1
 8001a4c:	b29b      	uxth	r3, r3
 8001a4e:	86e3      	strh	r3, [r4, #54]	; 0x36
        txallowed = 1U;
 8001a50:	2501      	movs	r5, #1
 8001a52:	e02d      	b.n	8001ab0 <HAL_SPI_TransmitReceive+0x1ba>
      if ((__HAL_SPI_GET_FLAG(hspi, SPI_FLAG_TXE)) && (hspi->TxXferCount > 0U) && (txallowed == 1U))
 8001a54:	6822      	ldr	r2, [r4, #0]
 8001a56:	6893      	ldr	r3, [r2, #8]
 8001a58:	079b      	lsls	r3, r3, #30
 8001a5a:	d50e      	bpl.n	8001a7a <HAL_SPI_TransmitReceive+0x184>
 8001a5c:	8ee3      	ldrh	r3, [r4, #54]	; 0x36
 8001a5e:	b29b      	uxth	r3, r3
 8001a60:	b15b      	cbz	r3, 8001a7a <HAL_SPI_TransmitReceive+0x184>
 8001a62:	b155      	cbz	r5, 8001a7a <HAL_SPI_TransmitReceive+0x184>
        txallowed = 0U;
 8001a64:	2500      	movs	r5, #0
        *(__IO uint8_t *)&hspi->Instance->DR = *((const uint8_t *)hspi->pTxBuffPtr);
 8001a66:	6b23      	ldr	r3, [r4, #48]	; 0x30
 8001a68:	781b      	ldrb	r3, [r3, #0]
 8001a6a:	7313      	strb	r3, [r2, #12]
        hspi->pTxBuffPtr++;
 8001a6c:	6b23      	ldr	r3, [r4, #48]	; 0x30
 8001a6e:	3301      	adds	r3, #1
 8001a70:	6323      	str	r3, [r4, #48]	; 0x30
        hspi->TxXferCount--;
 8001a72:	8ee3      	ldrh	r3, [r4, #54]	; 0x36
 8001a74:	3b01      	subs	r3, #1
 8001a76:	b29b      	uxth	r3, r3
 8001a78:	86e3      	strh	r3, [r4, #54]	; 0x36
      if ((__HAL_SPI_GET_FLAG(hspi, SPI_FLAG_RXNE)) && (hspi->RxXferCount > 0U))
 8001a7a:	6822      	ldr	r2, [r4, #0]
 8001a7c:	6891      	ldr	r1, [r2, #8]
 8001a7e:	f011 0101 	ands.w	r1, r1, #1
 8001a82:	d00d      	beq.n	8001aa0 <HAL_SPI_TransmitReceive+0x1aa>
 8001a84:	8fe3      	ldrh	r3, [r4, #62]	; 0x3e
 8001a86:	b29b      	uxth	r3, r3
 8001a88:	b153      	cbz	r3, 8001aa0 <HAL_SPI_TransmitReceive+0x1aa>
        txallowed = 1U;
 8001a8a:	460d      	mov	r5, r1
        (*(uint8_t *)hspi->pRxBuffPtr) = hspi->Instance->DR;
 8001a8c:	68d2      	ldr	r2, [r2, #12]
 8001a8e:	6ba3      	ldr	r3, [r4, #56]	; 0x38
 8001a90:	701a      	strb	r2, [r3, #0]
        hspi->pRxBuffPtr++;
 8001a92:	6ba3      	ldr	r3, [r4, #56]	; 0x38
 8001a94:	3301      	adds	r3, #1
 8001a96:	63a3      	str	r3, [r4, #56]	; 0x38
        hspi->RxXferCount--;
 8001a98:	8fe3      	ldrh	r3, [r4, #62]	; 0x3e
 8001a9a:	3b01      	subs	r3, #1
 8001a9c:	b29b      	uxth	r3, r3
 8001a9e:	87e3      	strh	r3, [r4, #62]	; 0x3e
      if ((((HAL_GetTick() - tickstart) >=  Timeout) && ((Timeout != HAL_MAX_DELAY))) || (Timeout == 0U))
 8001aa0:	f7fe ffa6 	bl	80009f0 <HAL_GetTick>
 8001aa4:	1bc0      	subs	r0, r0, r7
 8001aa6:	4540      	cmp	r0, r8
 8001aa8:	d302      	bcc.n	8001ab0 <HAL_SPI_TransmitReceive+0x1ba>
 8001aaa:	f1b8 3fff 	cmp.w	r8, #4294967295
 8001aae:	d1b9      	bne.n	8001a24 <HAL_SPI_TransmitReceive+0x12e>
    while ((hspi->TxXferCount > 0U) || (hspi->RxXferCount > 0U))
 8001ab0:	8ee3      	ldrh	r3, [r4, #54]	; 0x36
 8001ab2:	b29b      	uxth	r3, r3
 8001ab4:	2b00      	cmp	r3, #0
 8001ab6:	d1cd      	bne.n	8001a54 <HAL_SPI_TransmitReceive+0x15e>
 8001ab8:	8fe3      	ldrh	r3, [r4, #62]	; 0x3e
 8001aba:	b29b      	uxth	r3, r3
 8001abc:	2b00      	cmp	r3, #0
 8001abe:	d1c9      	bne.n	8001a54 <HAL_SPI_TransmitReceive+0x15e>
 8001ac0:	e776      	b.n	80019b0 <HAL_SPI_TransmitReceive+0xba>
  if (hspi->Init.Direction == SPI_DIRECTION_2LINES)
 8001ac2:	68a3      	ldr	r3, [r4, #8]
 8001ac4:	b933      	cbnz	r3, 8001ad4 <HAL_SPI_TransmitReceive+0x1de>
    __HAL_SPI_CLEAR_OVRFLAG(hspi);
 8001ac6:	9301      	str	r3, [sp, #4]
 8001ac8:	6823      	ldr	r3, [r4, #0]
 8001aca:	68da      	ldr	r2, [r3, #12]
 8001acc:	9201      	str	r2, [sp, #4]
 8001ace:	689b      	ldr	r3, [r3, #8]
 8001ad0:	9301      	str	r3, [sp, #4]
 8001ad2:	9b01      	ldr	r3, [sp, #4]
  hspi->State = HAL_SPI_STATE_READY;
 8001ad4:	2301      	movs	r3, #1
 8001ad6:	f884 3051 	strb.w	r3, [r4, #81]	; 0x51
  __HAL_UNLOCK(hspi);
 8001ada:	2300      	movs	r3, #0
  if (hspi->ErrorCode != HAL_SPI_ERROR_NONE)
 8001adc:	6d60      	ldr	r0, [r4, #84]	; 0x54
  __HAL_UNLOCK(hspi);
 8001ade:	f884 3050 	strb.w	r3, [r4, #80]	; 0x50
    return HAL_BUSY;
 8001ae2:	1ac0      	subs	r0, r0, r3
 8001ae4:	bf18      	it	ne
 8001ae6:	2001      	movne	r0, #1
 8001ae8:	e7a3      	b.n	8001a32 <HAL_SPI_TransmitReceive+0x13c>
 8001aea:	2002      	movs	r0, #2
 8001aec:	e7a1      	b.n	8001a32 <HAL_SPI_TransmitReceive+0x13c>

08001aee <HAL_TIM_PeriodElapsedCallback>:
 8001aee:	4770      	bx	lr

08001af0 <HAL_TIM_OC_DelayElapsedCallback>:
 8001af0:	4770      	bx	lr

08001af2 <HAL_TIM_IC_CaptureCallback>:
 8001af2:	4770      	bx	lr

08001af4 <HAL_TIM_PWM_PulseFinishedCallback>:
 8001af4:	4770      	bx	lr

08001af6 <HAL_TIM_TriggerCallback>:
 8001af6:	4770      	bx	lr

08001af8 <HAL_TIM_IRQHandler>:
  * @param  htim TIM  handle
  * @retval None
  */
void HAL_TIM_IRQHandler(TIM_HandleTypeDef *htim)
{
  uint32_t itsource = htim->Instance->DIER;
 8001af8:	6803      	ldr	r3, [r0, #0]
{
 8001afa:	b570      	push	{r4, r5, r6, lr}
  uint32_t itsource = htim->Instance->DIER;
 8001afc:	68dd      	ldr	r5, [r3, #12]
  uint32_t itflag   = htim->Instance->SR;
 8001afe:	691e      	ldr	r6, [r3, #16]
{
 8001b00:	4604      	mov	r4, r0

  /* Capture compare 1 event */
  if ((itflag & (TIM_FLAG_CC1)) == (TIM_FLAG_CC1))
 8001b02:	07b1      	lsls	r1, r6, #30
 8001b04:	d50d      	bpl.n	8001b22 <HAL_TIM_IRQHandler+0x2a>
  {
    if ((itsource & (TIM_IT_CC1)) == (TIM_IT_CC1))
 8001b06:	07aa      	lsls	r2, r5, #30
 8001b08:	d50b      	bpl.n	8001b22 <HAL_TIM_IRQHandler+0x2a>
    {
      {
        __HAL_TIM_CLEAR_FLAG(htim, TIM_FLAG_CC1);
 8001b0a:	f06f 0202 	mvn.w	r2, #2
 8001b0e:	611a      	str	r2, [r3, #16]
        htim->Channel = HAL_TIM_ACTIVE_CHANNEL_1;
 8001b10:	2201      	movs	r2, #1
 8001b12:	7702      	strb	r2, [r0, #28]

        /* Input capture event */
        if ((htim->Instance->CCMR1 & TIM_CCMR1_CC1S) != 0x00U)
 8001b14:	699b      	ldr	r3, [r3, #24]
 8001b16:	079b      	lsls	r3, r3, #30
 8001b18:	d069      	beq.n	8001bee <HAL_TIM_IRQHandler+0xf6>
        {
#if (USE_HAL_TIM_REGISTER_CALLBACKS == 1)
          htim->IC_CaptureCallback(htim);
#else
          HAL_TIM_IC_CaptureCallback(htim);
 8001b1a:	f7ff ffea 	bl	8001af2 <HAL_TIM_IC_CaptureCallback>
#else
          HAL_TIM_OC_DelayElapsedCallback(htim);
          HAL_TIM_PWM_PulseFinishedCallback(htim);
#endif /* USE_HAL_TIM_REGISTER_CALLBACKS */
        }
        htim->Channel = HAL_TIM_ACTIVE_CHANNEL_CLEARED;
 8001b1e:	2300      	movs	r3, #0
 8001b20:	7723      	strb	r3, [r4, #28]
      }
    }
  }
  /* Capture compare 2 event */
  if ((itflag & (TIM_FLAG_CC2)) == (TIM_FLAG_CC2))
 8001b22:	0771      	lsls	r1, r6, #29
 8001b24:	d510      	bpl.n	8001b48 <HAL_TIM_IRQHandler+0x50>
  {
    if ((itsource & (TIM_IT_CC2)) == (TIM_IT_CC2))
 8001b26:	076a      	lsls	r2, r5, #29
 8001b28:	d50e      	bpl.n	8001b48 <HAL_TIM_IRQHandler+0x50>
    {
      __HAL_TIM_CLEAR_FLAG(htim, TIM_FLAG_CC2);
 8001b2a:	f06f 0204 	mvn.w	r2, #4
 8001b2e:	6823      	ldr	r3, [r4, #0]
      if ((htim->Instance->CCMR1 & TIM_CCMR1_CC2S) != 0x00U)
      {
#if (USE_HAL_TIM_REGISTER_CALLBACKS == 1)
        htim->IC_CaptureCallback(htim);
#else
        HAL_TIM_IC_CaptureCallback(htim);
 8001b30:	4620      	mov	r0, r4
      __HAL_TIM_CLEAR_FLAG(htim, TIM_FLAG_CC2);
 8001b32:	611a      	str	r2, [r3, #16]
      htim->Channel = HAL_TIM_ACTIVE_CHANNEL_2;
 8001b34:	2202      	movs	r2, #2
 8001b36:	7722      	strb	r2, [r4, #28]
      if ((htim->Instance->CCMR1 & TIM_CCMR1_CC2S) != 0x00U)
 8001b38:	699b      	ldr	r3, [r3, #24]
 8001b3a:	f413 7f40 	tst.w	r3, #768	; 0x300
 8001b3e:	d05c      	beq.n	8001bfa <HAL_TIM_IRQHandler+0x102>
        HAL_TIM_IC_CaptureCallback(htim);
 8001b40:	f7ff ffd7 	bl	8001af2 <HAL_TIM_IC_CaptureCallback>
#else
        HAL_TIM_OC_DelayElapsedCallback(htim);
        HAL_TIM_PWM_PulseFinishedCallback(htim);
#endif /* USE_HAL_TIM_REGISTER_CALLBACKS */
      }
      htim->Channel = HAL_TIM_ACTIVE_CHANNEL_CLEARED;
 8001b44:	2300      	movs	r3, #0
 8001b46:	7723      	strb	r3, [r4, #28]
    }
  }
  /* Capture compare 3 event */
  if ((itflag & (TIM_FLAG_CC3)) == (TIM_FLAG_CC3))
 8001b48:	0733      	lsls	r3, r6, #28
 8001b4a:	d50f      	bpl.n	8001b6c <HAL_TIM_IRQHandler+0x74>
  {
    if ((itsource & (TIM_IT_CC3)) == (TIM_IT_CC3))
 8001b4c:	0728      	lsls	r0, r5, #28
 8001b4e:	d50d      	bpl.n	8001b6c <HAL_TIM_IRQHandler+0x74>
    {
      __HAL_TIM_CLEAR_FLAG(htim, TIM_FLAG_CC3);
 8001b50:	f06f 0208 	mvn.w	r2, #8
 8001b54:	6823      	ldr	r3, [r4, #0]
      if ((htim->Instance->CCMR2 & TIM_CCMR2_CC3S) != 0x00U)
      {
#if (USE_HAL_TIM_REGISTER_CALLBACKS == 1)
        htim->IC_CaptureCallback(htim);
#else
        HAL_TIM_IC_CaptureCallback(htim);
 8001b56:	4620      	mov	r0, r4
      __HAL_TIM_CLEAR_FLAG(htim, TIM_FLAG_CC3);
 8001b58:	611a      	str	r2, [r3, #16]
      htim->Channel = HAL_TIM_ACTIVE_CHANNEL_3;
 8001b5a:	2204      	movs	r2, #4
 8001b5c:	7722      	strb	r2, [r4, #28]
      if ((htim->Instance->CCMR2 & TIM_CCMR2_CC3S) != 0x00U)
 8001b5e:	69db      	ldr	r3, [r3, #28]
 8001b60:	0799      	lsls	r1, r3, #30
 8001b62:	d050      	beq.n	8001c06 <HAL_TIM_IRQHandler+0x10e>
        HAL_TIM_IC_CaptureCallback(htim);
 8001b64:	f7ff ffc5 	bl	8001af2 <HAL_TIM_IC_CaptureCallback>
#else
        HAL_TIM_OC_DelayElapsedCallback(htim);
        HAL_TIM_PWM_PulseFinishedCallback(htim);
#endif /* USE_HAL_TIM_REGISTER_CALLBACKS */
      }
      htim->Channel = HAL_TIM_ACTIVE_CHANNEL_CLEARED;
 8001b68:	2300      	movs	r3, #0
 8001b6a:	7723      	strb	r3, [r4, #28]
    }
  }
  /* Capture compare 4 event */
  if ((itflag & (TIM_FLAG_CC4)) == (TIM_FLAG_CC4))
 8001b6c:	06f2      	lsls	r2, r6, #27
 8001b6e:	d510      	bpl.n	8001b92 <HAL_TIM_IRQHandler+0x9a>
  {
    if ((itsource & (TIM_IT_CC4)) == (TIM_IT_CC4))
 8001b70:	06eb      	lsls	r3, r5, #27
 8001b72:	d50e      	bpl.n	8001b92 <HAL_TIM_IRQHandler+0x9a>
    {
      __HAL_TIM_CLEAR_FLAG(htim, TIM_FLAG_CC4);
 8001b74:	f06f 0210 	mvn.w	r2, #16
 8001b78:	6823      	ldr	r3, [r4, #0]
      if ((htim->Instance->CCMR2 & TIM_CCMR2_CC4S) != 0x00U)
      {
#if (USE_HAL_TIM_REGISTER_CALLBACKS == 1)
        htim->IC_CaptureCallback(htim);
#else
        HAL_TIM_IC_CaptureCallback(htim);
 8001b7a:	4620      	mov	r0, r4
      __HAL_TIM_CLEAR_FLAG(htim, TIM_FLAG_CC4);
 8001b7c:	611a      	str	r2, [r3, #16]
      htim->Channel = HAL_TIM_ACTIVE_CHANNEL_4;
 8001b7e:	2208      	movs	r2, #8
 8001b80:	7722      	strb	r2, [r4, #28]
      if ((htim->Instance->CCMR2 & TIM_CCMR2_CC4S) != 0x00U)
 8001b82:	69db      	ldr	r3, [r3, #28]
 8001b84:	f413 7f40 	tst.w	r3, #768	; 0x300
 8001b88:	d043      	beq.n	8001c12 <HAL_TIM_IRQHandler+0x11a>
        HAL_TIM_IC_CaptureCallback(htim);
 8001b8a:	f7ff ffb2 	bl	8001af2 <HAL_TIM_IC_CaptureCallback>
#else
        HAL_TIM_OC_DelayElapsedCallback(htim);
        HAL_TIM_PWM_PulseFinishedCallback(htim);
#endif /* USE_HAL_TIM_REGISTER_CALLBACKS */
      }
      htim->Channel = HAL_TIM_ACTIVE_CHANNEL_CLEARED;
 8001b8e:	2300      	movs	r3, #0
 8001b90:	7723      	strb	r3, [r4, #28]
    }
  }
  /* TIM Update event */
  if ((itflag & (TIM_FLAG_UPDATE)) == (TIM_FLAG_UPDATE))
 8001b92:	07f0      	lsls	r0, r6, #31
 8001b94:	d508      	bpl.n	8001ba8 <HAL_TIM_IRQHandler+0xb0>
  {
    if ((itsource & (TIM_IT_UPDATE)) == (TIM_IT_UPDATE))
 8001b96:	07e9      	lsls	r1, r5, #31
 8001b98:	d506      	bpl.n	8001ba8 <HAL_TIM_IRQHandler+0xb0>
    {
      __HAL_TIM_CLEAR_FLAG(htim, TIM_FLAG_UPDATE);
 8001b9a:	f06f 0201 	mvn.w	r2, #1
 8001b9e:	6823      	ldr	r3, [r4, #0]
#if (USE_HAL_TIM_REGISTER_CALLBACKS == 1)
      htim->PeriodElapsedCallback(htim);
#else
      HAL_TIM_PeriodElapsedCallback(htim);
 8001ba0:	4620      	mov	r0, r4
      __HAL_TIM_CLEAR_FLAG(htim, TIM_FLAG_UPDATE);
 8001ba2:	611a      	str	r2, [r3, #16]
      HAL_TIM_PeriodElapsedCallback(htim);
 8001ba4:	f7ff ffa3 	bl	8001aee <HAL_TIM_PeriodElapsedCallback>
#endif /* USE_HAL_TIM_REGISTER_CALLBACKS */
    }
  }
  /* TIM Break input event */
  if ((itflag & (TIM_FLAG_BREAK)) == (TIM_FLAG_BREAK))
 8001ba8:	0632      	lsls	r2, r6, #24
 8001baa:	d508      	bpl.n	8001bbe <HAL_TIM_IRQHandler+0xc6>
  {
    if ((itsource & (TIM_IT_BREAK)) == (TIM_IT_BREAK))
 8001bac:	062b      	lsls	r3, r5, #24
 8001bae:	d506      	bpl.n	8001bbe <HAL_TIM_IRQHandler+0xc6>
    {
      __HAL_TIM_CLEAR_FLAG(htim, TIM_FLAG_BREAK);
 8001bb0:	f06f 0280 	mvn.w	r2, #128	; 0x80
 8001bb4:	6823      	ldr	r3, [r4, #0]
#if (USE_HAL_TIM_REGISTER_CALLBACKS == 1)
      htim->BreakCallback(htim);
#else
      HAL_TIMEx_BreakCallback(htim);
 8001bb6:	4620      	mov	r0, r4
      __HAL_TIM_CLEAR_FLAG(htim, TIM_FLAG_BREAK);
 8001bb8:	611a      	str	r2, [r3, #16]
      HAL_TIMEx_BreakCallback(htim);
 8001bba:	f000 f9c8 	bl	8001f4e <HAL_TIMEx_BreakCallback>
#endif /* USE_HAL_TIM_REGISTER_CALLBACKS */
    }
  }
  /* TIM Trigger detection event */
  if ((itflag & (TIM_FLAG_TRIGGER)) == (TIM_FLAG_TRIGGER))
 8001bbe:	0670      	lsls	r0, r6, #25
 8001bc0:	d508      	bpl.n	8001bd4 <HAL_TIM_IRQHandler+0xdc>
  {
    if ((itsource & (TIM_IT_TRIGGER)) == (TIM_IT_TRIGGER))
 8001bc2:	0669      	lsls	r1, r5, #25
 8001bc4:	d506      	bpl.n	8001bd4 <HAL_TIM_IRQHandler+0xdc>
    {
      __HAL_TIM_CLEAR_FLAG(htim, TIM_FLAG_TRIGGER);
 8001bc6:	f06f 0240 	mvn.w	r2, #64	; 0x40
 8001bca:	6823      	ldr	r3, [r4, #0]
#if (USE_HAL_TIM_REGISTER_CALLBACKS == 1)
      htim->TriggerCallback(htim);
#else
      HAL_TIM_TriggerCallback(htim);
 8001bcc:	4620      	mov	r0, r4
      __HAL_TIM_CLEAR_FLAG(htim, TIM_FLAG_TRIGGER);
 8001bce:	611a      	str	r2, [r3, #16]
      HAL_TIM_TriggerCallback(htim);
 8001bd0:	f7ff ff91 	bl	8001af6 <HAL_TIM_TriggerCallback>
#endif /* USE_HAL_TIM_REGISTER_CALLBACKS */
    }
  }
  /* TIM commutation event */
  if ((itflag & (TIM_FLAG_COM)) == (TIM_FLAG_COM))
 8001bd4:	06b2      	lsls	r2, r6, #26
 8001bd6:	d522      	bpl.n	8001c1e <HAL_TIM_IRQHandler+0x126>
  {
    if ((itsource & (TIM_IT_COM)) == (TIM_IT_COM))
 8001bd8:	06ab      	lsls	r3, r5, #26
 8001bda:	d520      	bpl.n	8001c1e <HAL_TIM_IRQHandler+0x126>
    {
      __HAL_TIM_CLEAR_FLAG(htim, TIM_FLAG_COM);
 8001bdc:	f06f 0220 	mvn.w	r2, #32
 8001be0:	6823      	ldr	r3, [r4, #0]
#if (USE_HAL_TIM_REGISTER_CALLBACKS == 1)
      htim->CommutationCallback(htim);
#else
      HAL_TIMEx_CommutCallback(htim);
 8001be2:	4620      	mov	r0, r4
#endif /* USE_HAL_TIM_REGISTER_CALLBACKS */
    }
  }
}
 8001be4:	e8bd 4070 	ldmia.w	sp!, {r4, r5, r6, lr}
      __HAL_TIM_CLEAR_FLAG(htim, TIM_FLAG_COM);
 8001be8:	611a      	str	r2, [r3, #16]
      HAL_TIMEx_CommutCallback(htim);
 8001bea:	f000 b9af 	b.w	8001f4c <HAL_TIMEx_CommutCallback>
          HAL_TIM_OC_DelayElapsedCallback(htim);
 8001bee:	f7ff ff7f 	bl	8001af0 <HAL_TIM_OC_DelayElapsedCallback>
          HAL_TIM_PWM_PulseFinishedCallback(htim);
 8001bf2:	4620      	mov	r0, r4
 8001bf4:	f7ff ff7e 	bl	8001af4 <HAL_TIM_PWM_PulseFinishedCallback>
 8001bf8:	e791      	b.n	8001b1e <HAL_TIM_IRQHandler+0x26>
        HAL_TIM_OC_DelayElapsedCallback(htim);
 8001bfa:	f7ff ff79 	bl	8001af0 <HAL_TIM_OC_DelayElapsedCallback>
        HAL_TIM_PWM_PulseFinishedCallback(htim);
 8001bfe:	4620      	mov	r0, r4
 8001c00:	f7ff ff78 	bl	8001af4 <HAL_TIM_PWM_PulseFinishedCallback>
 8001c04:	e79e      	b.n	8001b44 <HAL_TIM_IRQHandler+0x4c>
        HAL_TIM_OC_DelayElapsedCallback(htim);
 8001c06:	f7ff ff73 	bl	8001af0 <HAL_TIM_OC_DelayElapsedCallback>
        HAL_TIM_PWM_PulseFinishedCallback(htim);
 8001c0a:	4620      	mov	r0, r4
 8001c0c:	f7ff ff72 	bl	8001af4 <HAL_TIM_PWM_PulseFinishedCallback>
 8001c10:	e7aa      	b.n	8001b68 <HAL_TIM_IRQHandler+0x70>
        HAL_TIM_OC_DelayElapsedCallback(htim);
 8001c12:	f7ff ff6d 	bl	8001af0 <HAL_TIM_OC_DelayElapsedCallback>
        HAL_TIM_PWM_PulseFinishedCallback(htim);
 8001c16:	4620      	mov	r0, r4
 8001c18:	f7ff ff6c 	bl	8001af4 <HAL_TIM_PWM_PulseFinishedCallback>
 8001c1c:	e7b7      	b.n	8001b8e <HAL_TIM_IRQHandler+0x96>
}
 8001c1e:	bd70      	pop	{r4, r5, r6, pc}

08001c20 <TIM_Base_SetConfig>:
{
  uint32_t tmpcr1;
  tmpcr1 = TIMx->CR1;

  /* Set TIM Time Base Unit parameters ---------------------------------------*/
  if (IS_TIM_COUNTER_MODE_SELECT_INSTANCE(TIMx))
 8001c20:	4a1e      	ldr	r2, [pc, #120]	; (8001c9c <TIM_Base_SetConfig+0x7c>)
  tmpcr1 = TIMx->CR1;
 8001c22:	6803      	ldr	r3, [r0, #0]
  if (IS_TIM_COUNTER_MODE_SELECT_INSTANCE(TIMx))
 8001c24:	4290      	cmp	r0, r2
 8001c26:	d00a      	beq.n	8001c3e <TIM_Base_SetConfig+0x1e>
 8001c28:	f1b0 4f80 	cmp.w	r0, #1073741824	; 0x40000000
 8001c2c:	d007      	beq.n	8001c3e <TIM_Base_SetConfig+0x1e>
 8001c2e:	f5a2 3294 	sub.w	r2, r2, #75776	; 0x12800
 8001c32:	4290      	cmp	r0, r2
 8001c34:	d003      	beq.n	8001c3e <TIM_Base_SetConfig+0x1e>
 8001c36:	f502 6280 	add.w	r2, r2, #1024	; 0x400
 8001c3a:	4290      	cmp	r0, r2
 8001c3c:	d115      	bne.n	8001c6a <TIM_Base_SetConfig+0x4a>
  {
    /* Select the Counter Mode */
    tmpcr1 &= ~(TIM_CR1_DIR | TIM_CR1_CMS);
    tmpcr1 |= Structure->CounterMode;
 8001c3e:	684a      	ldr	r2, [r1, #4]
    tmpcr1 &= ~(TIM_CR1_DIR | TIM_CR1_CMS);
 8001c40:	f023 0370 	bic.w	r3, r3, #112	; 0x70
    tmpcr1 |= Structure->CounterMode;
 8001c44:	4313      	orrs	r3, r2
  }

  if (IS_TIM_CLOCK_DIVISION_INSTANCE(TIMx))
 8001c46:	4a15      	ldr	r2, [pc, #84]	; (8001c9c <TIM_Base_SetConfig+0x7c>)
 8001c48:	4290      	cmp	r0, r2
 8001c4a:	d00a      	beq.n	8001c62 <TIM_Base_SetConfig+0x42>
 8001c4c:	f1b0 4f80 	cmp.w	r0, #1073741824	; 0x40000000
 8001c50:	d007      	beq.n	8001c62 <TIM_Base_SetConfig+0x42>
 8001c52:	f5a2 3294 	sub.w	r2, r2, #75776	; 0x12800
 8001c56:	4290      	cmp	r0, r2
 8001c58:	d003      	beq.n	8001c62 <TIM_Base_SetConfig+0x42>
 8001c5a:	f502 6280 	add.w	r2, r2, #1024	; 0x400
 8001c5e:	4290      	cmp	r0, r2
 8001c60:	d103      	bne.n	8001c6a <TIM_Base_SetConfig+0x4a>
  {
    /* Set the clock division */
    tmpcr1 &= ~TIM_CR1_CKD;
    tmpcr1 |= (uint32_t)Structure->ClockDivision;
 8001c62:	68ca      	ldr	r2, [r1, #12]
    tmpcr1 &= ~TIM_CR1_CKD;
 8001c64:	f423 7340 	bic.w	r3, r3, #768	; 0x300
    tmpcr1 |= (uint32_t)Structure->ClockDivision;
 8001c68:	4313      	orrs	r3, r2
  }

  /* Set the auto-reload preload */
  MODIFY_REG(tmpcr1, TIM_CR1_ARPE, Structure->AutoReloadPreload);
 8001c6a:	694a      	ldr	r2, [r1, #20]
 8001c6c:	f023 0380 	bic.w	r3, r3, #128	; 0x80
 8001c70:	4313      	orrs	r3, r2

  TIMx->CR1 = tmpcr1;
 8001c72:	6003      	str	r3, [r0, #0]

  /* Set the Autoreload value */
  TIMx->ARR = (uint32_t)Structure->Period ;
 8001c74:	688b      	ldr	r3, [r1, #8]
 8001c76:	62c3      	str	r3, [r0, #44]	; 0x2c

  /* Set the Prescaler value */
  TIMx->PSC = Structure->Prescaler;
 8001c78:	680b      	ldr	r3, [r1, #0]
 8001c7a:	6283      	str	r3, [r0, #40]	; 0x28

  if (IS_TIM_REPETITION_COUNTER_INSTANCE(TIMx))
 8001c7c:	4b07      	ldr	r3, [pc, #28]	; (8001c9c <TIM_Base_SetConfig+0x7c>)
 8001c7e:	4298      	cmp	r0, r3
  {
    /* Set the Repetition Counter value */
    TIMx->RCR = Structure->RepetitionCounter;
 8001c80:	bf04      	itt	eq
 8001c82:	690b      	ldreq	r3, [r1, #16]
 8001c84:	6303      	streq	r3, [r0, #48]	; 0x30
  }

  /* Generate an update event to reload the Prescaler
     and the repetition counter (only for advanced timer) value immediately */
  TIMx->EGR = TIM_EGR_UG;
 8001c86:	2301      	movs	r3, #1
 8001c88:	6143      	str	r3, [r0, #20]

  /* Check if the update flag is set after the Update Generation, if so clear the UIF flag */
  if (HAL_IS_BIT_SET(TIMx->SR, TIM_FLAG_UPDATE))
 8001c8a:	6903      	ldr	r3, [r0, #16]
 8001c8c:	07db      	lsls	r3, r3, #31
  {
    /* Clear the update flag */
    CLEAR_BIT(TIMx->SR, TIM_FLAG_UPDATE);
 8001c8e:	bf42      	ittt	mi
 8001c90:	6903      	ldrmi	r3, [r0, #16]
 8001c92:	f023 0301 	bicmi.w	r3, r3, #1
 8001c96:	6103      	strmi	r3, [r0, #16]
  }
}
 8001c98:	4770      	bx	lr
 8001c9a:	bf00      	nop
 8001c9c:	40012c00 	.word	0x40012c00

08001ca0 <HAL_TIM_Base_Init>:
{
 8001ca0:	b510      	push	{r4, lr}
  if (htim == NULL)
 8001ca2:	4604      	mov	r4, r0
 8001ca4:	b330      	cbz	r0, 8001cf4 <HAL_TIM_Base_Init+0x54>
  if (htim->State == HAL_TIM_STATE_RESET)
 8001ca6:	f890 303d 	ldrb.w	r3, [r0, #61]	; 0x3d
 8001caa:	f003 02ff 	and.w	r2, r3, #255	; 0xff
 8001cae:	b91b      	cbnz	r3, 8001cb8 <HAL_TIM_Base_Init+0x18>
    htim->Lock = HAL_UNLOCKED;
 8001cb0:	f880 203c 	strb.w	r2, [r0, #60]	; 0x3c
    HAL_TIM_Base_MspInit(htim);
 8001cb4:	f7fe fd56 	bl	8000764 <HAL_TIM_Base_MspInit>
  htim->State = HAL_TIM_STATE_BUSY;
 8001cb8:	2302      	movs	r3, #2
  TIM_Base_SetConfig(htim->Instance, &htim->Init);
 8001cba:	6820      	ldr	r0, [r4, #0]
  htim->State = HAL_TIM_STATE_BUSY;
 8001cbc:	f884 303d 	strb.w	r3, [r4, #61]	; 0x3d
  TIM_Base_SetConfig(htim->Instance, &htim->Init);
 8001cc0:	1d21      	adds	r1, r4, #4
 8001cc2:	f7ff ffad 	bl	8001c20 <TIM_Base_SetConfig>
  htim->DMABurstState = HAL_DMA_BURST_STATE_READY;
 8001cc6:	2301      	movs	r3, #1
  return HAL_OK;
 8001cc8:	2000      	movs	r0, #0
  htim->DMABurstState = HAL_DMA_BURST_STATE_READY;
 8001cca:	f884 3046 	strb.w	r3, [r4, #70]	; 0x46
  TIM_CHANNEL_STATE_SET_ALL(htim, HAL_TIM_CHANNEL_STATE_READY);
 8001cce:	f884 303e 	strb.w	r3, [r4, #62]	; 0x3e
 8001cd2:	f884 303f 	strb.w	r3, [r4, #63]	; 0x3f
 8001cd6:	f884 3040 	strb.w	r3, [r4, #64]	; 0x40
 8001cda:	f884 3041 	strb.w	r3, [r4, #65]	; 0x41
  TIM_CHANNEL_N_STATE_SET_ALL(htim, HAL_TIM_CHANNEL_STATE_READY);
 8001cde:	f884 3042 	strb.w	r3, [r4, #66]	; 0x42
 8001ce2:	f884 3043 	strb.w	r3, [r4, #67]	; 0x43
 8001ce6:	f884 3044 	strb.w	r3, [r4, #68]	; 0x44
 8001cea:	f884 3045 	strb.w	r3, [r4, #69]	; 0x45
  htim->State = HAL_TIM_STATE_READY;
 8001cee:	f884 303d 	strb.w	r3, [r4, #61]	; 0x3d
}
 8001cf2:	bd10      	pop	{r4, pc}
    return HAL_ERROR;
 8001cf4:	2001      	movs	r0, #1
 8001cf6:	e7fc      	b.n	8001cf2 <HAL_TIM_Base_Init+0x52>

08001cf8 <HAL_TIM_Encoder_Init>:
{
 8001cf8:	b5f8      	push	{r3, r4, r5, r6, r7, lr}
 8001cfa:	460d      	mov	r5, r1
  if (htim == NULL)
 8001cfc:	4604      	mov	r4, r0
 8001cfe:	2800      	cmp	r0, #0
 8001d00:	d04d      	beq.n	8001d9e <HAL_TIM_Encoder_Init+0xa6>
  if (htim->State == HAL_TIM_STATE_RESET)
 8001d02:	f890 303d 	ldrb.w	r3, [r0, #61]	; 0x3d
 8001d06:	f003 02ff 	and.w	r2, r3, #255	; 0xff
 8001d0a:	b91b      	cbnz	r3, 8001d14 <HAL_TIM_Encoder_Init+0x1c>
    htim->Lock = HAL_UNLOCKED;
 8001d0c:	f880 203c 	strb.w	r2, [r0, #60]	; 0x3c
    HAL_TIM_Encoder_MspInit(htim);
 8001d10:	f7fe fd46 	bl	80007a0 <HAL_TIM_Encoder_MspInit>
  htim->State = HAL_TIM_STATE_BUSY;
 8001d14:	2302      	movs	r3, #2
  htim->Instance->SMCR &= ~(TIM_SMCR_SMS | TIM_SMCR_ECE);
 8001d16:	4621      	mov	r1, r4
  htim->State = HAL_TIM_STATE_BUSY;
 8001d18:	f884 303d 	strb.w	r3, [r4, #61]	; 0x3d
  htim->Instance->SMCR &= ~(TIM_SMCR_SMS | TIM_SMCR_ECE);
 8001d1c:	f851 0b04 	ldr.w	r0, [r1], #4
 8001d20:	6883      	ldr	r3, [r0, #8]
 8001d22:	f423 4380 	bic.w	r3, r3, #16384	; 0x4000
 8001d26:	f023 0307 	bic.w	r3, r3, #7
 8001d2a:	6083      	str	r3, [r0, #8]
  TIM_Base_SetConfig(htim->Instance, &htim->Init);
 8001d2c:	f7ff ff78 	bl	8001c20 <TIM_Base_SetConfig>
  tmpsmcr = htim->Instance->SMCR;
 8001d30:	6820      	ldr	r0, [r4, #0]
  tmpsmcr |= sConfig->EncoderMode;
 8001d32:	682b      	ldr	r3, [r5, #0]
  tmpsmcr = htim->Instance->SMCR;
 8001d34:	6886      	ldr	r6, [r0, #8]
  tmpccmr1 = htim->Instance->CCMR1;
 8001d36:	6982      	ldr	r2, [r0, #24]
  tmpccmr1 |= (sConfig->IC1Selection | (sConfig->IC2Selection << 8U));
 8001d38:	68a9      	ldr	r1, [r5, #8]
  tmpsmcr |= sConfig->EncoderMode;
 8001d3a:	431e      	orrs	r6, r3
  tmpccmr1 |= (sConfig->IC1Selection | (sConfig->IC2Selection << 8U));
 8001d3c:	69ab      	ldr	r3, [r5, #24]
  tmpccmr1 &= ~(TIM_CCMR1_CC1S | TIM_CCMR1_CC2S);
 8001d3e:	f422 7240 	bic.w	r2, r2, #768	; 0x300
 8001d42:	f022 0203 	bic.w	r2, r2, #3
  tmpccmr1 |= (sConfig->IC1Selection | (sConfig->IC2Selection << 8U));
 8001d46:	ea41 2303 	orr.w	r3, r1, r3, lsl #8
 8001d4a:	4313      	orrs	r3, r2
  tmpccmr1 &= ~(TIM_CCMR1_IC1F | TIM_CCMR1_IC2F);
 8001d4c:	f423 427c 	bic.w	r2, r3, #64512	; 0xfc00
  tmpccmr1 |= (sConfig->IC1Filter << 4U) | (sConfig->IC2Filter << 12U);
 8001d50:	692b      	ldr	r3, [r5, #16]
  tmpccmr1 |= sConfig->IC1Prescaler | (sConfig->IC2Prescaler << 8U);
 8001d52:	69e9      	ldr	r1, [r5, #28]
  tmpccmr1 |= (sConfig->IC1Filter << 4U) | (sConfig->IC2Filter << 12U);
 8001d54:	011b      	lsls	r3, r3, #4
 8001d56:	ea43 2301 	orr.w	r3, r3, r1, lsl #8
 8001d5a:	68e9      	ldr	r1, [r5, #12]
  tmpccer = htim->Instance->CCER;
 8001d5c:	6a07      	ldr	r7, [r0, #32]
  tmpccmr1 |= (sConfig->IC1Filter << 4U) | (sConfig->IC2Filter << 12U);
 8001d5e:	430b      	orrs	r3, r1
 8001d60:	6a29      	ldr	r1, [r5, #32]
  tmpccmr1 &= ~(TIM_CCMR1_IC1F | TIM_CCMR1_IC2F);
 8001d62:	f022 02fc 	bic.w	r2, r2, #252	; 0xfc
  tmpccmr1 |= (sConfig->IC1Filter << 4U) | (sConfig->IC2Filter << 12U);
 8001d66:	ea43 3301 	orr.w	r3, r3, r1, lsl #12
 8001d6a:	4313      	orrs	r3, r2
  tmpccer |= sConfig->IC1Polarity | (sConfig->IC2Polarity << 4U);
 8001d6c:	6969      	ldr	r1, [r5, #20]
  tmpccer &= ~(TIM_CCER_CC1P | TIM_CCER_CC2P);
 8001d6e:	f027 0222 	bic.w	r2, r7, #34	; 0x22
  tmpccer |= sConfig->IC1Polarity | (sConfig->IC2Polarity << 4U);
 8001d72:	686f      	ldr	r7, [r5, #4]
  htim->Instance->SMCR = tmpsmcr;
 8001d74:	6086      	str	r6, [r0, #8]
  tmpccer |= sConfig->IC1Polarity | (sConfig->IC2Polarity << 4U);
 8001d76:	ea47 1701 	orr.w	r7, r7, r1, lsl #4
  htim->Instance->CCMR1 = tmpccmr1;
 8001d7a:	6183      	str	r3, [r0, #24]
  tmpccer |= sConfig->IC1Polarity | (sConfig->IC2Polarity << 4U);
 8001d7c:	4317      	orrs	r7, r2
  htim->DMABurstState = HAL_DMA_BURST_STATE_READY;
 8001d7e:	2301      	movs	r3, #1
  htim->Instance->CCER = tmpccer;
 8001d80:	6207      	str	r7, [r0, #32]
  return HAL_OK;
 8001d82:	2000      	movs	r0, #0
  htim->DMABurstState = HAL_DMA_BURST_STATE_READY;
 8001d84:	f884 3046 	strb.w	r3, [r4, #70]	; 0x46
  TIM_CHANNEL_STATE_SET(htim, TIM_CHANNEL_1, HAL_TIM_CHANNEL_STATE_READY);
 8001d88:	f884 303e 	strb.w	r3, [r4, #62]	; 0x3e
  TIM_CHANNEL_STATE_SET(htim, TIM_CHANNEL_2, HAL_TIM_CHANNEL_STATE_READY);
 8001d8c:	f884 303f 	strb.w	r3, [r4, #63]	; 0x3f
  TIM_CHANNEL_N_STATE_SET(htim, TIM_CHANNEL_1, HAL_TIM_CHANNEL_STATE_READY);
 8001d90:	f884 3042 	strb.w	r3, [r4, #66]	; 0x42
  TIM_CHANNEL_N_STATE_SET(htim, TIM_CHANNEL_2, HAL_TIM_CHANNEL_STATE_READY);
 8001d94:	f884 3043 	strb.w	r3, [r4, #67]	; 0x43
  htim->State = HAL_TIM_STATE_READY;
 8001d98:	f884 303d 	strb.w	r3, [r4, #61]	; 0x3d
}
 8001d9c:	bdf8      	pop	{r3, r4, r5, r6, r7, pc}
    return HAL_ERROR;
 8001d9e:	2001      	movs	r0, #1
 8001da0:	e7fc      	b.n	8001d9c <HAL_TIM_Encoder_Init+0xa4>

08001da2 <TIM_ETR_SetConfig>:
  *          This parameter must be a value between 0x00 and 0x0F
  * @retval None
  */
void TIM_ETR_SetConfig(TIM_TypeDef *TIMx, uint32_t TIM_ExtTRGPrescaler,
                       uint32_t TIM_ExtTRGPolarity, uint32_t ExtTRGFilter)
{
 8001da2:	b510      	push	{r4, lr}
  uint32_t tmpsmcr;

  tmpsmcr = TIMx->SMCR;
 8001da4:	6884      	ldr	r4, [r0, #8]

  /* Reset the ETR Bits */
  tmpsmcr &= ~(TIM_SMCR_ETF | TIM_SMCR_ETPS | TIM_SMCR_ECE | TIM_SMCR_ETP);

  /* Set the Prescaler, the Filter value and the Polarity */
  tmpsmcr |= (uint32_t)(TIM_ExtTRGPrescaler | (TIM_ExtTRGPolarity | (ExtTRGFilter << 8U)));
 8001da6:	430a      	orrs	r2, r1
  tmpsmcr &= ~(TIM_SMCR_ETF | TIM_SMCR_ETPS | TIM_SMCR_ECE | TIM_SMCR_ETP);
 8001da8:	f424 447f 	bic.w	r4, r4, #65280	; 0xff00
  tmpsmcr |= (uint32_t)(TIM_ExtTRGPrescaler | (TIM_ExtTRGPolarity | (ExtTRGFilter << 8U)));
 8001dac:	ea42 2203 	orr.w	r2, r2, r3, lsl #8
 8001db0:	4322      	orrs	r2, r4

  /* Write to TIMx SMCR */
  TIMx->SMCR = tmpsmcr;
 8001db2:	6082      	str	r2, [r0, #8]
}
 8001db4:	bd10      	pop	{r4, pc}

08001db6 <HAL_TIM_ConfigClockSource>:
{
 8001db6:	b570      	push	{r4, r5, r6, lr}
  __HAL_LOCK(htim);
 8001db8:	f890 303c 	ldrb.w	r3, [r0, #60]	; 0x3c
{
 8001dbc:	4604      	mov	r4, r0
  __HAL_LOCK(htim);
 8001dbe:	2b01      	cmp	r3, #1
 8001dc0:	f04f 0302 	mov.w	r3, #2
 8001dc4:	f000 8091 	beq.w	8001eea <HAL_TIM_ConfigClockSource+0x134>
 8001dc8:	2201      	movs	r2, #1
  htim->State = HAL_TIM_STATE_BUSY;
 8001dca:	f880 303d 	strb.w	r3, [r0, #61]	; 0x3d
  __HAL_LOCK(htim);
 8001dce:	f880 203c 	strb.w	r2, [r0, #60]	; 0x3c
  tmpsmcr = htim->Instance->SMCR;
 8001dd2:	6800      	ldr	r0, [r0, #0]
 8001dd4:	6883      	ldr	r3, [r0, #8]
  tmpsmcr &= ~(TIM_SMCR_ETF | TIM_SMCR_ETPS | TIM_SMCR_ECE | TIM_SMCR_ETP);
 8001dd6:	f423 437f 	bic.w	r3, r3, #65280	; 0xff00
 8001dda:	f023 0377 	bic.w	r3, r3, #119	; 0x77
  htim->Instance->SMCR = tmpsmcr;
 8001dde:	6083      	str	r3, [r0, #8]
  switch (sClockSourceConfig->ClockSource)
 8001de0:	680b      	ldr	r3, [r1, #0]
 8001de2:	2b60      	cmp	r3, #96	; 0x60
 8001de4:	d052      	beq.n	8001e8c <HAL_TIM_ConfigClockSource+0xd6>
 8001de6:	d833      	bhi.n	8001e50 <HAL_TIM_ConfigClockSource+0x9a>
 8001de8:	2b40      	cmp	r3, #64	; 0x40
 8001dea:	d067      	beq.n	8001ebc <HAL_TIM_ConfigClockSource+0x106>
 8001dec:	d816      	bhi.n	8001e1c <HAL_TIM_ConfigClockSource+0x66>
 8001dee:	2b20      	cmp	r3, #32
 8001df0:	d00d      	beq.n	8001e0e <HAL_TIM_ConfigClockSource+0x58>
 8001df2:	d80a      	bhi.n	8001e0a <HAL_TIM_ConfigClockSource+0x54>
 8001df4:	f033 0110 	bics.w	r1, r3, #16
 8001df8:	d009      	beq.n	8001e0e <HAL_TIM_ConfigClockSource+0x58>
  htim->State = HAL_TIM_STATE_READY;
 8001dfa:	2301      	movs	r3, #1
 8001dfc:	f884 303d 	strb.w	r3, [r4, #61]	; 0x3d
  __HAL_UNLOCK(htim);
 8001e00:	2300      	movs	r3, #0
 8001e02:	f884 303c 	strb.w	r3, [r4, #60]	; 0x3c
}
 8001e06:	4610      	mov	r0, r2
 8001e08:	bd70      	pop	{r4, r5, r6, pc}
  switch (sClockSourceConfig->ClockSource)
 8001e0a:	2b30      	cmp	r3, #48	; 0x30
 8001e0c:	d1f5      	bne.n	8001dfa <HAL_TIM_ConfigClockSource+0x44>
  tmpsmcr = TIMx->SMCR;
 8001e0e:	6882      	ldr	r2, [r0, #8]
  tmpsmcr &= ~TIM_SMCR_TS;
 8001e10:	f022 0270 	bic.w	r2, r2, #112	; 0x70
  tmpsmcr |= (InputTriggerSource | TIM_SLAVEMODE_EXTERNAL1);
 8001e14:	4313      	orrs	r3, r2
 8001e16:	f043 0307 	orr.w	r3, r3, #7
 8001e1a:	e017      	b.n	8001e4c <HAL_TIM_ConfigClockSource+0x96>
  switch (sClockSourceConfig->ClockSource)
 8001e1c:	2b50      	cmp	r3, #80	; 0x50
 8001e1e:	d1ec      	bne.n	8001dfa <HAL_TIM_ConfigClockSource+0x44>
      TIM_TI1_ConfigInputStage(htim->Instance,
 8001e20:	684a      	ldr	r2, [r1, #4]
 8001e22:	68ce      	ldr	r6, [r1, #12]
  tmpccer = TIMx->CCER;
 8001e24:	6a01      	ldr	r1, [r0, #32]
  TIMx->CCER &= ~TIM_CCER_CC1E;
 8001e26:	6a05      	ldr	r5, [r0, #32]
  tmpccer &= ~(TIM_CCER_CC1P | TIM_CCER_CC1NP);
 8001e28:	f021 010a 	bic.w	r1, r1, #10
  TIMx->CCER &= ~TIM_CCER_CC1E;
 8001e2c:	f025 0501 	bic.w	r5, r5, #1
 8001e30:	6205      	str	r5, [r0, #32]
  tmpccmr1 = TIMx->CCMR1;
 8001e32:	6983      	ldr	r3, [r0, #24]
  tmpccer |= TIM_ICPolarity;
 8001e34:	430a      	orrs	r2, r1
  tmpccmr1 &= ~TIM_CCMR1_IC1F;
 8001e36:	f023 03f0 	bic.w	r3, r3, #240	; 0xf0
  tmpccmr1 |= (TIM_ICFilter << 4U);
 8001e3a:	ea43 1306 	orr.w	r3, r3, r6, lsl #4
  TIMx->CCMR1 = tmpccmr1;
 8001e3e:	6183      	str	r3, [r0, #24]
  TIMx->CCER = tmpccer;
 8001e40:	6202      	str	r2, [r0, #32]
  tmpsmcr = TIMx->SMCR;
 8001e42:	6883      	ldr	r3, [r0, #8]
  tmpsmcr &= ~TIM_SMCR_TS;
 8001e44:	f023 0370 	bic.w	r3, r3, #112	; 0x70
  tmpsmcr |= (InputTriggerSource | TIM_SLAVEMODE_EXTERNAL1);
 8001e48:	f043 0357 	orr.w	r3, r3, #87	; 0x57
  TIMx->SMCR = tmpsmcr;
 8001e4c:	6083      	str	r3, [r0, #8]
 8001e4e:	e011      	b.n	8001e74 <HAL_TIM_ConfigClockSource+0xbe>
  switch (sClockSourceConfig->ClockSource)
 8001e50:	f5b3 5f80 	cmp.w	r3, #4096	; 0x1000
 8001e54:	d00e      	beq.n	8001e74 <HAL_TIM_ConfigClockSource+0xbe>
 8001e56:	f5b3 5f00 	cmp.w	r3, #8192	; 0x2000
 8001e5a:	d00d      	beq.n	8001e78 <HAL_TIM_ConfigClockSource+0xc2>
 8001e5c:	2b70      	cmp	r3, #112	; 0x70
 8001e5e:	d1cc      	bne.n	8001dfa <HAL_TIM_ConfigClockSource+0x44>
      TIM_ETR_SetConfig(htim->Instance,
 8001e60:	68cb      	ldr	r3, [r1, #12]
 8001e62:	e9d1 2101 	ldrd	r2, r1, [r1, #4]
 8001e66:	f7ff ff9c 	bl	8001da2 <TIM_ETR_SetConfig>
      tmpsmcr = htim->Instance->SMCR;
 8001e6a:	6822      	ldr	r2, [r4, #0]
 8001e6c:	6893      	ldr	r3, [r2, #8]
      tmpsmcr |= (TIM_SLAVEMODE_EXTERNAL1 | TIM_CLOCKSOURCE_ETRMODE1);
 8001e6e:	f043 0377 	orr.w	r3, r3, #119	; 0x77
      htim->Instance->SMCR |= TIM_SMCR_ECE;
 8001e72:	6093      	str	r3, [r2, #8]
  HAL_StatusTypeDef status = HAL_OK;
 8001e74:	2200      	movs	r2, #0
 8001e76:	e7c0      	b.n	8001dfa <HAL_TIM_ConfigClockSource+0x44>
      TIM_ETR_SetConfig(htim->Instance,
 8001e78:	68cb      	ldr	r3, [r1, #12]
 8001e7a:	e9d1 2101 	ldrd	r2, r1, [r1, #4]
 8001e7e:	f7ff ff90 	bl	8001da2 <TIM_ETR_SetConfig>
      htim->Instance->SMCR |= TIM_SMCR_ECE;
 8001e82:	6822      	ldr	r2, [r4, #0]
 8001e84:	6893      	ldr	r3, [r2, #8]
 8001e86:	f443 4380 	orr.w	r3, r3, #16384	; 0x4000
 8001e8a:	e7f2      	b.n	8001e72 <HAL_TIM_ConfigClockSource+0xbc>
  tmpccer = TIMx->CCER;
 8001e8c:	6a03      	ldr	r3, [r0, #32]
      TIM_TI2_ConfigInputStage(htim->Instance,
 8001e8e:	684d      	ldr	r5, [r1, #4]
 8001e90:	68ce      	ldr	r6, [r1, #12]
  TIMx->CCER &= ~TIM_CCER_CC2E;
 8001e92:	6a01      	ldr	r1, [r0, #32]
  tmpccer &= ~(TIM_CCER_CC2P | TIM_CCER_CC2NP);
 8001e94:	f023 03a0 	bic.w	r3, r3, #160	; 0xa0
  TIMx->CCER &= ~TIM_CCER_CC2E;
 8001e98:	f021 0110 	bic.w	r1, r1, #16
 8001e9c:	6201      	str	r1, [r0, #32]
  tmpccmr1 = TIMx->CCMR1;
 8001e9e:	6982      	ldr	r2, [r0, #24]
  tmpccer |= (TIM_ICPolarity << 4U);
 8001ea0:	ea43 1305 	orr.w	r3, r3, r5, lsl #4
  tmpccmr1 &= ~TIM_CCMR1_IC2F;
 8001ea4:	f422 4270 	bic.w	r2, r2, #61440	; 0xf000
  tmpccmr1 |= (TIM_ICFilter << 12U);
 8001ea8:	ea42 3206 	orr.w	r2, r2, r6, lsl #12
  TIMx->CCMR1 = tmpccmr1 ;
 8001eac:	6182      	str	r2, [r0, #24]
  TIMx->CCER = tmpccer;
 8001eae:	6203      	str	r3, [r0, #32]
  tmpsmcr = TIMx->SMCR;
 8001eb0:	6883      	ldr	r3, [r0, #8]
  tmpsmcr &= ~TIM_SMCR_TS;
 8001eb2:	f023 0370 	bic.w	r3, r3, #112	; 0x70
  tmpsmcr |= (InputTriggerSource | TIM_SLAVEMODE_EXTERNAL1);
 8001eb6:	f043 0367 	orr.w	r3, r3, #103	; 0x67
  TIMx->SMCR = tmpsmcr;
 8001eba:	e7c7      	b.n	8001e4c <HAL_TIM_ConfigClockSource+0x96>
      TIM_TI1_ConfigInputStage(htim->Instance,
 8001ebc:	684a      	ldr	r2, [r1, #4]
 8001ebe:	68ce      	ldr	r6, [r1, #12]
  tmpccer = TIMx->CCER;
 8001ec0:	6a01      	ldr	r1, [r0, #32]
  TIMx->CCER &= ~TIM_CCER_CC1E;
 8001ec2:	6a05      	ldr	r5, [r0, #32]
  tmpccer &= ~(TIM_CCER_CC1P | TIM_CCER_CC1NP);
 8001ec4:	f021 010a 	bic.w	r1, r1, #10
  TIMx->CCER &= ~TIM_CCER_CC1E;
 8001ec8:	f025 0501 	bic.w	r5, r5, #1
 8001ecc:	6205      	str	r5, [r0, #32]
  tmpccmr1 = TIMx->CCMR1;
 8001ece:	6983      	ldr	r3, [r0, #24]
  tmpccer |= TIM_ICPolarity;
 8001ed0:	430a      	orrs	r2, r1
  tmpccmr1 &= ~TIM_CCMR1_IC1F;
 8001ed2:	f023 03f0 	bic.w	r3, r3, #240	; 0xf0
  tmpccmr1 |= (TIM_ICFilter << 4U);
 8001ed6:	ea43 1306 	orr.w	r3, r3, r6, lsl #4
  TIMx->CCMR1 = tmpccmr1;
 8001eda:	6183      	str	r3, [r0, #24]
  TIMx->CCER = tmpccer;
 8001edc:	6202      	str	r2, [r0, #32]
  tmpsmcr = TIMx->SMCR;
 8001ede:	6883      	ldr	r3, [r0, #8]
  tmpsmcr &= ~TIM_SMCR_TS;
 8001ee0:	f023 0370 	bic.w	r3, r3, #112	; 0x70
  tmpsmcr |= (InputTriggerSource | TIM_SLAVEMODE_EXTERNAL1);
 8001ee4:	f043 0347 	orr.w	r3, r3, #71	; 0x47
  TIMx->SMCR = tmpsmcr;
 8001ee8:	e7b0      	b.n	8001e4c <HAL_TIM_ConfigClockSource+0x96>
  __HAL_LOCK(htim);
 8001eea:	461a      	mov	r2, r3
 8001eec:	e78b      	b.n	8001e06 <HAL_TIM_ConfigClockSource+0x50>
	...

08001ef0 <HAL_TIMEx_MasterConfigSynchronization>:
  *         mode.
  * @retval HAL status
  */
HAL_StatusTypeDef HAL_TIMEx_MasterConfigSynchronization(TIM_HandleTypeDef *htim,
                                                        const TIM_MasterConfigTypeDef *sMasterConfig)
{
 8001ef0:	b530      	push	{r4, r5, lr}
  assert_param(IS_TIM_MASTER_INSTANCE(htim->Instance));
  assert_param(IS_TIM_TRGO_SOURCE(sMasterConfig->MasterOutputTrigger));
  assert_param(IS_TIM_MSM_STATE(sMasterConfig->MasterSlaveMode));

  /* Check input state */
  __HAL_LOCK(htim);
 8001ef2:	f890 303c 	ldrb.w	r3, [r0, #60]	; 0x3c
{
 8001ef6:	4602      	mov	r2, r0
  __HAL_LOCK(htim);
 8001ef8:	2b01      	cmp	r3, #1
 8001efa:	f04f 0002 	mov.w	r0, #2
 8001efe:	d022      	beq.n	8001f46 <HAL_TIMEx_MasterConfigSynchronization+0x56>

  /* Change the handler state */
  htim->State = HAL_TIM_STATE_BUSY;

  /* Get the TIMx CR2 register value */
  tmpcr2 = htim->Instance->CR2;
 8001f00:	6813      	ldr	r3, [r2, #0]
  htim->State = HAL_TIM_STATE_BUSY;
 8001f02:	f882 003d 	strb.w	r0, [r2, #61]	; 0x3d
  tmpcr2 = htim->Instance->CR2;
 8001f06:	685c      	ldr	r4, [r3, #4]
  tmpsmcr = htim->Instance->SMCR;

  /* Reset the MMS Bits */
  tmpcr2 &= ~TIM_CR2_MMS;
  /* Select the TRGO source */
  tmpcr2 |=  sMasterConfig->MasterOutputTrigger;
 8001f08:	680d      	ldr	r5, [r1, #0]
  tmpcr2 &= ~TIM_CR2_MMS;
 8001f0a:	f024 0470 	bic.w	r4, r4, #112	; 0x70
  tmpcr2 |=  sMasterConfig->MasterOutputTrigger;
 8001f0e:	432c      	orrs	r4, r5
  tmpsmcr = htim->Instance->SMCR;
 8001f10:	6898      	ldr	r0, [r3, #8]

  /* Update TIMx CR2 */
  htim->Instance->CR2 = tmpcr2;
 8001f12:	605c      	str	r4, [r3, #4]

  if (IS_TIM_SLAVE_INSTANCE(htim->Instance))
 8001f14:	4c0c      	ldr	r4, [pc, #48]	; (8001f48 <HAL_TIMEx_MasterConfigSynchronization+0x58>)
 8001f16:	42a3      	cmp	r3, r4
 8001f18:	d00a      	beq.n	8001f30 <HAL_TIMEx_MasterConfigSynchronization+0x40>
 8001f1a:	f1b3 4f80 	cmp.w	r3, #1073741824	; 0x40000000
 8001f1e:	d007      	beq.n	8001f30 <HAL_TIMEx_MasterConfigSynchronization+0x40>
 8001f20:	f5a4 3494 	sub.w	r4, r4, #75776	; 0x12800
 8001f24:	42a3      	cmp	r3, r4
 8001f26:	d003      	beq.n	8001f30 <HAL_TIMEx_MasterConfigSynchronization+0x40>
 8001f28:	f504 6480 	add.w	r4, r4, #1024	; 0x400
 8001f2c:	42a3      	cmp	r3, r4
 8001f2e:	d104      	bne.n	8001f3a <HAL_TIMEx_MasterConfigSynchronization+0x4a>
  {
    /* Reset the MSM Bit */
    tmpsmcr &= ~TIM_SMCR_MSM;
    /* Set master mode */
    tmpsmcr |= sMasterConfig->MasterSlaveMode;
 8001f30:	6849      	ldr	r1, [r1, #4]
    tmpsmcr &= ~TIM_SMCR_MSM;
 8001f32:	f020 0080 	bic.w	r0, r0, #128	; 0x80
    tmpsmcr |= sMasterConfig->MasterSlaveMode;
 8001f36:	4301      	orrs	r1, r0

    /* Update TIMx SMCR */
    htim->Instance->SMCR = tmpsmcr;
 8001f38:	6099      	str	r1, [r3, #8]
  }

  /* Change the htim state */
  htim->State = HAL_TIM_STATE_READY;
 8001f3a:	2301      	movs	r3, #1

  __HAL_UNLOCK(htim);
 8001f3c:	2000      	movs	r0, #0
  htim->State = HAL_TIM_STATE_READY;
 8001f3e:	f882 303d 	strb.w	r3, [r2, #61]	; 0x3d
  __HAL_UNLOCK(htim);
 8001f42:	f882 003c 	strb.w	r0, [r2, #60]	; 0x3c

  return HAL_OK;
}
 8001f46:	bd30      	pop	{r4, r5, pc}
 8001f48:	40012c00 	.word	0x40012c00

08001f4c <HAL_TIMEx_CommutCallback>:
 8001f4c:	4770      	bx	lr

08001f4e <HAL_TIMEx_BreakCallback>:
 8001f4e:	4770      	bx	lr

08001f50 <UART_EndRxTransfer>:
  * @retval None
  */
static void UART_EndRxTransfer(UART_HandleTypeDef *huart)
{
  /* Disable RXNE, PE and ERR (Frame error, noise error, overrun error) interrupts */
  ATOMIC_CLEAR_BIT(huart->Instance->CR1, (USART_CR1_RXNEIE | USART_CR1_PEIE));
 8001f50:	6802      	ldr	r2, [r0, #0]
 */
__STATIC_FORCEINLINE uint32_t __LDREXW(volatile uint32_t *addr)
{
    uint32_t result;

   __ASM volatile ("ldrex %0, %1" : "=r" (result) : "Q" (*addr) );
 8001f52:	f102 030c 	add.w	r3, r2, #12
 8001f56:	e853 3f00 	ldrex	r3, [r3]
 8001f5a:	f423 7390 	bic.w	r3, r3, #288	; 0x120
 */
__STATIC_FORCEINLINE uint32_t __STREXW(uint32_t value, volatile uint32_t *addr)
{
   uint32_t result;

   __ASM volatile ("strex %0, %2, %1" : "=&r" (result), "=Q" (*addr) : "r" (value) );
 8001f5e:	320c      	adds	r2, #12
 8001f60:	e842 3100 	strex	r1, r3, [r2]
   return(result);
 8001f64:	6802      	ldr	r2, [r0, #0]
 8001f66:	2900      	cmp	r1, #0
 8001f68:	d1f2      	bne.n	8001f50 <UART_EndRxTransfer>
   __ASM volatile ("ldrex %0, %1" : "=r" (result) : "Q" (*addr) );
 8001f6a:	f102 0314 	add.w	r3, r2, #20
 8001f6e:	e853 3f00 	ldrex	r3, [r3]
  ATOMIC_CLEAR_BIT(huart->Instance->CR3, USART_CR3_EIE);
 8001f72:	f023 0301 	bic.w	r3, r3, #1
   __ASM volatile ("strex %0, %2, %1" : "=&r" (result), "=Q" (*addr) : "r" (value) );
 8001f76:	f102 0c14 	add.w	ip, r2, #20
 8001f7a:	e84c 3100 	strex	r1, r3, [ip]
 8001f7e:	2900      	cmp	r1, #0
 8001f80:	d1f3      	bne.n	8001f6a <UART_EndRxTransfer+0x1a>

  /* In case of reception waiting for IDLE event, disable also the IDLE IE interrupt source */
  if (huart->ReceptionType == HAL_UART_RECEPTION_TOIDLE)
 8001f82:	6b03      	ldr	r3, [r0, #48]	; 0x30
 8001f84:	2b01      	cmp	r3, #1
 8001f86:	d10b      	bne.n	8001fa0 <UART_EndRxTransfer+0x50>
   __ASM volatile ("ldrex %0, %1" : "=r" (result) : "Q" (*addr) );
 8001f88:	f102 030c 	add.w	r3, r2, #12
 8001f8c:	e853 3f00 	ldrex	r3, [r3]
  {
    ATOMIC_CLEAR_BIT(huart->Instance->CR1, USART_CR1_IDLEIE);
 8001f90:	f023 0310 	bic.w	r3, r3, #16
   __ASM volatile ("strex %0, %2, %1" : "=&r" (result), "=Q" (*addr) : "r" (value) );
 8001f94:	f102 0c0c 	add.w	ip, r2, #12
 8001f98:	e84c 3100 	strex	r1, r3, [ip]
 8001f9c:	2900      	cmp	r1, #0
 8001f9e:	d1f3      	bne.n	8001f88 <UART_EndRxTransfer+0x38>
  }

  /* At end of Rx process, restore huart->RxState to Ready */
  huart->RxState = HAL_UART_STATE_READY;
 8001fa0:	2320      	movs	r3, #32
 8001fa2:	f880 3042 	strb.w	r3, [r0, #66]	; 0x42
  huart->ReceptionType = HAL_UART_RECEPTION_STANDARD;
 8001fa6:	2300      	movs	r3, #0
 8001fa8:	6303      	str	r3, [r0, #48]	; 0x30
}
 8001faa:	4770      	bx	lr

08001fac <UART_SetConfig>:
  * @param  huart  Pointer to a UART_HandleTypeDef structure that contains
  *                the configuration information for the specified UART module.
  * @retval None
  */
static void UART_SetConfig(UART_HandleTypeDef *huart)
{
 8001fac:	b510      	push	{r4, lr}
 8001fae:	4604      	mov	r4, r0
  assert_param(IS_UART_MODE(huart->Init.Mode));

  /*-------------------------- USART CR2 Configuration -----------------------*/
  /* Configure the UART Stop Bits: Set STOP[13:12] bits
     according to huart->Init.StopBits value */
  MODIFY_REG(huart->Instance->CR2, USART_CR2_STOP, huart->Init.StopBits);
 8001fb0:	6803      	ldr	r3, [r0, #0]
 8001fb2:	68c1      	ldr	r1, [r0, #12]
 8001fb4:	691a      	ldr	r2, [r3, #16]
 8001fb6:	f422 5240 	bic.w	r2, r2, #12288	; 0x3000
 8001fba:	430a      	orrs	r2, r1
 8001fbc:	611a      	str	r2, [r3, #16]
  tmpreg = (uint32_t)huart->Init.WordLength | huart->Init.Parity | huart->Init.Mode | huart->Init.OverSampling;
  MODIFY_REG(huart->Instance->CR1,
             (uint32_t)(USART_CR1_M | USART_CR1_PCE | USART_CR1_PS | USART_CR1_TE | USART_CR1_RE | USART_CR1_OVER8),
             tmpreg);
#else
  tmpreg = (uint32_t)huart->Init.WordLength | huart->Init.Parity | huart->Init.Mode;
 8001fbe:	6882      	ldr	r2, [r0, #8]
 8001fc0:	6900      	ldr	r0, [r0, #16]
  MODIFY_REG(huart->Instance->CR1,
 8001fc2:	68d9      	ldr	r1, [r3, #12]
  tmpreg = (uint32_t)huart->Init.WordLength | huart->Init.Parity | huart->Init.Mode;
 8001fc4:	4302      	orrs	r2, r0
 8001fc6:	6960      	ldr	r0, [r4, #20]
  MODIFY_REG(huart->Instance->CR1,
 8001fc8:	f421 51b0 	bic.w	r1, r1, #5632	; 0x1600
 8001fcc:	f021 010c 	bic.w	r1, r1, #12
  tmpreg = (uint32_t)huart->Init.WordLength | huart->Init.Parity | huart->Init.Mode;
 8001fd0:	4302      	orrs	r2, r0
  MODIFY_REG(huart->Instance->CR1,
 8001fd2:	430a      	orrs	r2, r1
 8001fd4:	60da      	str	r2, [r3, #12]
             tmpreg);
#endif /* USART_CR1_OVER8 */

  /*-------------------------- USART CR3 Configuration -----------------------*/
  /* Configure the UART HFC: Set CTSE and RTSE bits according to huart->Init.HwFlowCtl value */
  MODIFY_REG(huart->Instance->CR3, (USART_CR3_RTSE | USART_CR3_CTSE), huart->Init.HwFlowCtl);
 8001fd6:	695a      	ldr	r2, [r3, #20]
 8001fd8:	69a1      	ldr	r1, [r4, #24]
 8001fda:	f422 7240 	bic.w	r2, r2, #768	; 0x300
 8001fde:	430a      	orrs	r2, r1
 8001fe0:	615a      	str	r2, [r3, #20]


  if(huart->Instance == USART1)
 8001fe2:	4a0e      	ldr	r2, [pc, #56]	; (800201c <UART_SetConfig+0x70>)
 8001fe4:	4293      	cmp	r3, r2
 8001fe6:	d115      	bne.n	8002014 <UART_SetConfig+0x68>
  {
    pclk = HAL_RCC_GetPCLK2Freq();
 8001fe8:	f7ff fade 	bl	80015a8 <HAL_RCC_GetPCLK2Freq>
  else
  {
    huart->Instance->BRR = UART_BRR_SAMPLING16(pclk, huart->Init.BaudRate);
  }
#else
  huart->Instance->BRR = UART_BRR_SAMPLING16(pclk, huart->Init.BaudRate);
 8001fec:	2319      	movs	r3, #25
 8001fee:	4343      	muls	r3, r0
 8001ff0:	6862      	ldr	r2, [r4, #4]
 8001ff2:	6820      	ldr	r0, [r4, #0]
 8001ff4:	0092      	lsls	r2, r2, #2
 8001ff6:	fbb3 f3f2 	udiv	r3, r3, r2
 8001ffa:	2264      	movs	r2, #100	; 0x64
 8001ffc:	fbb3 f1f2 	udiv	r1, r3, r2
 8002000:	fb02 3311 	mls	r3, r2, r1, r3
 8002004:	011b      	lsls	r3, r3, #4
 8002006:	3332      	adds	r3, #50	; 0x32
 8002008:	fbb3 f3f2 	udiv	r3, r3, r2
 800200c:	eb03 1301 	add.w	r3, r3, r1, lsl #4
 8002010:	6083      	str	r3, [r0, #8]
#endif /* USART_CR1_OVER8 */
}
 8002012:	bd10      	pop	{r4, pc}
    pclk = HAL_RCC_GetPCLK1Freq();
 8002014:	f7ff fab8 	bl	8001588 <HAL_RCC_GetPCLK1Freq>
 8002018:	e7e8      	b.n	8001fec <UART_SetConfig+0x40>
 800201a:	bf00      	nop
 800201c:	40013800 	.word	0x40013800

08002020 <UART_WaitOnFlagUntilTimeout.constprop.0>:
static HAL_StatusTypeDef UART_WaitOnFlagUntilTimeout(UART_HandleTypeDef *huart, uint32_t Flag, FlagStatus Status,
 8002020:	b5f7      	push	{r0, r1, r2, r4, r5, r6, r7, lr}
 8002022:	4604      	mov	r4, r0
 8002024:	460d      	mov	r5, r1
 8002026:	4617      	mov	r7, r2
 8002028:	461e      	mov	r6, r3
  while ((__HAL_UART_GET_FLAG(huart, Flag) ? SET : RESET) == Status)
 800202a:	6822      	ldr	r2, [r4, #0]
 800202c:	6813      	ldr	r3, [r2, #0]
 800202e:	ea35 0303 	bics.w	r3, r5, r3
 8002032:	d101      	bne.n	8002038 <UART_WaitOnFlagUntilTimeout.constprop.0+0x18>
  return HAL_OK;
 8002034:	2000      	movs	r0, #0
 8002036:	e021      	b.n	800207c <UART_WaitOnFlagUntilTimeout.constprop.0+0x5c>
    if (Timeout != HAL_MAX_DELAY)
 8002038:	1c70      	adds	r0, r6, #1
 800203a:	d0f7      	beq.n	800202c <UART_WaitOnFlagUntilTimeout.constprop.0+0xc>
      if (((HAL_GetTick() - Tickstart) > Timeout) || (Timeout == 0U))
 800203c:	f7fe fcd8 	bl	80009f0 <HAL_GetTick>
 8002040:	1bc0      	subs	r0, r0, r7
 8002042:	4286      	cmp	r6, r0
 8002044:	d31c      	bcc.n	8002080 <UART_WaitOnFlagUntilTimeout.constprop.0+0x60>
 8002046:	b1de      	cbz	r6, 8002080 <UART_WaitOnFlagUntilTimeout.constprop.0+0x60>
      if ((READ_BIT(huart->Instance->CR1, USART_CR1_RE) != 0U) && (Flag != UART_FLAG_TXE) && (Flag != UART_FLAG_TC))
 8002048:	6823      	ldr	r3, [r4, #0]
 800204a:	68da      	ldr	r2, [r3, #12]
 800204c:	0751      	lsls	r1, r2, #29
 800204e:	d5ec      	bpl.n	800202a <UART_WaitOnFlagUntilTimeout.constprop.0+0xa>
 8002050:	2d80      	cmp	r5, #128	; 0x80
 8002052:	d0ea      	beq.n	800202a <UART_WaitOnFlagUntilTimeout.constprop.0+0xa>
 8002054:	2d40      	cmp	r5, #64	; 0x40
 8002056:	d0e8      	beq.n	800202a <UART_WaitOnFlagUntilTimeout.constprop.0+0xa>
        if (__HAL_UART_GET_FLAG(huart, UART_FLAG_ORE) == SET)
 8002058:	681a      	ldr	r2, [r3, #0]
 800205a:	0712      	lsls	r2, r2, #28
 800205c:	d5e5      	bpl.n	800202a <UART_WaitOnFlagUntilTimeout.constprop.0+0xa>
          __HAL_UART_CLEAR_OREFLAG(huart);
 800205e:	2500      	movs	r5, #0
 8002060:	9501      	str	r5, [sp, #4]
 8002062:	681a      	ldr	r2, [r3, #0]
          UART_EndRxTransfer(huart);
 8002064:	4620      	mov	r0, r4
          __HAL_UART_CLEAR_OREFLAG(huart);
 8002066:	9201      	str	r2, [sp, #4]
 8002068:	685b      	ldr	r3, [r3, #4]
 800206a:	9301      	str	r3, [sp, #4]
 800206c:	9b01      	ldr	r3, [sp, #4]
          UART_EndRxTransfer(huart);
 800206e:	f7ff ff6f 	bl	8001f50 <UART_EndRxTransfer>
          huart->ErrorCode = HAL_UART_ERROR_ORE;
 8002072:	2308      	movs	r3, #8
          return HAL_ERROR;
 8002074:	2001      	movs	r0, #1
          huart->ErrorCode = HAL_UART_ERROR_ORE;
 8002076:	6463      	str	r3, [r4, #68]	; 0x44
          __HAL_UNLOCK(huart);
 8002078:	f884 5040 	strb.w	r5, [r4, #64]	; 0x40
}
 800207c:	b003      	add	sp, #12
 800207e:	bdf0      	pop	{r4, r5, r6, r7, pc}
        return HAL_TIMEOUT;
 8002080:	2003      	movs	r0, #3
 8002082:	e7fb      	b.n	800207c <UART_WaitOnFlagUntilTimeout.constprop.0+0x5c>

08002084 <HAL_UART_Init>:
{
 8002084:	b510      	push	{r4, lr}
  if (huart == NULL)
 8002086:	4604      	mov	r4, r0
 8002088:	b348      	cbz	r0, 80020de <HAL_UART_Init+0x5a>
  if (huart->gState == HAL_UART_STATE_RESET)
 800208a:	f890 3041 	ldrb.w	r3, [r0, #65]	; 0x41
 800208e:	f003 02ff 	and.w	r2, r3, #255	; 0xff
 8002092:	b91b      	cbnz	r3, 800209c <HAL_UART_Init+0x18>
    huart->Lock = HAL_UNLOCKED;
 8002094:	f880 2040 	strb.w	r2, [r0, #64]	; 0x40
    HAL_UART_MspInit(huart);
 8002098:	f7fe fbbc 	bl	8000814 <HAL_UART_MspInit>
  huart->gState = HAL_UART_STATE_BUSY;
 800209c:	2324      	movs	r3, #36	; 0x24
  __HAL_UART_DISABLE(huart);
 800209e:	6822      	ldr	r2, [r4, #0]
  huart->gState = HAL_UART_STATE_BUSY;
 80020a0:	f884 3041 	strb.w	r3, [r4, #65]	; 0x41
  __HAL_UART_DISABLE(huart);
 80020a4:	68d3      	ldr	r3, [r2, #12]
  UART_SetConfig(huart);
 80020a6:	4620      	mov	r0, r4
  __HAL_UART_DISABLE(huart);
 80020a8:	f423 5300 	bic.w	r3, r3, #8192	; 0x2000
 80020ac:	60d3      	str	r3, [r2, #12]
  UART_SetConfig(huart);
 80020ae:	f7ff ff7d 	bl	8001fac <UART_SetConfig>
  CLEAR_BIT(huart->Instance->CR2, (USART_CR2_LINEN | USART_CR2_CLKEN));
 80020b2:	6823      	ldr	r3, [r4, #0]
  huart->ErrorCode = HAL_UART_ERROR_NONE;
 80020b4:	2000      	movs	r0, #0
  CLEAR_BIT(huart->Instance->CR2, (USART_CR2_LINEN | USART_CR2_CLKEN));
 80020b6:	691a      	ldr	r2, [r3, #16]
 80020b8:	f422 4290 	bic.w	r2, r2, #18432	; 0x4800
 80020bc:	611a      	str	r2, [r3, #16]
  CLEAR_BIT(huart->Instance->CR3, (USART_CR3_SCEN | USART_CR3_HDSEL | USART_CR3_IREN));
 80020be:	695a      	ldr	r2, [r3, #20]
 80020c0:	f022 022a 	bic.w	r2, r2, #42	; 0x2a
 80020c4:	615a      	str	r2, [r3, #20]
  __HAL_UART_ENABLE(huart);
 80020c6:	68da      	ldr	r2, [r3, #12]
 80020c8:	f442 5200 	orr.w	r2, r2, #8192	; 0x2000
 80020cc:	60da      	str	r2, [r3, #12]
  huart->gState = HAL_UART_STATE_READY;
 80020ce:	2320      	movs	r3, #32
  huart->ErrorCode = HAL_UART_ERROR_NONE;
 80020d0:	6460      	str	r0, [r4, #68]	; 0x44
  huart->gState = HAL_UART_STATE_READY;
 80020d2:	f884 3041 	strb.w	r3, [r4, #65]	; 0x41
  huart->RxState = HAL_UART_STATE_READY;
 80020d6:	f884 3042 	strb.w	r3, [r4, #66]	; 0x42
  huart->RxEventType = HAL_UART_RXEVENT_TC;
 80020da:	6360      	str	r0, [r4, #52]	; 0x34
}
 80020dc:	bd10      	pop	{r4, pc}
    return HAL_ERROR;
 80020de:	2001      	movs	r0, #1
 80020e0:	e7fc      	b.n	80020dc <HAL_UART_Init+0x58>

080020e2 <HAL_UART_Transmit>:
{
 80020e2:	e92d 43f8 	stmdb	sp!, {r3, r4, r5, r6, r7, r8, r9, lr}
 80020e6:	4699      	mov	r9, r3
  if (huart->gState == HAL_UART_STATE_READY)
 80020e8:	f890 3041 	ldrb.w	r3, [r0, #65]	; 0x41
{
 80020ec:	4604      	mov	r4, r0
  if (huart->gState == HAL_UART_STATE_READY)
 80020ee:	2b20      	cmp	r3, #32
{
 80020f0:	460e      	mov	r6, r1
 80020f2:	4617      	mov	r7, r2
  if (huart->gState == HAL_UART_STATE_READY)
 80020f4:	d13f      	bne.n	8002176 <HAL_UART_Transmit+0x94>
    if ((pData == NULL) || (Size == 0U))
 80020f6:	2900      	cmp	r1, #0
 80020f8:	d03f      	beq.n	800217a <HAL_UART_Transmit+0x98>
 80020fa:	2a00      	cmp	r2, #0
 80020fc:	d03d      	beq.n	800217a <HAL_UART_Transmit+0x98>
    huart->gState = HAL_UART_STATE_BUSY_TX;
 80020fe:	2321      	movs	r3, #33	; 0x21
    huart->ErrorCode = HAL_UART_ERROR_NONE;
 8002100:	2500      	movs	r5, #0
 8002102:	6445      	str	r5, [r0, #68]	; 0x44
    huart->gState = HAL_UART_STATE_BUSY_TX;
 8002104:	f880 3041 	strb.w	r3, [r0, #65]	; 0x41
    tickstart = HAL_GetTick();
 8002108:	f7fe fc72 	bl	80009f0 <HAL_GetTick>
    if ((huart->Init.WordLength == UART_WORDLENGTH_9B) && (huart->Init.Parity == UART_PARITY_NONE))
 800210c:	68a3      	ldr	r3, [r4, #8]
    tickstart = HAL_GetTick();
 800210e:	4680      	mov	r8, r0
    if ((huart->Init.WordLength == UART_WORDLENGTH_9B) && (huart->Init.Parity == UART_PARITY_NONE))
 8002110:	f5b3 5f80 	cmp.w	r3, #4096	; 0x1000
    huart->TxXferSize = Size;
 8002114:	84a7      	strh	r7, [r4, #36]	; 0x24
    huart->TxXferCount = Size;
 8002116:	84e7      	strh	r7, [r4, #38]	; 0x26
    if ((huart->Init.WordLength == UART_WORDLENGTH_9B) && (huart->Init.Parity == UART_PARITY_NONE))
 8002118:	d103      	bne.n	8002122 <HAL_UART_Transmit+0x40>
 800211a:	6923      	ldr	r3, [r4, #16]
 800211c:	b90b      	cbnz	r3, 8002122 <HAL_UART_Transmit+0x40>
 800211e:	4635      	mov	r5, r6
      pdata8bits  = NULL;
 8002120:	461e      	mov	r6, r3
    while (huart->TxXferCount > 0U)
 8002122:	8ce3      	ldrh	r3, [r4, #38]	; 0x26
 8002124:	b29b      	uxth	r3, r3
 8002126:	b95b      	cbnz	r3, 8002140 <HAL_UART_Transmit+0x5e>
    if (UART_WaitOnFlagUntilTimeout(huart, UART_FLAG_TC, RESET, tickstart, Timeout) != HAL_OK)
 8002128:	464b      	mov	r3, r9
 800212a:	4642      	mov	r2, r8
 800212c:	2140      	movs	r1, #64	; 0x40
 800212e:	4620      	mov	r0, r4
 8002130:	f7ff ff76 	bl	8002020 <UART_WaitOnFlagUntilTimeout.constprop.0>
 8002134:	2320      	movs	r3, #32
      huart->gState = HAL_UART_STATE_READY;
 8002136:	f884 3041 	strb.w	r3, [r4, #65]	; 0x41
    if (UART_WaitOnFlagUntilTimeout(huart, UART_FLAG_TC, RESET, tickstart, Timeout) != HAL_OK)
 800213a:	b958      	cbnz	r0, 8002154 <HAL_UART_Transmit+0x72>
}
 800213c:	e8bd 83f8 	ldmia.w	sp!, {r3, r4, r5, r6, r7, r8, r9, pc}
      if (UART_WaitOnFlagUntilTimeout(huart, UART_FLAG_TXE, RESET, tickstart, Timeout) != HAL_OK)
 8002140:	464b      	mov	r3, r9
 8002142:	4642      	mov	r2, r8
 8002144:	2180      	movs	r1, #128	; 0x80
 8002146:	4620      	mov	r0, r4
 8002148:	f7ff ff6a 	bl	8002020 <UART_WaitOnFlagUntilTimeout.constprop.0>
 800214c:	b120      	cbz	r0, 8002158 <HAL_UART_Transmit+0x76>
        huart->gState = HAL_UART_STATE_READY;
 800214e:	2320      	movs	r3, #32
 8002150:	f884 3041 	strb.w	r3, [r4, #65]	; 0x41
      return HAL_TIMEOUT;
 8002154:	2003      	movs	r0, #3
 8002156:	e7f1      	b.n	800213c <HAL_UART_Transmit+0x5a>
      if (pdata8bits == NULL)
 8002158:	6822      	ldr	r2, [r4, #0]
 800215a:	b94e      	cbnz	r6, 8002170 <HAL_UART_Transmit+0x8e>
        huart->Instance->DR = (uint16_t)(*pdata16bits & 0x01FFU);
 800215c:	f835 3b02 	ldrh.w	r3, [r5], #2
 8002160:	f3c3 0308 	ubfx	r3, r3, #0, #9
        huart->Instance->DR = (uint8_t)(*pdata8bits & 0xFFU);
 8002164:	6053      	str	r3, [r2, #4]
      huart->TxXferCount--;
 8002166:	8ce1      	ldrh	r1, [r4, #38]	; 0x26
 8002168:	3901      	subs	r1, #1
 800216a:	b289      	uxth	r1, r1
 800216c:	84e1      	strh	r1, [r4, #38]	; 0x26
 800216e:	e7d8      	b.n	8002122 <HAL_UART_Transmit+0x40>
        huart->Instance->DR = (uint8_t)(*pdata8bits & 0xFFU);
 8002170:	f816 3b01 	ldrb.w	r3, [r6], #1
 8002174:	e7f6      	b.n	8002164 <HAL_UART_Transmit+0x82>
    return HAL_BUSY;
 8002176:	2002      	movs	r0, #2
 8002178:	e7e0      	b.n	800213c <HAL_UART_Transmit+0x5a>
      return  HAL_ERROR;
 800217a:	2001      	movs	r0, #1
 800217c:	e7de      	b.n	800213c <HAL_UART_Transmit+0x5a>
	...

08002180 <MX_FATFS_Init>:
/* USER CODE BEGIN Variables */

/* USER CODE END Variables */

void MX_FATFS_Init(void)
{
 8002180:	b508      	push	{r3, lr}
  /*## FatFS: Link the USER driver ###########################*/
  retUSER = FATFS_LinkDriver(&USER_Driver, USERPath);
 8002182:	4903      	ldr	r1, [pc, #12]	; (8002190 <MX_FATFS_Init+0x10>)
 8002184:	4803      	ldr	r0, [pc, #12]	; (8002194 <MX_FATFS_Init+0x14>)
 8002186:	f001 ff9f 	bl	80040c8 <FATFS_LinkDriver>
 800218a:	4b03      	ldr	r3, [pc, #12]	; (8002198 <MX_FATFS_Init+0x18>)
 800218c:	7018      	strb	r0, [r3, #0]

  /* USER CODE BEGIN Init */
  /* additional user code for init */
  /* USER CODE END Init */
}
 800218e:	bd08      	pop	{r3, pc}
 8002190:	20000acc 	.word	0x20000acc
 8002194:	20000014 	.word	0x20000014
 8002198:	20000ad0 	.word	0x20000ad0

0800219c <get_fattime>:
DWORD get_fattime(void)
{
  /* USER CODE BEGIN get_fattime */
  return 0;
  /* USER CODE END get_fattime */
}
 800219c:	2000      	movs	r0, #0
 800219e:	4770      	bx	lr

080021a0 <USER_initialize>:
DSTATUS USER_initialize (
	BYTE pdrv           /* Physical drive nmuber to identify the drive */
)
{
  /* USER CODE BEGIN INIT */
	return USER_SPI_initialize(pdrv); //ADD THIS LINE
 80021a0:	f000 b8f8 	b.w	8002394 <USER_SPI_initialize>

080021a4 <USER_status>:
DSTATUS USER_status (
	BYTE pdrv       /* Physical drive number to identify the drive */
)
{
  /* USER CODE BEGIN STATUS */
	return USER_SPI_status(pdrv); //ADD THIS LINE
 80021a4:	f000 b99a 	b.w	80024dc <USER_SPI_status>

080021a8 <USER_read>:
	DWORD sector,   /* Sector address in LBA */
	UINT count      /* Number of sectors to read */
)
{
  /* USER CODE BEGIN READ */
	return USER_SPI_read(pdrv, buff, sector, count); //ADD THIS LINE
 80021a8:	f000 b9a2 	b.w	80024f0 <USER_SPI_read>

080021ac <USER_write>:
	UINT count          /* Number of sectors to write */
)
{
  /* USER CODE BEGIN WRITE */
  /* USER CODE HERE */
	return USER_SPI_write(pdrv, buff, sector, count); //ADD THIS LINE
 80021ac:	f000 b9e0 	b.w	8002570 <USER_SPI_write>

080021b0 <USER_ioctl>:
	BYTE cmd,       /* Control code */
	void *buff      /* Buffer to send/receive control data */
)
{
  /* USER CODE BEGIN IOCTL */
	return USER_SPI_ioctl(pdrv, cmd, buff); //ADD THIS LINE
 80021b0:	f000 ba42 	b.w	8002638 <USER_SPI_ioctl>

080021b4 <xchg_spi>:
/* Exchange a byte */
static
BYTE xchg_spi (
	BYTE dat	/* Data to send */
)
{
 80021b4:	b57f      	push	{r0, r1, r2, r3, r4, r5, r6, lr}
	BYTE rxDat;
    HAL_SPI_TransmitReceive(&SD_SPI_HANDLE, &dat, &rxDat, 1, 50);
 80021b6:	2332      	movs	r3, #50	; 0x32
{
 80021b8:	f88d 000f 	strb.w	r0, [sp, #15]
    HAL_SPI_TransmitReceive(&SD_SPI_HANDLE, &dat, &rxDat, 1, 50);
 80021bc:	9300      	str	r3, [sp, #0]
 80021be:	f10d 0217 	add.w	r2, sp, #23
 80021c2:	2301      	movs	r3, #1
 80021c4:	f10d 010f 	add.w	r1, sp, #15
 80021c8:	4803      	ldr	r0, [pc, #12]	; (80021d8 <xchg_spi+0x24>)
 80021ca:	f7ff fb94 	bl	80018f6 <HAL_SPI_TransmitReceive>
    return rxDat;
}
 80021ce:	f89d 0017 	ldrb.w	r0, [sp, #23]
 80021d2:	b007      	add	sp, #28
 80021d4:	f85d fb04 	ldr.w	pc, [sp], #4
 80021d8:	200005ac 	.word	0x200005ac

080021dc <wait_ready>:

static
int wait_ready (	/* 1:Ready, 0:Timeout */
	UINT wt			/* Timeout [ms] */
)
{
 80021dc:	b570      	push	{r4, r5, r6, lr}
 80021de:	4605      	mov	r5, r0
	//wait_ready needs its own timer, unfortunately, so it can't use the
	//spi_timer functions
	uint32_t waitSpiTimerTickStart;
	uint32_t waitSpiTimerTickDelay;

	waitSpiTimerTickStart = HAL_GetTick();
 80021e0:	f7fe fc06 	bl	80009f0 <HAL_GetTick>
 80021e4:	4606      	mov	r6, r0
	waitSpiTimerTickDelay = (uint32_t)wt;
	do {
		d = xchg_spi(0xFF);
 80021e6:	20ff      	movs	r0, #255	; 0xff
 80021e8:	f7ff ffe4 	bl	80021b4 <xchg_spi>
		/* This loop takes a time. Insert rot_rdq() here for multitask envilonment. */
	} while (d != 0xFF && ((HAL_GetTick() - waitSpiTimerTickStart) < waitSpiTimerTickDelay));	/* Wait for card goes ready or timeout */
 80021ec:	28ff      	cmp	r0, #255	; 0xff
		d = xchg_spi(0xFF);
 80021ee:	4604      	mov	r4, r0
	} while (d != 0xFF && ((HAL_GetTick() - waitSpiTimerTickStart) < waitSpiTimerTickDelay));	/* Wait for card goes ready or timeout */
 80021f0:	d004      	beq.n	80021fc <wait_ready+0x20>
 80021f2:	f7fe fbfd 	bl	80009f0 <HAL_GetTick>
 80021f6:	1b83      	subs	r3, r0, r6
 80021f8:	42ab      	cmp	r3, r5
 80021fa:	d3f4      	bcc.n	80021e6 <wait_ready+0xa>

	return (d == 0xFF) ? 1 : 0;
}
 80021fc:	f1a4 03ff 	sub.w	r3, r4, #255	; 0xff
 8002200:	4258      	negs	r0, r3
 8002202:	4158      	adcs	r0, r3
 8002204:	bd70      	pop	{r4, r5, r6, pc}
	...

08002208 <despiselect>:
/* Despiselect card and release SPI                                         */
/*-----------------------------------------------------------------------*/

static
void despiselect (void)
{
 8002208:	b508      	push	{r3, lr}
	CS_HIGH();		/* Set CS# high */
 800220a:	4805      	ldr	r0, [pc, #20]	; (8002220 <despiselect+0x18>)
 800220c:	2201      	movs	r2, #1
 800220e:	2110      	movs	r1, #16
 8002210:	f7fe feae 	bl	8000f70 <HAL_GPIO_WritePin>
	xchg_spi(0xFF);	/* Dummy clock (force DO hi-z for multiple slave SPI) */

}
 8002214:	e8bd 4008 	ldmia.w	sp!, {r3, lr}
	xchg_spi(0xFF);	/* Dummy clock (force DO hi-z for multiple slave SPI) */
 8002218:	20ff      	movs	r0, #255	; 0xff
 800221a:	f7ff bfcb 	b.w	80021b4 <xchg_spi>
 800221e:	bf00      	nop
 8002220:	40010800 	.word	0x40010800

08002224 <spiselect>:
/* Select card and wait for ready                                        */
/*-----------------------------------------------------------------------*/

static
int spiselect (void)	/* 1:OK, 0:Timeout */
{
 8002224:	b510      	push	{r4, lr}
	CS_LOW();		/* Set CS# low */
 8002226:	2200      	movs	r2, #0
 8002228:	2110      	movs	r1, #16
 800222a:	4809      	ldr	r0, [pc, #36]	; (8002250 <spiselect+0x2c>)
 800222c:	f7fe fea0 	bl	8000f70 <HAL_GPIO_WritePin>
	xchg_spi(0xFF);	/* Dummy clock (force DO enabled) */
 8002230:	20ff      	movs	r0, #255	; 0xff
 8002232:	f7ff ffbf 	bl	80021b4 <xchg_spi>
	if (wait_ready(500)) return 1;	/* Wait for card ready */
 8002236:	f44f 70fa 	mov.w	r0, #500	; 0x1f4
 800223a:	f7ff ffcf 	bl	80021dc <wait_ready>
 800223e:	4604      	mov	r4, r0
 8002240:	b918      	cbnz	r0, 800224a <spiselect+0x26>

	despiselect();
 8002242:	f7ff ffe1 	bl	8002208 <despiselect>
	return 0;	/* Timeout */
}
 8002246:	4620      	mov	r0, r4
 8002248:	bd10      	pop	{r4, pc}
	if (wait_ready(500)) return 1;	/* Wait for card ready */
 800224a:	2401      	movs	r4, #1
 800224c:	e7fb      	b.n	8002246 <spiselect+0x22>
 800224e:	bf00      	nop
 8002250:	40010800 	.word	0x40010800

08002254 <send_cmd>:
)
{
	BYTE n, res;


	if (cmd & 0x80) {	/* Send a CMD55 prior to ACMD<n> */
 8002254:	0602      	lsls	r2, r0, #24
{
 8002256:	b538      	push	{r3, r4, r5, lr}
 8002258:	4604      	mov	r4, r0
 800225a:	460d      	mov	r5, r1
	if (cmd & 0x80) {	/* Send a CMD55 prior to ACMD<n> */
 800225c:	d507      	bpl.n	800226e <send_cmd+0x1a>
		cmd &= 0x7F;
		res = send_cmd(CMD55, 0);
 800225e:	2100      	movs	r1, #0
 8002260:	2037      	movs	r0, #55	; 0x37
 8002262:	f7ff fff7 	bl	8002254 <send_cmd>
		if (res > 1) return res;
 8002266:	2801      	cmp	r0, #1
 8002268:	d82b      	bhi.n	80022c2 <send_cmd+0x6e>
		cmd &= 0x7F;
 800226a:	f004 047f 	and.w	r4, r4, #127	; 0x7f
	}

	/* Select the card and wait for ready except to stop multiple block read */
	if (cmd != CMD12) {
 800226e:	2c0c      	cmp	r4, #12
 8002270:	d128      	bne.n	80022c4 <send_cmd+0x70>
		despiselect();
		if (!spiselect()) return 0xFF;
	}

	/* Send command packet */
	xchg_spi(0x40 | cmd);				/* Start + command index */
 8002272:	f044 0040 	orr.w	r0, r4, #64	; 0x40
 8002276:	f7ff ff9d 	bl	80021b4 <xchg_spi>
	xchg_spi((BYTE)(arg >> 24));		/* Argument[31..24] */
 800227a:	0e28      	lsrs	r0, r5, #24
 800227c:	f7ff ff9a 	bl	80021b4 <xchg_spi>
	xchg_spi((BYTE)(arg >> 16));		/* Argument[23..16] */
 8002280:	f3c5 4007 	ubfx	r0, r5, #16, #8
 8002284:	f7ff ff96 	bl	80021b4 <xchg_spi>
	xchg_spi((BYTE)(arg >> 8));			/* Argument[15..8] */
 8002288:	f3c5 2007 	ubfx	r0, r5, #8, #8
 800228c:	f7ff ff92 	bl	80021b4 <xchg_spi>
	xchg_spi((BYTE)arg);				/* Argument[7..0] */
 8002290:	b2e8      	uxtb	r0, r5
 8002292:	f7ff ff8f 	bl	80021b4 <xchg_spi>
	n = 0x01;							/* Dummy CRC + Stop */
	if (cmd == CMD0) n = 0x95;			/* Valid CRC for CMD0(0) */
 8002296:	b1ec      	cbz	r4, 80022d4 <send_cmd+0x80>
	if (cmd == CMD8) n = 0x87;			/* Valid CRC for CMD8(0x1AA) */
 8002298:	2c08      	cmp	r4, #8
 800229a:	bf14      	ite	ne
 800229c:	2001      	movne	r0, #1
 800229e:	2087      	moveq	r0, #135	; 0x87
	xchg_spi(n);
 80022a0:	f7ff ff88 	bl	80021b4 <xchg_spi>

	/* Receive command resp */
	if (cmd == CMD12) xchg_spi(0xFF);	/* Diacard following one byte when CMD12 */
 80022a4:	2c0c      	cmp	r4, #12
 80022a6:	d102      	bne.n	80022ae <send_cmd+0x5a>
 80022a8:	20ff      	movs	r0, #255	; 0xff
 80022aa:	f7ff ff83 	bl	80021b4 <xchg_spi>
	if (cmd == CMD8) n = 0x87;			/* Valid CRC for CMD8(0x1AA) */
 80022ae:	240a      	movs	r4, #10
	n = 10;								/* Wait for response (10 bytes max) */
	do {
		res = xchg_spi(0xFF);
 80022b0:	20ff      	movs	r0, #255	; 0xff
 80022b2:	f7ff ff7f 	bl	80021b4 <xchg_spi>
	} while ((res & 0x80) && --n);
 80022b6:	0603      	lsls	r3, r0, #24
 80022b8:	d503      	bpl.n	80022c2 <send_cmd+0x6e>
 80022ba:	3c01      	subs	r4, #1
 80022bc:	f014 04ff 	ands.w	r4, r4, #255	; 0xff
 80022c0:	d1f6      	bne.n	80022b0 <send_cmd+0x5c>

	return res;							/* Return received response */
}
 80022c2:	bd38      	pop	{r3, r4, r5, pc}
		despiselect();
 80022c4:	f7ff ffa0 	bl	8002208 <despiselect>
		if (!spiselect()) return 0xFF;
 80022c8:	f7ff ffac 	bl	8002224 <spiselect>
 80022cc:	2800      	cmp	r0, #0
 80022ce:	d1d0      	bne.n	8002272 <send_cmd+0x1e>
 80022d0:	20ff      	movs	r0, #255	; 0xff
 80022d2:	e7f6      	b.n	80022c2 <send_cmd+0x6e>
	if (cmd == CMD0) n = 0x95;			/* Valid CRC for CMD0(0) */
 80022d4:	2095      	movs	r0, #149	; 0x95
 80022d6:	e7e3      	b.n	80022a0 <send_cmd+0x4c>

080022d8 <xmit_datablock.part.0>:
int xmit_datablock (	/* 1:OK, 0:Failed */
 80022d8:	4601      	mov	r1, r0
 80022da:	b508      	push	{r3, lr}
	HAL_SPI_Transmit(&SD_SPI_HANDLE, buff, btx, HAL_MAX_DELAY);
 80022dc:	f44f 7200 	mov.w	r2, #512	; 0x200
 80022e0:	f04f 33ff 	mov.w	r3, #4294967295
 80022e4:	4808      	ldr	r0, [pc, #32]	; (8002308 <xmit_datablock.part.0+0x30>)
 80022e6:	f7ff fa55 	bl	8001794 <HAL_SPI_Transmit>
		xchg_spi(0xFF); xchg_spi(0xFF);	/* Dummy CRC */
 80022ea:	20ff      	movs	r0, #255	; 0xff
 80022ec:	f7ff ff62 	bl	80021b4 <xchg_spi>
 80022f0:	20ff      	movs	r0, #255	; 0xff
 80022f2:	f7ff ff5f 	bl	80021b4 <xchg_spi>
		resp = xchg_spi(0xFF);				/* Receive data resp */
 80022f6:	20ff      	movs	r0, #255	; 0xff
 80022f8:	f7ff ff5c 	bl	80021b4 <xchg_spi>
		if ((resp & 0x1F) != 0x05) return 0;	/* Function fails if the data packet was not accepted */
 80022fc:	f000 001f 	and.w	r0, r0, #31
}
 8002300:	1f43      	subs	r3, r0, #5
 8002302:	4258      	negs	r0, r3
 8002304:	4158      	adcs	r0, r3
 8002306:	bd08      	pop	{r3, pc}
 8002308:	200005ac 	.word	0x200005ac

0800230c <SPI_Timer_On>:
void SPI_Timer_On(uint32_t waitTicks) {
 800230c:	b510      	push	{r4, lr}
 800230e:	4604      	mov	r4, r0
    spiTimerTickStart = HAL_GetTick();
 8002310:	f7fe fb6e 	bl	80009f0 <HAL_GetTick>
 8002314:	4b02      	ldr	r3, [pc, #8]	; (8002320 <SPI_Timer_On+0x14>)
 8002316:	6018      	str	r0, [r3, #0]
    spiTimerTickDelay = waitTicks;
 8002318:	4b02      	ldr	r3, [pc, #8]	; (8002324 <SPI_Timer_On+0x18>)
 800231a:	601c      	str	r4, [r3, #0]
}
 800231c:	bd10      	pop	{r4, pc}
 800231e:	bf00      	nop
 8002320:	20000f30 	.word	0x20000f30
 8002324:	20000f34 	.word	0x20000f34

08002328 <SPI_Timer_Status>:
uint8_t SPI_Timer_Status() {
 8002328:	b508      	push	{r3, lr}
    return ((HAL_GetTick() - spiTimerTickStart) < spiTimerTickDelay);
 800232a:	f7fe fb61 	bl	80009f0 <HAL_GetTick>
 800232e:	4b05      	ldr	r3, [pc, #20]	; (8002344 <SPI_Timer_Status+0x1c>)
 8002330:	681b      	ldr	r3, [r3, #0]
 8002332:	1ac0      	subs	r0, r0, r3
 8002334:	4b04      	ldr	r3, [pc, #16]	; (8002348 <SPI_Timer_Status+0x20>)
 8002336:	681b      	ldr	r3, [r3, #0]
}
 8002338:	4298      	cmp	r0, r3
 800233a:	bf2c      	ite	cs
 800233c:	2000      	movcs	r0, #0
 800233e:	2001      	movcc	r0, #1
 8002340:	bd08      	pop	{r3, pc}
 8002342:	bf00      	nop
 8002344:	20000f30 	.word	0x20000f30
 8002348:	20000f34 	.word	0x20000f34

0800234c <rcvr_datablock>:
{
 800234c:	b538      	push	{r3, r4, r5, lr}
 800234e:	4604      	mov	r4, r0
	SPI_Timer_On(200);
 8002350:	20c8      	movs	r0, #200	; 0xc8
{
 8002352:	460d      	mov	r5, r1
	SPI_Timer_On(200);
 8002354:	f7ff ffda 	bl	800230c <SPI_Timer_On>
		token = xchg_spi(0xFF);
 8002358:	20ff      	movs	r0, #255	; 0xff
 800235a:	f7ff ff2b 	bl	80021b4 <xchg_spi>
	} while ((token == 0xFF) && SPI_Timer_Status());
 800235e:	28ff      	cmp	r0, #255	; 0xff
 8002360:	d105      	bne.n	800236e <rcvr_datablock+0x22>
 8002362:	f7ff ffe1 	bl	8002328 <SPI_Timer_Status>
 8002366:	2800      	cmp	r0, #0
 8002368:	d1f6      	bne.n	8002358 <rcvr_datablock+0xc>
	if(token != 0xFE) return 0;		/* Function fails if invalid DataStart token or timeout */
 800236a:	2000      	movs	r0, #0
}
 800236c:	bd38      	pop	{r3, r4, r5, pc}
	if(token != 0xFE) return 0;		/* Function fails if invalid DataStart token or timeout */
 800236e:	28fe      	cmp	r0, #254	; 0xfe
 8002370:	d1fb      	bne.n	800236a <rcvr_datablock+0x1e>
 8002372:	4425      	add	r5, r4
		*(buff+i) = xchg_spi(0xFF);
 8002374:	20ff      	movs	r0, #255	; 0xff
 8002376:	f7ff ff1d 	bl	80021b4 <xchg_spi>
 800237a:	f804 0b01 	strb.w	r0, [r4], #1
	for(UINT i=0; i<btr; i++) {
 800237e:	42a5      	cmp	r5, r4
 8002380:	d1f8      	bne.n	8002374 <rcvr_datablock+0x28>
	xchg_spi(0xFF); xchg_spi(0xFF);			/* Discard CRC */
 8002382:	20ff      	movs	r0, #255	; 0xff
 8002384:	f7ff ff16 	bl	80021b4 <xchg_spi>
 8002388:	20ff      	movs	r0, #255	; 0xff
 800238a:	f7ff ff13 	bl	80021b4 <xchg_spi>
 800238e:	2001      	movs	r0, #1
 8002390:	e7ec      	b.n	800236c <rcvr_datablock+0x20>
	...

08002394 <USER_SPI_initialize>:
/*-----------------------------------------------------------------------*/

inline DSTATUS USER_SPI_initialize (
	BYTE drv		/* Physical drive number (0) */
)
{
 8002394:	e92d 41f3 	stmdb	sp!, {r0, r1, r4, r5, r6, r7, r8, lr}
	BYTE n, cmd, ty, ocr[4];

	if (drv != 0) return STA_NOINIT;		/* Supports only drive 0 */
 8002398:	2800      	cmp	r0, #0
 800239a:	f040 8096 	bne.w	80024ca <USER_SPI_initialize+0x136>
	//assume SPI already init init_spi();	/* Initialize SPI */

	if (Stat & STA_NODISK) return Stat;	/* Is card existing in the soket? */
 800239e:	4b4c      	ldr	r3, [pc, #304]	; (80024d0 <USER_SPI_initialize+0x13c>)
 80023a0:	781a      	ldrb	r2, [r3, #0]
 80023a2:	461e      	mov	r6, r3
 80023a4:	f012 0f02 	tst.w	r2, #2
 80023a8:	d004      	beq.n	80023b4 <USER_SPI_initialize+0x20>
 80023aa:	7818      	ldrb	r0, [r3, #0]
		Stat &= ~STA_NOINIT;	/* Clear STA_NOINIT flag */
	} else {			/* Failed */
		Stat = STA_NOINIT;
	}

	return Stat;
 80023ac:	b2c0      	uxtb	r0, r0
}
 80023ae:	b002      	add	sp, #8
 80023b0:	e8bd 81f0 	ldmia.w	sp!, {r4, r5, r6, r7, r8, pc}
	FCLK_SLOW();
 80023b4:	240a      	movs	r4, #10
 80023b6:	4f47      	ldr	r7, [pc, #284]	; (80024d4 <USER_SPI_initialize+0x140>)
 80023b8:	683a      	ldr	r2, [r7, #0]
 80023ba:	6813      	ldr	r3, [r2, #0]
 80023bc:	f043 0338 	orr.w	r3, r3, #56	; 0x38
 80023c0:	6013      	str	r3, [r2, #0]
	for (n = 10; n; n--) xchg_spi(0xFF);	/* Send 80 dummy clocks */
 80023c2:	20ff      	movs	r0, #255	; 0xff
 80023c4:	3c01      	subs	r4, #1
 80023c6:	f7ff fef5 	bl	80021b4 <xchg_spi>
 80023ca:	f014 04ff 	ands.w	r4, r4, #255	; 0xff
 80023ce:	d1f8      	bne.n	80023c2 <USER_SPI_initialize+0x2e>
	if (send_cmd(CMD0, 0) == 1) {			/* Put the card SPI/Idle state */
 80023d0:	4621      	mov	r1, r4
 80023d2:	4620      	mov	r0, r4
 80023d4:	f7ff ff3e 	bl	8002254 <send_cmd>
 80023d8:	2801      	cmp	r0, #1
 80023da:	4605      	mov	r5, r0
 80023dc:	d171      	bne.n	80024c2 <USER_SPI_initialize+0x12e>
		SPI_Timer_On(1000);					/* Initialization timeout = 1 sec */
 80023de:	f44f 707a 	mov.w	r0, #1000	; 0x3e8
 80023e2:	f7ff ff93 	bl	800230c <SPI_Timer_On>
		if (send_cmd(CMD8, 0x1AA) == 1) {	/* SDv2? */
 80023e6:	f44f 71d5 	mov.w	r1, #426	; 0x1aa
 80023ea:	2008      	movs	r0, #8
 80023ec:	f7ff ff32 	bl	8002254 <send_cmd>
 80023f0:	2801      	cmp	r0, #1
 80023f2:	d14a      	bne.n	800248a <USER_SPI_initialize+0xf6>
 80023f4:	ad01      	add	r5, sp, #4
 80023f6:	46a8      	mov	r8, r5
 80023f8:	2404      	movs	r4, #4
			for (n = 0; n < 4; n++) ocr[n] = xchg_spi(0xFF);	/* Get 32 bit return value of R7 resp */
 80023fa:	20ff      	movs	r0, #255	; 0xff
 80023fc:	f7ff feda 	bl	80021b4 <xchg_spi>
 8002400:	3c01      	subs	r4, #1
 8002402:	f014 04ff 	ands.w	r4, r4, #255	; 0xff
 8002406:	f808 0b01 	strb.w	r0, [r8], #1
 800240a:	d1f6      	bne.n	80023fa <USER_SPI_initialize+0x66>
			if (ocr[2] == 0x01 && ocr[3] == 0xAA) {				/* Is the card supports vcc of 2.7-3.6V? */
 800240c:	f89d 3006 	ldrb.w	r3, [sp, #6]
 8002410:	2b01      	cmp	r3, #1
 8002412:	d156      	bne.n	80024c2 <USER_SPI_initialize+0x12e>
 8002414:	f89d 3007 	ldrb.w	r3, [sp, #7]
 8002418:	2baa      	cmp	r3, #170	; 0xaa
 800241a:	d152      	bne.n	80024c2 <USER_SPI_initialize+0x12e>
				while (SPI_Timer_Status() && send_cmd(ACMD41, 1UL << 30)) ;	/* Wait for end of initialization with ACMD41(HCS) */
 800241c:	f7ff ff84 	bl	8002328 <SPI_Timer_Status>
 8002420:	b130      	cbz	r0, 8002430 <USER_SPI_initialize+0x9c>
 8002422:	f04f 4180 	mov.w	r1, #1073741824	; 0x40000000
 8002426:	20a9      	movs	r0, #169	; 0xa9
 8002428:	f7ff ff14 	bl	8002254 <send_cmd>
 800242c:	2800      	cmp	r0, #0
 800242e:	d1f5      	bne.n	800241c <USER_SPI_initialize+0x88>
				if (SPI_Timer_Status() && send_cmd(CMD58, 0) == 0) {		/* Check CCS bit in the OCR */
 8002430:	f7ff ff7a 	bl	8002328 <SPI_Timer_Status>
 8002434:	2800      	cmp	r0, #0
 8002436:	d044      	beq.n	80024c2 <USER_SPI_initialize+0x12e>
 8002438:	2100      	movs	r1, #0
 800243a:	203a      	movs	r0, #58	; 0x3a
 800243c:	f7ff ff0a 	bl	8002254 <send_cmd>
 8002440:	2800      	cmp	r0, #0
 8002442:	d13e      	bne.n	80024c2 <USER_SPI_initialize+0x12e>
 8002444:	2404      	movs	r4, #4
					for (n = 0; n < 4; n++) ocr[n] = xchg_spi(0xFF);
 8002446:	20ff      	movs	r0, #255	; 0xff
 8002448:	f7ff feb4 	bl	80021b4 <xchg_spi>
 800244c:	3c01      	subs	r4, #1
 800244e:	f014 04ff 	ands.w	r4, r4, #255	; 0xff
 8002452:	f805 0b01 	strb.w	r0, [r5], #1
 8002456:	d1f6      	bne.n	8002446 <USER_SPI_initialize+0xb2>
					ty = (ocr[0] & 0x40) ? CT_SD2 | CT_BLOCK : CT_SD2;	/* Card id SDv2 */
 8002458:	f89d 3004 	ldrb.w	r3, [sp, #4]
 800245c:	f013 0f40 	tst.w	r3, #64	; 0x40
 8002460:	bf14      	ite	ne
 8002462:	240c      	movne	r4, #12
 8002464:	2404      	moveq	r4, #4
	CardType = ty;	/* Card type */
 8002466:	4b1c      	ldr	r3, [pc, #112]	; (80024d8 <USER_SPI_initialize+0x144>)
 8002468:	701c      	strb	r4, [r3, #0]
	despiselect();
 800246a:	f7ff fecd 	bl	8002208 <despiselect>
	if (ty) {			/* OK */
 800246e:	b354      	cbz	r4, 80024c6 <USER_SPI_initialize+0x132>
		FCLK_FAST();			/* Set fast clock */
 8002470:	683a      	ldr	r2, [r7, #0]
 8002472:	6813      	ldr	r3, [r2, #0]
 8002474:	f023 0338 	bic.w	r3, r3, #56	; 0x38
 8002478:	f043 0318 	orr.w	r3, r3, #24
 800247c:	6013      	str	r3, [r2, #0]
		Stat &= ~STA_NOINIT;	/* Clear STA_NOINIT flag */
 800247e:	7833      	ldrb	r3, [r6, #0]
 8002480:	f003 03fe 	and.w	r3, r3, #254	; 0xfe
		Stat = STA_NOINIT;
 8002484:	7033      	strb	r3, [r6, #0]
	return Stat;
 8002486:	7830      	ldrb	r0, [r6, #0]
 8002488:	e790      	b.n	80023ac <USER_SPI_initialize+0x18>
			if (send_cmd(ACMD41, 0) <= 1) 	{	/* SDv1 or MMC? */
 800248a:	4621      	mov	r1, r4
 800248c:	20a9      	movs	r0, #169	; 0xa9
 800248e:	f7ff fee1 	bl	8002254 <send_cmd>
				ty = CT_MMC; cmd = CMD1;	/* MMCv3 (CMD1(0)) */
 8002492:	2802      	cmp	r0, #2
 8002494:	bf36      	itet	cc
 8002496:	2402      	movcc	r4, #2
 8002498:	2401      	movcs	r4, #1
 800249a:	25a9      	movcc	r5, #169	; 0xa9
			while (SPI_Timer_Status() && send_cmd(cmd, 0)) ;		/* Wait for end of initialization */
 800249c:	f7ff ff44 	bl	8002328 <SPI_Timer_Status>
 80024a0:	b128      	cbz	r0, 80024ae <USER_SPI_initialize+0x11a>
 80024a2:	2100      	movs	r1, #0
 80024a4:	4628      	mov	r0, r5
 80024a6:	f7ff fed5 	bl	8002254 <send_cmd>
 80024aa:	2800      	cmp	r0, #0
 80024ac:	d1f6      	bne.n	800249c <USER_SPI_initialize+0x108>
			if (!SPI_Timer_Status() || send_cmd(CMD16, 512) != 0)	/* Set block length: 512 */
 80024ae:	f7ff ff3b 	bl	8002328 <SPI_Timer_Status>
 80024b2:	b130      	cbz	r0, 80024c2 <USER_SPI_initialize+0x12e>
 80024b4:	f44f 7100 	mov.w	r1, #512	; 0x200
 80024b8:	2010      	movs	r0, #16
 80024ba:	f7ff fecb 	bl	8002254 <send_cmd>
 80024be:	2800      	cmp	r0, #0
 80024c0:	d0d1      	beq.n	8002466 <USER_SPI_initialize+0xd2>
				ty = 0;
 80024c2:	2400      	movs	r4, #0
 80024c4:	e7cf      	b.n	8002466 <USER_SPI_initialize+0xd2>
		Stat = STA_NOINIT;
 80024c6:	2301      	movs	r3, #1
 80024c8:	e7dc      	b.n	8002484 <USER_SPI_initialize+0xf0>
	if (drv != 0) return STA_NOINIT;		/* Supports only drive 0 */
 80024ca:	2001      	movs	r0, #1
 80024cc:	e76f      	b.n	80023ae <USER_SPI_initialize+0x1a>
 80024ce:	bf00      	nop
 80024d0:	20000028 	.word	0x20000028
 80024d4:	200005ac 	.word	0x200005ac
 80024d8:	200000f8 	.word	0x200000f8

080024dc <USER_SPI_status>:

inline DSTATUS USER_SPI_status (
	BYTE drv		/* Physical drive number (0) */
)
{
	if (drv) return STA_NOINIT;		/* Supports only drive 0 */
 80024dc:	b918      	cbnz	r0, 80024e6 <USER_SPI_status+0xa>

	return Stat;	/* Return disk status */
 80024de:	4b03      	ldr	r3, [pc, #12]	; (80024ec <USER_SPI_status+0x10>)
 80024e0:	7818      	ldrb	r0, [r3, #0]
 80024e2:	b2c0      	uxtb	r0, r0
 80024e4:	4770      	bx	lr
	if (drv) return STA_NOINIT;		/* Supports only drive 0 */
 80024e6:	2001      	movs	r0, #1
}
 80024e8:	4770      	bx	lr
 80024ea:	bf00      	nop
 80024ec:	20000028 	.word	0x20000028

080024f0 <USER_SPI_read>:
	BYTE drv,		/* Physical drive number (0) */
	BYTE *buff,		/* Pointer to the data buffer to store read data */
	DWORD sector,	/* Start sector number (LBA) */
	UINT count		/* Number of sectors to read (1..128) */
)
{
 80024f0:	b538      	push	{r3, r4, r5, lr}
 80024f2:	460d      	mov	r5, r1
 80024f4:	461c      	mov	r4, r3
 80024f6:	4611      	mov	r1, r2
	if (drv || !count) return RES_PARERR;		/* Check parameter */
 80024f8:	bb88      	cbnz	r0, 800255e <USER_SPI_read+0x6e>
 80024fa:	b383      	cbz	r3, 800255e <USER_SPI_read+0x6e>
	if (Stat & STA_NOINIT) return RES_NOTRDY;	/* Check if drive is ready */
 80024fc:	4b1a      	ldr	r3, [pc, #104]	; (8002568 <USER_SPI_read+0x78>)
 80024fe:	781b      	ldrb	r3, [r3, #0]
 8002500:	07da      	lsls	r2, r3, #31
 8002502:	d42e      	bmi.n	8002562 <USER_SPI_read+0x72>

	if (!(CardType & CT_BLOCK)) sector *= 512;	/* LBA ot BA conversion (byte addressing cards) */
 8002504:	4b19      	ldr	r3, [pc, #100]	; (800256c <USER_SPI_read+0x7c>)
 8002506:	781b      	ldrb	r3, [r3, #0]
 8002508:	071b      	lsls	r3, r3, #28
 800250a:	bf58      	it	pl
 800250c:	0249      	lslpl	r1, r1, #9

	if (count == 1) {	/* Single sector read */
 800250e:	2c01      	cmp	r4, #1
 8002510:	d111      	bne.n	8002536 <USER_SPI_read+0x46>
		if ((send_cmd(CMD17, sector) == 0)	/* READ_SINGLE_BLOCK */
 8002512:	2011      	movs	r0, #17
 8002514:	f7ff fe9e 	bl	8002254 <send_cmd>
 8002518:	b938      	cbnz	r0, 800252a <USER_SPI_read+0x3a>
			&& rcvr_datablock(buff, 512)) {
 800251a:	f44f 7100 	mov.w	r1, #512	; 0x200
 800251e:	4628      	mov	r0, r5
 8002520:	f7ff ff14 	bl	800234c <rcvr_datablock>
 8002524:	fab0 f480 	clz	r4, r0
 8002528:	0964      	lsrs	r4, r4, #5
				buff += 512;
			} while (--count);
			send_cmd(CMD12, 0);				/* STOP_TRANSMISSION */
		}
	}
	despiselect();
 800252a:	f7ff fe6d 	bl	8002208 <despiselect>

	return count ? RES_ERROR : RES_OK;	/* Return result */
 800252e:	1e20      	subs	r0, r4, #0
 8002530:	bf18      	it	ne
 8002532:	2001      	movne	r0, #1
}
 8002534:	bd38      	pop	{r3, r4, r5, pc}
		if (send_cmd(CMD18, sector) == 0) {	/* READ_MULTIPLE_BLOCK */
 8002536:	2012      	movs	r0, #18
 8002538:	f7ff fe8c 	bl	8002254 <send_cmd>
 800253c:	2800      	cmp	r0, #0
 800253e:	d1f4      	bne.n	800252a <USER_SPI_read+0x3a>
				if (!rcvr_datablock(buff, 512)) break;
 8002540:	f44f 7100 	mov.w	r1, #512	; 0x200
 8002544:	4628      	mov	r0, r5
 8002546:	f7ff ff01 	bl	800234c <rcvr_datablock>
 800254a:	b118      	cbz	r0, 8002554 <USER_SPI_read+0x64>
			} while (--count);
 800254c:	3c01      	subs	r4, #1
				buff += 512;
 800254e:	f505 7500 	add.w	r5, r5, #512	; 0x200
			} while (--count);
 8002552:	d1f5      	bne.n	8002540 <USER_SPI_read+0x50>
			send_cmd(CMD12, 0);				/* STOP_TRANSMISSION */
 8002554:	2100      	movs	r1, #0
 8002556:	200c      	movs	r0, #12
 8002558:	f7ff fe7c 	bl	8002254 <send_cmd>
 800255c:	e7e5      	b.n	800252a <USER_SPI_read+0x3a>
	if (drv || !count) return RES_PARERR;		/* Check parameter */
 800255e:	2004      	movs	r0, #4
 8002560:	e7e8      	b.n	8002534 <USER_SPI_read+0x44>
	if (Stat & STA_NOINIT) return RES_NOTRDY;	/* Check if drive is ready */
 8002562:	2003      	movs	r0, #3
 8002564:	e7e6      	b.n	8002534 <USER_SPI_read+0x44>
 8002566:	bf00      	nop
 8002568:	20000028 	.word	0x20000028
 800256c:	200000f8 	.word	0x200000f8

08002570 <USER_SPI_write>:
	BYTE drv,			/* Physical drive number (0) */
	const BYTE *buff,	/* Ponter to the data to write */
	DWORD sector,		/* Start sector number (LBA) */
	UINT count			/* Number of sectors to write (1..128) */
)
{
 8002570:	b570      	push	{r4, r5, r6, lr}
 8002572:	460d      	mov	r5, r1
 8002574:	4616      	mov	r6, r2
 8002576:	461c      	mov	r4, r3
	if (drv || !count) return RES_PARERR;		/* Check parameter */
 8002578:	2800      	cmp	r0, #0
 800257a:	d152      	bne.n	8002622 <USER_SPI_write+0xb2>
 800257c:	2b00      	cmp	r3, #0
 800257e:	d050      	beq.n	8002622 <USER_SPI_write+0xb2>
	if (Stat & STA_NOINIT) return RES_NOTRDY;	/* Check drive status */
 8002580:	4b2b      	ldr	r3, [pc, #172]	; (8002630 <USER_SPI_write+0xc0>)
 8002582:	781a      	ldrb	r2, [r3, #0]
 8002584:	07d0      	lsls	r0, r2, #31
 8002586:	d44e      	bmi.n	8002626 <USER_SPI_write+0xb6>
	if (Stat & STA_PROTECT) return RES_WRPRT;	/* Check write protect */
 8002588:	781b      	ldrb	r3, [r3, #0]
 800258a:	0759      	lsls	r1, r3, #29
 800258c:	d44d      	bmi.n	800262a <USER_SPI_write+0xba>

	if (!(CardType & CT_BLOCK)) sector *= 512;	/* LBA ==> BA conversion (byte addressing cards) */
 800258e:	4b29      	ldr	r3, [pc, #164]	; (8002634 <USER_SPI_write+0xc4>)
 8002590:	781b      	ldrb	r3, [r3, #0]
 8002592:	071a      	lsls	r2, r3, #28
 8002594:	bf58      	it	pl
 8002596:	0276      	lslpl	r6, r6, #9

	if (count == 1) {	/* Single sector write */
 8002598:	2c01      	cmp	r4, #1
 800259a:	d11b      	bne.n	80025d4 <USER_SPI_write+0x64>
		if ((send_cmd(CMD24, sector) == 0)	/* WRITE_BLOCK */
 800259c:	4631      	mov	r1, r6
 800259e:	2018      	movs	r0, #24
 80025a0:	f7ff fe58 	bl	8002254 <send_cmd>
 80025a4:	b130      	cbz	r0, 80025b4 <USER_SPI_write+0x44>
{
 80025a6:	2401      	movs	r4, #1
				buff += 512;
			} while (--count);
			if (!xmit_datablock(0, 0xFD)) count = 1;	/* STOP_TRAN token */
		}
	}
	despiselect();
 80025a8:	f7ff fe2e 	bl	8002208 <despiselect>

	return count ? RES_ERROR : RES_OK;	/* Return result */
 80025ac:	1e20      	subs	r0, r4, #0
 80025ae:	bf18      	it	ne
 80025b0:	2001      	movne	r0, #1
}
 80025b2:	bd70      	pop	{r4, r5, r6, pc}
	if (!wait_ready(500)) return 0;		/* Wait for card ready */
 80025b4:	f44f 70fa 	mov.w	r0, #500	; 0x1f4
 80025b8:	f7ff fe10 	bl	80021dc <wait_ready>
 80025bc:	2800      	cmp	r0, #0
 80025be:	d0f2      	beq.n	80025a6 <USER_SPI_write+0x36>
	xchg_spi(token);					/* Send token */
 80025c0:	20fe      	movs	r0, #254	; 0xfe
 80025c2:	f7ff fdf7 	bl	80021b4 <xchg_spi>
	if (token != 0xFD) {				/* Send data if token is other than StopTran */
 80025c6:	4628      	mov	r0, r5
 80025c8:	f7ff fe86 	bl	80022d8 <xmit_datablock.part.0>
			&& xmit_datablock(buff, 0xFE)) {
 80025cc:	fab0 f480 	clz	r4, r0
 80025d0:	0964      	lsrs	r4, r4, #5
 80025d2:	e7e9      	b.n	80025a8 <USER_SPI_write+0x38>
		if (CardType & CT_SDC) send_cmd(ACMD23, count);	/* Predefine number of sectors */
 80025d4:	f013 0f06 	tst.w	r3, #6
 80025d8:	d003      	beq.n	80025e2 <USER_SPI_write+0x72>
 80025da:	4621      	mov	r1, r4
 80025dc:	2097      	movs	r0, #151	; 0x97
 80025de:	f7ff fe39 	bl	8002254 <send_cmd>
		if (send_cmd(CMD25, sector) == 0) {	/* WRITE_MULTIPLE_BLOCK */
 80025e2:	4631      	mov	r1, r6
 80025e4:	2019      	movs	r0, #25
 80025e6:	f7ff fe35 	bl	8002254 <send_cmd>
 80025ea:	2800      	cmp	r0, #0
 80025ec:	d1dc      	bne.n	80025a8 <USER_SPI_write+0x38>
	if (!wait_ready(500)) return 0;		/* Wait for card ready */
 80025ee:	f44f 70fa 	mov.w	r0, #500	; 0x1f4
 80025f2:	f7ff fdf3 	bl	80021dc <wait_ready>
 80025f6:	b150      	cbz	r0, 800260e <USER_SPI_write+0x9e>
	xchg_spi(token);					/* Send token */
 80025f8:	20fc      	movs	r0, #252	; 0xfc
 80025fa:	f7ff fddb 	bl	80021b4 <xchg_spi>
	if (token != 0xFD) {				/* Send data if token is other than StopTran */
 80025fe:	4628      	mov	r0, r5
 8002600:	f7ff fe6a 	bl	80022d8 <xmit_datablock.part.0>
				if (!xmit_datablock(buff, 0xFC)) break;
 8002604:	b118      	cbz	r0, 800260e <USER_SPI_write+0x9e>
			} while (--count);
 8002606:	3c01      	subs	r4, #1
				buff += 512;
 8002608:	f505 7500 	add.w	r5, r5, #512	; 0x200
			} while (--count);
 800260c:	d1ef      	bne.n	80025ee <USER_SPI_write+0x7e>
	if (!wait_ready(500)) return 0;		/* Wait for card ready */
 800260e:	f44f 70fa 	mov.w	r0, #500	; 0x1f4
 8002612:	f7ff fde3 	bl	80021dc <wait_ready>
 8002616:	2800      	cmp	r0, #0
 8002618:	d0c5      	beq.n	80025a6 <USER_SPI_write+0x36>
	xchg_spi(token);					/* Send token */
 800261a:	20fd      	movs	r0, #253	; 0xfd
 800261c:	f7ff fdca 	bl	80021b4 <xchg_spi>
	if (token != 0xFD) {				/* Send data if token is other than StopTran */
 8002620:	e7c2      	b.n	80025a8 <USER_SPI_write+0x38>
	if (drv || !count) return RES_PARERR;		/* Check parameter */
 8002622:	2004      	movs	r0, #4
 8002624:	e7c5      	b.n	80025b2 <USER_SPI_write+0x42>
	if (Stat & STA_NOINIT) return RES_NOTRDY;	/* Check drive status */
 8002626:	2003      	movs	r0, #3
 8002628:	e7c3      	b.n	80025b2 <USER_SPI_write+0x42>
	if (Stat & STA_PROTECT) return RES_WRPRT;	/* Check write protect */
 800262a:	2002      	movs	r0, #2
 800262c:	e7c1      	b.n	80025b2 <USER_SPI_write+0x42>
 800262e:	bf00      	nop
 8002630:	20000028 	.word	0x20000028
 8002634:	200000f8 	.word	0x200000f8

08002638 <USER_SPI_ioctl>:
inline DRESULT USER_SPI_ioctl (
	BYTE drv,		/* Physical drive number (0) */
	BYTE cmd,		/* Control command code */
	void *buff		/* Pointer to the conrtol data */
)
{
 8002638:	b57f      	push	{r0, r1, r2, r3, r4, r5, r6, lr}
 800263a:	4615      	mov	r5, r2
	DRESULT res;
	BYTE n, csd[16];
	DWORD *dp, st, ed, csize;


	if (drv) return RES_PARERR;					/* Check parameter */
 800263c:	2800      	cmp	r0, #0
 800263e:	f040 80d8 	bne.w	80027f2 <USER_SPI_ioctl+0x1ba>
	if (Stat & STA_NOINIT) return RES_NOTRDY;	/* Check if drive is ready */
 8002642:	4b6e      	ldr	r3, [pc, #440]	; (80027fc <USER_SPI_ioctl+0x1c4>)
 8002644:	781b      	ldrb	r3, [r3, #0]
 8002646:	07d8      	lsls	r0, r3, #31
 8002648:	f100 80d5 	bmi.w	80027f6 <USER_SPI_ioctl+0x1be>

	res = RES_ERROR;

	switch (cmd) {
 800264c:	2904      	cmp	r1, #4
 800264e:	f200 80ce 	bhi.w	80027ee <USER_SPI_ioctl+0x1b6>
 8002652:	e8df f001 	tbb	[pc, r1]
 8002656:	0903      	.short	0x0903
 8002658:	4acc      	.short	0x4acc
 800265a:	94          	.byte	0x94
 800265b:	00          	.byte	0x00
	case CTRL_SYNC :		/* Wait for end of internal write process of the drive */
		if (spiselect()) res = RES_OK;
 800265c:	f7ff fde2 	bl	8002224 <spiselect>
 8002660:	fab0 f480 	clz	r4, r0
 8002664:	0964      	lsrs	r4, r4, #5
 8002666:	e006      	b.n	8002676 <USER_SPI_ioctl+0x3e>
		break;

	case GET_SECTOR_COUNT :	/* Get drive capacity in unit of sector (DWORD) */
		if ((send_cmd(CMD9, 0) == 0) && rcvr_datablock(csd, 16)) {
 8002668:	2100      	movs	r1, #0
 800266a:	2009      	movs	r0, #9
 800266c:	f7ff fdf2 	bl	8002254 <send_cmd>
 8002670:	4604      	mov	r4, r0
 8002672:	b128      	cbz	r0, 8002680 <USER_SPI_ioctl+0x48>
	res = RES_ERROR;
 8002674:	2401      	movs	r4, #1

	default:
		res = RES_PARERR;
	}

	despiselect();
 8002676:	f7ff fdc7 	bl	8002208 <despiselect>

	return res;
}
 800267a:	4620      	mov	r0, r4
 800267c:	b004      	add	sp, #16
 800267e:	bd70      	pop	{r4, r5, r6, pc}
		if ((send_cmd(CMD9, 0) == 0) && rcvr_datablock(csd, 16)) {
 8002680:	2110      	movs	r1, #16
 8002682:	4668      	mov	r0, sp
 8002684:	f7ff fe62 	bl	800234c <rcvr_datablock>
 8002688:	2800      	cmp	r0, #0
 800268a:	d0f3      	beq.n	8002674 <USER_SPI_ioctl+0x3c>
			if ((csd[0] >> 6) == 1) {	/* SDC ver 2.00 */
 800268c:	f89d 3000 	ldrb.w	r3, [sp]
 8002690:	f89d 1008 	ldrb.w	r1, [sp, #8]
 8002694:	099b      	lsrs	r3, r3, #6
 8002696:	2b01      	cmp	r3, #1
 8002698:	f89d 0009 	ldrb.w	r0, [sp, #9]
 800269c:	f89d 3007 	ldrb.w	r3, [sp, #7]
 80026a0:	d109      	bne.n	80026b6 <USER_SPI_ioctl+0x7e>
				csize = csd[9] + ((WORD)csd[8] << 8) + ((DWORD)(csd[7] & 63) << 16) + 1;
 80026a2:	041a      	lsls	r2, r3, #16
 80026a4:	f402 127c 	and.w	r2, r2, #4128768	; 0x3f0000
 80026a8:	eb00 2101 	add.w	r1, r0, r1, lsl #8
 80026ac:	3201      	adds	r2, #1
 80026ae:	440a      	add	r2, r1
				*(DWORD*)buff = csize << 10;
 80026b0:	0292      	lsls	r2, r2, #10
 80026b2:	602a      	str	r2, [r5, #0]
 80026b4:	e7df      	b.n	8002676 <USER_SPI_ioctl+0x3e>
				csize = (csd[8] >> 6) + ((WORD)csd[7] << 2) + ((WORD)(csd[6] & 3) << 10) + 1;
 80026b6:	f89d 2006 	ldrb.w	r2, [sp, #6]
 80026ba:	009b      	lsls	r3, r3, #2
 80026bc:	0292      	lsls	r2, r2, #10
 80026be:	eb03 1391 	add.w	r3, r3, r1, lsr #6
 80026c2:	f402 6240 	and.w	r2, r2, #3072	; 0xc00
 80026c6:	4413      	add	r3, r2
				n = (csd[5] & 15) + ((csd[10] & 128) >> 7) + ((csd[9] & 3) << 1) + 2;
 80026c8:	f89d 2005 	ldrb.w	r2, [sp, #5]
 80026cc:	f89d 100a 	ldrb.w	r1, [sp, #10]
 80026d0:	f002 020f 	and.w	r2, r2, #15
 80026d4:	eb02 12d1 	add.w	r2, r2, r1, lsr #7
 80026d8:	0041      	lsls	r1, r0, #1
 80026da:	f001 0106 	and.w	r1, r1, #6
				*(DWORD*)buff = csize << (n - 9);
 80026de:	440a      	add	r2, r1
				csize = (csd[8] >> 6) + ((WORD)csd[7] << 2) + ((WORD)(csd[6] & 3) << 10) + 1;
 80026e0:	3301      	adds	r3, #1
				*(DWORD*)buff = csize << (n - 9);
 80026e2:	3a07      	subs	r2, #7
					*(DWORD*)buff = (((csd[10] & 63) << 1) + ((WORD)(csd[11] & 128) >> 7) + 1) << ((csd[13] >> 6) - 1);
 80026e4:	4093      	lsls	r3, r2
					*(DWORD*)buff = ((WORD)((csd[10] & 124) >> 2) + 1) * (((csd[11] & 3) << 3) + ((csd[11] & 224) >> 5) + 1);
 80026e6:	602b      	str	r3, [r5, #0]
 80026e8:	e7c5      	b.n	8002676 <USER_SPI_ioctl+0x3e>
		if (CardType & CT_SD2) {	/* SDC ver 2.00 */
 80026ea:	4e45      	ldr	r6, [pc, #276]	; (8002800 <USER_SPI_ioctl+0x1c8>)
 80026ec:	7831      	ldrb	r1, [r6, #0]
 80026ee:	f011 0104 	ands.w	r1, r1, #4
 80026f2:	d01b      	beq.n	800272c <USER_SPI_ioctl+0xf4>
			if (send_cmd(ACMD13, 0) == 0) {	/* Read SD status */
 80026f4:	2100      	movs	r1, #0
 80026f6:	208d      	movs	r0, #141	; 0x8d
 80026f8:	f7ff fdac 	bl	8002254 <send_cmd>
 80026fc:	2800      	cmp	r0, #0
 80026fe:	d1b9      	bne.n	8002674 <USER_SPI_ioctl+0x3c>
				xchg_spi(0xFF);
 8002700:	20ff      	movs	r0, #255	; 0xff
 8002702:	f7ff fd57 	bl	80021b4 <xchg_spi>
				if (rcvr_datablock(csd, 16)) {				/* Read partial block */
 8002706:	2110      	movs	r1, #16
 8002708:	4668      	mov	r0, sp
 800270a:	f7ff fe1f 	bl	800234c <rcvr_datablock>
 800270e:	2800      	cmp	r0, #0
 8002710:	d0b0      	beq.n	8002674 <USER_SPI_ioctl+0x3c>
 8002712:	2430      	movs	r4, #48	; 0x30
					for (n = 64 - 16; n; n--) xchg_spi(0xFF);	/* Purge trailing data */
 8002714:	20ff      	movs	r0, #255	; 0xff
 8002716:	f7ff fd4d 	bl	80021b4 <xchg_spi>
 800271a:	1e60      	subs	r0, r4, #1
 800271c:	f010 04ff 	ands.w	r4, r0, #255	; 0xff
 8002720:	d1f8      	bne.n	8002714 <USER_SPI_ioctl+0xdc>
					*(DWORD*)buff = 16UL << (csd[10] >> 4);
 8002722:	f89d 300a 	ldrb.w	r3, [sp, #10]
 8002726:	091a      	lsrs	r2, r3, #4
 8002728:	2310      	movs	r3, #16
 800272a:	e7db      	b.n	80026e4 <USER_SPI_ioctl+0xac>
			if ((send_cmd(CMD9, 0) == 0) && rcvr_datablock(csd, 16)) {	/* Read CSD */
 800272c:	2009      	movs	r0, #9
 800272e:	f7ff fd91 	bl	8002254 <send_cmd>
 8002732:	4604      	mov	r4, r0
 8002734:	2800      	cmp	r0, #0
 8002736:	d19d      	bne.n	8002674 <USER_SPI_ioctl+0x3c>
 8002738:	2110      	movs	r1, #16
 800273a:	4668      	mov	r0, sp
 800273c:	f7ff fe06 	bl	800234c <rcvr_datablock>
 8002740:	2800      	cmp	r0, #0
 8002742:	d097      	beq.n	8002674 <USER_SPI_ioctl+0x3c>
				if (CardType & CT_SD1) {	/* SDC ver 1.XX */
 8002744:	7832      	ldrb	r2, [r6, #0]
 8002746:	f89d 300a 	ldrb.w	r3, [sp, #10]
 800274a:	0792      	lsls	r2, r2, #30
 800274c:	f89d 100b 	ldrb.w	r1, [sp, #11]
 8002750:	d50a      	bpl.n	8002768 <USER_SPI_ioctl+0x130>
					*(DWORD*)buff = (((csd[10] & 63) << 1) + ((WORD)(csd[11] & 128) >> 7) + 1) << ((csd[13] >> 6) - 1);
 8002752:	f89d 200d 	ldrb.w	r2, [sp, #13]
 8002756:	005b      	lsls	r3, r3, #1
 8002758:	f003 037e 	and.w	r3, r3, #126	; 0x7e
 800275c:	eb03 13d1 	add.w	r3, r3, r1, lsr #7
 8002760:	0992      	lsrs	r2, r2, #6
 8002762:	3301      	adds	r3, #1
 8002764:	3a01      	subs	r2, #1
 8002766:	e7bd      	b.n	80026e4 <USER_SPI_ioctl+0xac>
					*(DWORD*)buff = ((WORD)((csd[10] & 124) >> 2) + 1) * (((csd[11] & 3) << 3) + ((csd[11] & 224) >> 5) + 1);
 8002768:	00ca      	lsls	r2, r1, #3
 800276a:	f002 0218 	and.w	r2, r2, #24
 800276e:	f3c3 0384 	ubfx	r3, r3, #2, #5
 8002772:	eb02 1251 	add.w	r2, r2, r1, lsr #5
 8002776:	3301      	adds	r3, #1
 8002778:	fb02 3303 	mla	r3, r2, r3, r3
 800277c:	e7b3      	b.n	80026e6 <USER_SPI_ioctl+0xae>
		if (!(CardType & CT_SDC)) break;				/* Check if the card is SDC */
 800277e:	4e20      	ldr	r6, [pc, #128]	; (8002800 <USER_SPI_ioctl+0x1c8>)
 8002780:	7833      	ldrb	r3, [r6, #0]
 8002782:	f013 0f06 	tst.w	r3, #6
 8002786:	f43f af75 	beq.w	8002674 <USER_SPI_ioctl+0x3c>
		if (USER_SPI_ioctl(drv, MMC_GET_CSD, csd)) break;	/* Get CSD */
 800278a:	466a      	mov	r2, sp
 800278c:	210b      	movs	r1, #11
 800278e:	2000      	movs	r0, #0
 8002790:	f7ff ff52 	bl	8002638 <USER_SPI_ioctl>
 8002794:	2800      	cmp	r0, #0
 8002796:	f47f af6d 	bne.w	8002674 <USER_SPI_ioctl+0x3c>
		if (!(csd[0] >> 6) && !(csd[10] & 0x40)) break;	/* Check if sector erase can be applied to the card */
 800279a:	f89d 300a 	ldrb.w	r3, [sp, #10]
 800279e:	f89d 2000 	ldrb.w	r2, [sp]
 80027a2:	f003 0340 	and.w	r3, r3, #64	; 0x40
 80027a6:	ea53 1392 	orrs.w	r3, r3, r2, lsr #6
 80027aa:	f43f af63 	beq.w	8002674 <USER_SPI_ioctl+0x3c>
		dp = buff; st = dp[0]; ed = dp[1];				/* Load sector block */
 80027ae:	e9d5 1400 	ldrd	r1, r4, [r5]
		if (!(CardType & CT_BLOCK)) {
 80027b2:	7833      	ldrb	r3, [r6, #0]
		if (send_cmd(CMD32, st) == 0 && send_cmd(CMD33, ed) == 0 && send_cmd(CMD38, 0) == 0 && wait_ready(30000)) {	/* Erase sector block */
 80027b4:	2020      	movs	r0, #32
		if (!(CardType & CT_BLOCK)) {
 80027b6:	071b      	lsls	r3, r3, #28
			st *= 512; ed *= 512;
 80027b8:	bf5c      	itt	pl
 80027ba:	0249      	lslpl	r1, r1, #9
 80027bc:	0264      	lslpl	r4, r4, #9
		if (send_cmd(CMD32, st) == 0 && send_cmd(CMD33, ed) == 0 && send_cmd(CMD38, 0) == 0 && wait_ready(30000)) {	/* Erase sector block */
 80027be:	f7ff fd49 	bl	8002254 <send_cmd>
 80027c2:	2800      	cmp	r0, #0
 80027c4:	f47f af56 	bne.w	8002674 <USER_SPI_ioctl+0x3c>
 80027c8:	4621      	mov	r1, r4
 80027ca:	2021      	movs	r0, #33	; 0x21
 80027cc:	f7ff fd42 	bl	8002254 <send_cmd>
 80027d0:	4601      	mov	r1, r0
 80027d2:	2800      	cmp	r0, #0
 80027d4:	f47f af4e 	bne.w	8002674 <USER_SPI_ioctl+0x3c>
 80027d8:	2026      	movs	r0, #38	; 0x26
 80027da:	f7ff fd3b 	bl	8002254 <send_cmd>
 80027de:	2800      	cmp	r0, #0
 80027e0:	f47f af48 	bne.w	8002674 <USER_SPI_ioctl+0x3c>
 80027e4:	f247 5030 	movw	r0, #30000	; 0x7530
 80027e8:	f7ff fcf8 	bl	80021dc <wait_ready>
 80027ec:	e738      	b.n	8002660 <USER_SPI_ioctl+0x28>
	if (Stat & STA_NOINIT) return RES_NOTRDY;	/* Check if drive is ready */
 80027ee:	2404      	movs	r4, #4
 80027f0:	e741      	b.n	8002676 <USER_SPI_ioctl+0x3e>
	if (drv) return RES_PARERR;					/* Check parameter */
 80027f2:	2404      	movs	r4, #4
 80027f4:	e741      	b.n	800267a <USER_SPI_ioctl+0x42>
	if (Stat & STA_NOINIT) return RES_NOTRDY;	/* Check if drive is ready */
 80027f6:	2403      	movs	r4, #3
 80027f8:	e73f      	b.n	800267a <USER_SPI_ioctl+0x42>
 80027fa:	bf00      	nop
 80027fc:	20000028 	.word	0x20000028
 8002800:	200000f8 	.word	0x200000f8

08002804 <disk_status>:
	BYTE pdrv		/* Physical drive nmuber to identify the drive */
)
{
  DSTATUS stat;
  
  stat = disk.drv[pdrv]->disk_status(disk.lun[pdrv]);
 8002804:	4b03      	ldr	r3, [pc, #12]	; (8002814 <disk_status+0x10>)
 8002806:	181a      	adds	r2, r3, r0
 8002808:	eb03 0380 	add.w	r3, r3, r0, lsl #2
 800280c:	685b      	ldr	r3, [r3, #4]
 800280e:	7a10      	ldrb	r0, [r2, #8]
 8002810:	685b      	ldr	r3, [r3, #4]
 8002812:	4718      	bx	r3
 8002814:	2000015c 	.word	0x2000015c

08002818 <disk_initialize>:
	BYTE pdrv				/* Physical drive nmuber to identify the drive */
)
{
  DSTATUS stat = RES_OK;
  
  if(disk.is_initialized[pdrv] == 0)
 8002818:	4b06      	ldr	r3, [pc, #24]	; (8002834 <disk_initialize+0x1c>)
 800281a:	5c1a      	ldrb	r2, [r3, r0]
 800281c:	b942      	cbnz	r2, 8002830 <disk_initialize+0x18>
  { 
    disk.is_initialized[pdrv] = 1;
 800281e:	2201      	movs	r2, #1
 8002820:	541a      	strb	r2, [r3, r0]
    stat = disk.drv[pdrv]->disk_initialize(disk.lun[pdrv]);
 8002822:	181a      	adds	r2, r3, r0
 8002824:	eb03 0380 	add.w	r3, r3, r0, lsl #2
 8002828:	685b      	ldr	r3, [r3, #4]
 800282a:	7a10      	ldrb	r0, [r2, #8]
 800282c:	681b      	ldr	r3, [r3, #0]
 800282e:	4718      	bx	r3
  }
  return stat;
}
 8002830:	2000      	movs	r0, #0
 8002832:	4770      	bx	lr
 8002834:	2000015c 	.word	0x2000015c

08002838 <disk_read>:
	BYTE pdrv,		/* Physical drive nmuber to identify the drive */
	BYTE *buff,		/* Data buffer to store read data */
	DWORD sector,	        /* Sector address in LBA */
	UINT count		/* Number of sectors to read */
)
{
 8002838:	b430      	push	{r4, r5}
  DRESULT res;
 
  res = disk.drv[pdrv]->disk_read(disk.lun[pdrv], buff, sector, count);
 800283a:	4c05      	ldr	r4, [pc, #20]	; (8002850 <disk_read+0x18>)
 800283c:	1825      	adds	r5, r4, r0
 800283e:	eb04 0480 	add.w	r4, r4, r0, lsl #2
 8002842:	6860      	ldr	r0, [r4, #4]
 8002844:	6884      	ldr	r4, [r0, #8]
 8002846:	7a28      	ldrb	r0, [r5, #8]
 8002848:	46a4      	mov	ip, r4
  return res;
}
 800284a:	bc30      	pop	{r4, r5}
  res = disk.drv[pdrv]->disk_read(disk.lun[pdrv], buff, sector, count);
 800284c:	4760      	bx	ip
 800284e:	bf00      	nop
 8002850:	2000015c 	.word	0x2000015c

08002854 <disk_write>:
	BYTE pdrv,		/* Physical drive nmuber to identify the drive */
	const BYTE *buff,	/* Data to be written */
	DWORD sector,		/* Sector address in LBA */
	UINT count        	/* Number of sectors to write */
)
{
 8002854:	b430      	push	{r4, r5}
  DRESULT res;
  
  res = disk.drv[pdrv]->disk_write(disk.lun[pdrv], buff, sector, count);
 8002856:	4c05      	ldr	r4, [pc, #20]	; (800286c <disk_write+0x18>)
 8002858:	1825      	adds	r5, r4, r0
 800285a:	eb04 0480 	add.w	r4, r4, r0, lsl #2
 800285e:	6860      	ldr	r0, [r4, #4]
 8002860:	68c4      	ldr	r4, [r0, #12]
 8002862:	7a28      	ldrb	r0, [r5, #8]
 8002864:	46a4      	mov	ip, r4
  return res;
}
 8002866:	bc30      	pop	{r4, r5}
  res = disk.drv[pdrv]->disk_write(disk.lun[pdrv], buff, sector, count);
 8002868:	4760      	bx	ip
 800286a:	bf00      	nop
 800286c:	2000015c 	.word	0x2000015c

08002870 <disk_ioctl>:
DRESULT disk_ioctl (
	BYTE pdrv,		/* Physical drive nmuber (0..) */
	BYTE cmd,		/* Control code */
	void *buff		/* Buffer to send/receive control data */
)
{
 8002870:	b410      	push	{r4}
  DRESULT res;

  res = disk.drv[pdrv]->disk_ioctl(disk.lun[pdrv], cmd, buff);
 8002872:	4b04      	ldr	r3, [pc, #16]	; (8002884 <disk_ioctl+0x14>)
 8002874:	181c      	adds	r4, r3, r0
 8002876:	eb03 0380 	add.w	r3, r3, r0, lsl #2
 800287a:	685b      	ldr	r3, [r3, #4]
 800287c:	7a20      	ldrb	r0, [r4, #8]
 800287e:	691b      	ldr	r3, [r3, #16]
  return res;
}
 8002880:	bc10      	pop	{r4}
  res = disk.drv[pdrv]->disk_ioctl(disk.lun[pdrv], cmd, buff);
 8002882:	4718      	bx	r3
 8002884:	2000015c 	.word	0x2000015c

08002888 <mem_cpy>:
		*(int*)d = *(int*)s;
		d += sizeof (int); s += sizeof (int);
		cnt -= sizeof (int);
	}
#endif
	while (cnt--)
 8002888:	3801      	subs	r0, #1
 800288a:	440a      	add	r2, r1
 800288c:	4291      	cmp	r1, r2
 800288e:	d100      	bne.n	8002892 <mem_cpy+0xa>
		*d++ = *s++;
}
 8002890:	4770      	bx	lr
		*d++ = *s++;
 8002892:	f811 3b01 	ldrb.w	r3, [r1], #1
 8002896:	f800 3f01 	strb.w	r3, [r0, #1]!
 800289a:	e7f7      	b.n	800288c <mem_cpy+0x4>

0800289c <mem_set>:
/* Fill memory */
static
void mem_set (void* dst, int val, UINT cnt) {
	BYTE *d = (BYTE*)dst;

	while (cnt--)
 800289c:	4402      	add	r2, r0
 800289e:	4290      	cmp	r0, r2
 80028a0:	d100      	bne.n	80028a4 <mem_set+0x8>
		*d++ = (BYTE)val;
}
 80028a2:	4770      	bx	lr
		*d++ = (BYTE)val;
 80028a4:	f800 1b01 	strb.w	r1, [r0], #1
 80028a8:	e7f9      	b.n	800289e <mem_set+0x2>
	...

080028ac <chk_lock>:
{
	UINT i, be;

	/* Search file semaphore table */
	for (i = be = 0; i < _FS_LOCK; i++) {
		if (Files[i].fs) {	/* Existing entry */
 80028ac:	4b1f      	ldr	r3, [pc, #124]	; (800292c <chk_lock+0x80>)
{
 80028ae:	4602      	mov	r2, r0
		if (Files[i].fs) {	/* Existing entry */
 80028b0:	6818      	ldr	r0, [r3, #0]
{
 80028b2:	b530      	push	{r4, r5, lr}
		if (Files[i].fs) {	/* Existing entry */
 80028b4:	b178      	cbz	r0, 80028d6 <chk_lock+0x2a>
			if (Files[i].fs == dp->fs &&	 	/* Check if the object matched with an open object */
 80028b6:	f8d2 4200 	ldr.w	r4, [r2, #512]	; 0x200
 80028ba:	4284      	cmp	r4, r0
 80028bc:	d109      	bne.n	80028d2 <chk_lock+0x26>
 80028be:	685c      	ldr	r4, [r3, #4]
 80028c0:	f8d2 0208 	ldr.w	r0, [r2, #520]	; 0x208
 80028c4:	4284      	cmp	r4, r0
 80028c6:	d104      	bne.n	80028d2 <chk_lock+0x26>
				Files[i].clu == dp->sclust &&
 80028c8:	891c      	ldrh	r4, [r3, #8]
 80028ca:	f8b2 0206 	ldrh.w	r0, [r2, #518]	; 0x206
 80028ce:	4284      	cmp	r4, r0
 80028d0:	d024      	beq.n	800291c <chk_lock+0x70>
	for (i = be = 0; i < _FS_LOCK; i++) {
 80028d2:	2400      	movs	r4, #0
 80028d4:	e000      	b.n	80028d8 <chk_lock+0x2c>
				Files[i].idx == dp->index) break;
		} else {			/* Blank entry */
			be = 1;
 80028d6:	2401      	movs	r4, #1
		if (Files[i].fs) {	/* Existing entry */
 80028d8:	68d8      	ldr	r0, [r3, #12]
 80028da:	b190      	cbz	r0, 8002902 <chk_lock+0x56>
			if (Files[i].fs == dp->fs &&	 	/* Check if the object matched with an open object */
 80028dc:	f8d2 5200 	ldr.w	r5, [r2, #512]	; 0x200
 80028e0:	42a8      	cmp	r0, r5
 80028e2:	d109      	bne.n	80028f8 <chk_lock+0x4c>
 80028e4:	691d      	ldr	r5, [r3, #16]
 80028e6:	f8d2 0208 	ldr.w	r0, [r2, #520]	; 0x208
 80028ea:	4285      	cmp	r5, r0
 80028ec:	d104      	bne.n	80028f8 <chk_lock+0x4c>
				Files[i].clu == dp->sclust &&
 80028ee:	8a98      	ldrh	r0, [r3, #20]
 80028f0:	f8b2 2206 	ldrh.w	r2, [r2, #518]	; 0x206
 80028f4:	4290      	cmp	r0, r2
 80028f6:	d016      	beq.n	8002926 <chk_lock+0x7a>
		}
	}
	if (i == _FS_LOCK)	/* The object is not opened */
		return (be || acc == 2) ? FR_OK : FR_TOO_MANY_OPEN_FILES;	/* Is there a blank entry for new object? */
 80028f8:	b974      	cbnz	r4, 8002918 <chk_lock+0x6c>
 80028fa:	2902      	cmp	r1, #2
 80028fc:	bf0c      	ite	eq
 80028fe:	2000      	moveq	r0, #0
 8002900:	2012      	movne	r0, #18

	/* The object has been opened. Reject any open against writing file and all write mode open */
	return (acc || Files[i].ctr == 0x100) ? FR_LOCKED : FR_OK;
}
 8002902:	bd30      	pop	{r4, r5, pc}
	return (acc || Files[i].ctr == 0x100) ? FR_LOCKED : FR_OK;
 8002904:	210c      	movs	r1, #12
 8002906:	fb01 3302 	mla	r3, r1, r2, r3
 800290a:	895b      	ldrh	r3, [r3, #10]
 800290c:	f5b3 7f80 	cmp.w	r3, #256	; 0x100
 8002910:	bf14      	ite	ne
 8002912:	2000      	movne	r0, #0
 8002914:	2010      	moveq	r0, #16
 8002916:	e7f4      	b.n	8002902 <chk_lock+0x56>
 8002918:	2000      	movs	r0, #0
 800291a:	e7f2      	b.n	8002902 <chk_lock+0x56>
	for (i = be = 0; i < _FS_LOCK; i++) {
 800291c:	2200      	movs	r2, #0
	return (acc || Files[i].ctr == 0x100) ? FR_LOCKED : FR_OK;
 800291e:	2900      	cmp	r1, #0
 8002920:	d0f0      	beq.n	8002904 <chk_lock+0x58>
 8002922:	2010      	movs	r0, #16
 8002924:	e7ed      	b.n	8002902 <chk_lock+0x56>
	for (i = be = 0; i < _FS_LOCK; i++) {
 8002926:	2201      	movs	r2, #1
 8002928:	e7f9      	b.n	800291e <chk_lock+0x72>
 800292a:	bf00      	nop
 800292c:	20000100 	.word	0x20000100

08002930 <inc_lock>:
{
	UINT i;


	for (i = 0; i < _FS_LOCK; i++) {	/* Find the object */
		if (Files[i].fs == dp->fs &&
 8002930:	4a24      	ldr	r2, [pc, #144]	; (80029c4 <inc_lock+0x94>)
{
 8002932:	b5f0      	push	{r4, r5, r6, r7, lr}
		if (Files[i].fs == dp->fs &&
 8002934:	6813      	ldr	r3, [r2, #0]
 8002936:	f8d0 6200 	ldr.w	r6, [r0, #512]	; 0x200
 800293a:	429e      	cmp	r6, r3
 800293c:	d109      	bne.n	8002952 <inc_lock+0x22>
 800293e:	6855      	ldr	r5, [r2, #4]
 8002940:	f8d0 4208 	ldr.w	r4, [r0, #520]	; 0x208
 8002944:	42a5      	cmp	r5, r4
 8002946:	d104      	bne.n	8002952 <inc_lock+0x22>
			Files[i].clu == dp->sclust &&
 8002948:	f8b0 5206 	ldrh.w	r5, [r0, #518]	; 0x206
 800294c:	8914      	ldrh	r4, [r2, #8]
 800294e:	42a5      	cmp	r5, r4
 8002950:	d01f      	beq.n	8002992 <inc_lock+0x62>
		if (Files[i].fs == dp->fs &&
 8002952:	68d4      	ldr	r4, [r2, #12]
 8002954:	42b4      	cmp	r4, r6
 8002956:	d109      	bne.n	800296c <inc_lock+0x3c>
 8002958:	6917      	ldr	r7, [r2, #16]
 800295a:	f8d0 5208 	ldr.w	r5, [r0, #520]	; 0x208
 800295e:	42af      	cmp	r7, r5
 8002960:	d104      	bne.n	800296c <inc_lock+0x3c>
			Files[i].clu == dp->sclust &&
 8002962:	8a97      	ldrh	r7, [r2, #20]
 8002964:	f8b0 5206 	ldrh.w	r5, [r0, #518]	; 0x206
 8002968:	42af      	cmp	r7, r5
 800296a:	d01c      	beq.n	80029a6 <inc_lock+0x76>
			Files[i].idx == dp->index) break;
	}

	if (i == _FS_LOCK) {				/* Not opened. Register it as new. */
		for (i = 0; i < _FS_LOCK && Files[i].fs; i++) ;
 800296c:	b10b      	cbz	r3, 8002972 <inc_lock+0x42>
 800296e:	b9c4      	cbnz	r4, 80029a2 <inc_lock+0x72>
 8002970:	2301      	movs	r3, #1
		if (i == _FS_LOCK) return 0;	/* No free entry to register (int err) */
		Files[i].fs = dp->fs;
 8002972:	240c      	movs	r4, #12
 8002974:	435c      	muls	r4, r3
 8002976:	1915      	adds	r5, r2, r4
 8002978:	5116      	str	r6, [r2, r4]
		Files[i].clu = dp->sclust;
 800297a:	f8d0 4208 	ldr.w	r4, [r0, #520]	; 0x208
		Files[i].idx = dp->index;
 800297e:	f8b0 0206 	ldrh.w	r0, [r0, #518]	; 0x206
		Files[i].clu = dp->sclust;
 8002982:	606c      	str	r4, [r5, #4]
		Files[i].idx = dp->index;
 8002984:	8128      	strh	r0, [r5, #8]
		Files[i].ctr = 0;
 8002986:	2000      	movs	r0, #0
 8002988:	8168      	strh	r0, [r5, #10]
	}

	if (acc && Files[i].ctr) return 0;	/* Access violation (int err) */
 800298a:	b171      	cbz	r1, 80029aa <inc_lock+0x7a>

	Files[i].ctr = acc ? 0x100 : Files[i].ctr + 1;	/* Set semaphore value */
 800298c:	f44f 7180 	mov.w	r1, #256	; 0x100
 8002990:	e011      	b.n	80029b6 <inc_lock+0x86>
	for (i = 0; i < _FS_LOCK; i++) {	/* Find the object */
 8002992:	2300      	movs	r3, #0
	if (acc && Files[i].ctr) return 0;	/* Access violation (int err) */
 8002994:	b149      	cbz	r1, 80029aa <inc_lock+0x7a>
 8002996:	210c      	movs	r1, #12
 8002998:	fb01 2103 	mla	r1, r1, r3, r2
 800299c:	8949      	ldrh	r1, [r1, #10]
 800299e:	2900      	cmp	r1, #0
 80029a0:	d0f4      	beq.n	800298c <inc_lock+0x5c>
		if (i == _FS_LOCK) return 0;	/* No free entry to register (int err) */
 80029a2:	2000      	movs	r0, #0
 80029a4:	e00c      	b.n	80029c0 <inc_lock+0x90>
	for (i = 0; i < _FS_LOCK; i++) {	/* Find the object */
 80029a6:	2301      	movs	r3, #1
 80029a8:	e7f4      	b.n	8002994 <inc_lock+0x64>
	Files[i].ctr = acc ? 0x100 : Files[i].ctr + 1;	/* Set semaphore value */
 80029aa:	210c      	movs	r1, #12
 80029ac:	fb01 2103 	mla	r1, r1, r3, r2
 80029b0:	8949      	ldrh	r1, [r1, #10]
 80029b2:	3101      	adds	r1, #1
 80029b4:	b289      	uxth	r1, r1
 80029b6:	200c      	movs	r0, #12
 80029b8:	fb00 2203 	mla	r2, r0, r3, r2

	return i + 1;
 80029bc:	1c58      	adds	r0, r3, #1
	Files[i].ctr = acc ? 0x100 : Files[i].ctr + 1;	/* Set semaphore value */
 80029be:	8151      	strh	r1, [r2, #10]
}
 80029c0:	bdf0      	pop	{r4, r5, r6, r7, pc}
 80029c2:	bf00      	nop
 80029c4:	20000100 	.word	0x20000100

080029c8 <dec_lock>:
{
	WORD n;
	FRESULT res;


	if (--i < _FS_LOCK) {	/* Shift index number origin from 0 */
 80029c8:	3801      	subs	r0, #1
 80029ca:	2801      	cmp	r0, #1
 80029cc:	d817      	bhi.n	80029fe <dec_lock+0x36>
		n = Files[i].ctr;
 80029ce:	220c      	movs	r2, #12
 80029d0:	490c      	ldr	r1, [pc, #48]	; (8002a04 <dec_lock+0x3c>)
 80029d2:	fb02 1200 	mla	r2, r2, r0, r1
 80029d6:	8953      	ldrh	r3, [r2, #10]
		if (n == 0x100) n = 0;		/* If write mode open, delete the entry */
 80029d8:	f5b3 7f80 	cmp.w	r3, #256	; 0x100
 80029dc:	d106      	bne.n	80029ec <dec_lock+0x24>
		if (n) n--;					/* Decrement read mode open count */
		Files[i].ctr = n;
 80029de:	2300      	movs	r3, #0
 80029e0:	8153      	strh	r3, [r2, #10]
		if (!n) Files[i].fs = 0;	/* Delete the entry if open count gets zero */
 80029e2:	230c      	movs	r3, #12
 80029e4:	4343      	muls	r3, r0
 80029e6:	2000      	movs	r0, #0
 80029e8:	50c8      	str	r0, [r1, r3]
 80029ea:	4770      	bx	lr
		if (n) n--;					/* Decrement read mode open count */
 80029ec:	2b00      	cmp	r3, #0
 80029ee:	d0f8      	beq.n	80029e2 <dec_lock+0x1a>
 80029f0:	3b01      	subs	r3, #1
 80029f2:	b29b      	uxth	r3, r3
		Files[i].ctr = n;
 80029f4:	8153      	strh	r3, [r2, #10]
		if (!n) Files[i].fs = 0;	/* Delete the entry if open count gets zero */
 80029f6:	2b00      	cmp	r3, #0
 80029f8:	d0f3      	beq.n	80029e2 <dec_lock+0x1a>
		res = FR_OK;
 80029fa:	2000      	movs	r0, #0
 80029fc:	4770      	bx	lr
	} else {
		res = FR_INT_ERR;			/* Invalid index nunber */
 80029fe:	2002      	movs	r0, #2
	}
	return res;
}
 8002a00:	4770      	bx	lr
 8002a02:	bf00      	nop
 8002a04:	20000100 	.word	0x20000100

08002a08 <clmt_clust>:
{
	DWORD cl, ncl, *tbl;


	tbl = fp->cltbl + 1;	/* Top of CLMT */
	cl = ofs / SS(fp->fs) / fp->fs->csize;	/* Cluster order from top of the file */
 8002a08:	f8d0 2200 	ldr.w	r2, [r0, #512]	; 0x200
 8002a0c:	0a49      	lsrs	r1, r1, #9
 8002a0e:	f892 2202 	ldrb.w	r2, [r2, #514]	; 0x202
	tbl = fp->cltbl + 1;	/* Top of CLMT */
 8002a12:	f8d0 3224 	ldr.w	r3, [r0, #548]	; 0x224
	cl = ofs / SS(fp->fs) / fp->fs->csize;	/* Cluster order from top of the file */
 8002a16:	fbb1 f1f2 	udiv	r1, r1, r2
	tbl = fp->cltbl + 1;	/* Top of CLMT */
 8002a1a:	3304      	adds	r3, #4
	for (;;) {
		ncl = *tbl++;			/* Number of cluters in the fragment */
 8002a1c:	6818      	ldr	r0, [r3, #0]
		if (!ncl) return 0;		/* End of table? (error) */
 8002a1e:	b130      	cbz	r0, 8002a2e <clmt_clust+0x26>
		if (cl < ncl) break;	/* In this fragment? */
 8002a20:	4281      	cmp	r1, r0
 8002a22:	d302      	bcc.n	8002a2a <clmt_clust+0x22>
		cl -= ncl; tbl++;		/* Next fragment */
 8002a24:	1a09      	subs	r1, r1, r0
 8002a26:	3308      	adds	r3, #8
		ncl = *tbl++;			/* Number of cluters in the fragment */
 8002a28:	e7f8      	b.n	8002a1c <clmt_clust+0x14>
	}
	return cl + *tbl;	/* Return the cluster number */
 8002a2a:	6858      	ldr	r0, [r3, #4]
 8002a2c:	4408      	add	r0, r1
}
 8002a2e:	4770      	bx	lr

08002a30 <sum_sfn>:
#if _USE_LFN
static
BYTE sum_sfn (
	const BYTE* dir		/* Pointer to the SFN entry */
)
{
 8002a30:	4603      	mov	r3, r0
 8002a32:	f100 010b 	add.w	r1, r0, #11
	BYTE sum = 0;
 8002a36:	2000      	movs	r0, #0
	UINT n = 11;

	do sum = (sum >> 1) + (sum << 7) + *dir++; while (--n);
 8002a38:	01c2      	lsls	r2, r0, #7
 8002a3a:	ea42 0050 	orr.w	r0, r2, r0, lsr #1
 8002a3e:	f813 2b01 	ldrb.w	r2, [r3], #1
 8002a42:	4410      	add	r0, r2
 8002a44:	428b      	cmp	r3, r1
 8002a46:	f000 00ff 	and.w	r0, r0, #255	; 0xff
 8002a4a:	d1f5      	bne.n	8002a38 <sum_sfn+0x8>
	return sum;
}
 8002a4c:	4770      	bx	lr

08002a4e <get_ldnumber>:
	char c;
	TCHAR tc;
#endif


	if (*path) {	/* If the pointer is not a null */
 8002a4e:	6802      	ldr	r2, [r0, #0]
{
 8002a50:	b510      	push	{r4, lr}
	if (*path) {	/* If the pointer is not a null */
 8002a52:	b152      	cbz	r2, 8002a6a <get_ldnumber+0x1c>
 8002a54:	4611      	mov	r1, r2
 8002a56:	460b      	mov	r3, r1
		for (tt = *path; (UINT)*tt >= (_USE_LFN ? ' ' : '!') && *tt != ':'; tt++) ;	/* Find ':' in the path */
 8002a58:	f811 4b01 	ldrb.w	r4, [r1], #1
 8002a5c:	2c1f      	cmp	r4, #31
 8002a5e:	d90c      	bls.n	8002a7a <get_ldnumber+0x2c>
 8002a60:	2c3a      	cmp	r4, #58	; 0x3a
 8002a62:	d1f8      	bne.n	8002a56 <get_ldnumber+0x8>
		if (*tt == ':') {	/* If a ':' is exist in the path name */
			tp = *path;
			i = *tp++ - '0'; 
 8002a64:	1c51      	adds	r1, r2, #1
			if (i < 10 && tp == tt) {	/* Is there a numeric drive id? */
 8002a66:	428b      	cmp	r3, r1
 8002a68:	d002      	beq.n	8002a70 <get_ldnumber+0x22>
	int vol = -1;
 8002a6a:	f04f 30ff 	mov.w	r0, #4294967295
 8002a6e:	e005      	b.n	8002a7c <get_ldnumber+0x2e>
				if (i < _VOLUMES) {	/* If a drive id is found, get the value and strip it */
 8002a70:	7812      	ldrb	r2, [r2, #0]
 8002a72:	2a30      	cmp	r2, #48	; 0x30
 8002a74:	d1f9      	bne.n	8002a6a <get_ldnumber+0x1c>
					vol = (int)i;
					*path = ++tt;
 8002a76:	3301      	adds	r3, #1
 8002a78:	6003      	str	r3, [r0, #0]
			return vol;
		}
#if _FS_RPATH && _VOLUMES >= 2
		vol = CurrVol;	/* Current drive */
#else
		vol = 0;		/* Drive 0 */
 8002a7a:	2000      	movs	r0, #0
#endif
	}
	return vol;
}
 8002a7c:	bd10      	pop	{r4, pc}

08002a7e <validate>:

static
FRESULT validate (	/* FR_OK(0): The object is valid, !=0: Invalid */
	void* obj		/* Pointer to the object FIL/DIR to check validity */
)
{
 8002a7e:	b508      	push	{r3, lr}
	FIL *fil = (FIL*)obj;	/* Assuming offset of .fs and .id in the FIL/DIR structure is identical */


	if (!fil || !fil->fs || !fil->fs->fs_type || fil->fs->id != fil->id || (disk_status(fil->fs->drv) & STA_NOINIT))
 8002a80:	b190      	cbz	r0, 8002aa8 <validate+0x2a>
 8002a82:	f8d0 3200 	ldr.w	r3, [r0, #512]	; 0x200
 8002a86:	b17b      	cbz	r3, 8002aa8 <validate+0x2a>
 8002a88:	f893 2200 	ldrb.w	r2, [r3, #512]	; 0x200
 8002a8c:	b162      	cbz	r2, 8002aa8 <validate+0x2a>
 8002a8e:	f8b3 1206 	ldrh.w	r1, [r3, #518]	; 0x206
 8002a92:	f8b0 2204 	ldrh.w	r2, [r0, #516]	; 0x204
 8002a96:	4291      	cmp	r1, r2
 8002a98:	d106      	bne.n	8002aa8 <validate+0x2a>
 8002a9a:	f893 0201 	ldrb.w	r0, [r3, #513]	; 0x201
 8002a9e:	f7ff feb1 	bl	8002804 <disk_status>
 8002aa2:	f010 0001 	ands.w	r0, r0, #1
 8002aa6:	d000      	beq.n	8002aaa <validate+0x2c>
		return FR_INVALID_OBJECT;
 8002aa8:	2009      	movs	r0, #9

	ENTER_FF(fil->fs);		/* Lock file system */

	return FR_OK;
}
 8002aaa:	bd08      	pop	{r3, pc}

08002aac <ld_clust.isra.0>:
	cl = LD_WORD(dir + DIR_FstClusLO);
 8002aac:	7eca      	ldrb	r2, [r1, #27]
 8002aae:	7e8b      	ldrb	r3, [r1, #26]
	if (fs->fs_type == FS_FAT32)
 8002ab0:	2803      	cmp	r0, #3
	cl = LD_WORD(dir + DIR_FstClusLO);
 8002ab2:	ea43 2302 	orr.w	r3, r3, r2, lsl #8
		cl |= (DWORD)LD_WORD(dir + DIR_FstClusHI) << 16;
 8002ab6:	bf01      	itttt	eq
 8002ab8:	7d48      	ldrbeq	r0, [r1, #21]
 8002aba:	7d0a      	ldrbeq	r2, [r1, #20]
 8002abc:	ea42 2200 	orreq.w	r2, r2, r0, lsl #8
 8002ac0:	ea43 4302 	orreq.w	r3, r3, r2, lsl #16
}
 8002ac4:	4618      	mov	r0, r3
 8002ac6:	4770      	bx	lr

08002ac8 <sync_window.part.0>:
FRESULT sync_window (
 8002ac8:	b5f8      	push	{r3, r4, r5, r6, r7, lr}
		wsect = fs->winsect;	/* Current sector number */
 8002aca:	f8d0 622c 	ldr.w	r6, [r0, #556]	; 0x22c
		if (disk_write(fs->drv, fs->win.d8, wsect, 1) != RES_OK) {
 8002ace:	4601      	mov	r1, r0
FRESULT sync_window (
 8002ad0:	4604      	mov	r4, r0
		if (disk_write(fs->drv, fs->win.d8, wsect, 1) != RES_OK) {
 8002ad2:	2301      	movs	r3, #1
 8002ad4:	4632      	mov	r2, r6
 8002ad6:	f890 0201 	ldrb.w	r0, [r0, #513]	; 0x201
 8002ada:	f7ff febb 	bl	8002854 <disk_write>
 8002ade:	4605      	mov	r5, r0
 8002ae0:	b9d0      	cbnz	r0, 8002b18 <sync_window.part.0+0x50>
			if (wsect - fs->fatbase < fs->fsize) {		/* Is it in the FAT area? */
 8002ae2:	f8d4 3220 	ldr.w	r3, [r4, #544]	; 0x220
 8002ae6:	f8d4 2218 	ldr.w	r2, [r4, #536]	; 0x218
 8002aea:	1af3      	subs	r3, r6, r3
 8002aec:	4293      	cmp	r3, r2
			fs->wflag = 0;
 8002aee:	f884 0204 	strb.w	r0, [r4, #516]	; 0x204
			if (wsect - fs->fatbase < fs->fsize) {		/* Is it in the FAT area? */
 8002af2:	d203      	bcs.n	8002afc <sync_window.part.0+0x34>
				for (nf = fs->n_fats; nf >= 2; nf--) {	/* Reflect the change to all FAT copies */
 8002af4:	f894 7203 	ldrb.w	r7, [r4, #515]	; 0x203
 8002af8:	2f01      	cmp	r7, #1
 8002afa:	d801      	bhi.n	8002b00 <sync_window.part.0+0x38>
}
 8002afc:	4628      	mov	r0, r5
 8002afe:	bdf8      	pop	{r3, r4, r5, r6, r7, pc}
					wsect += fs->fsize;
 8002b00:	f8d4 3218 	ldr.w	r3, [r4, #536]	; 0x218
					disk_write(fs->drv, fs->win.d8, wsect, 1);
 8002b04:	4621      	mov	r1, r4
					wsect += fs->fsize;
 8002b06:	441e      	add	r6, r3
					disk_write(fs->drv, fs->win.d8, wsect, 1);
 8002b08:	4632      	mov	r2, r6
 8002b0a:	2301      	movs	r3, #1
 8002b0c:	f894 0201 	ldrb.w	r0, [r4, #513]	; 0x201
 8002b10:	f7ff fea0 	bl	8002854 <disk_write>
				for (nf = fs->n_fats; nf >= 2; nf--) {	/* Reflect the change to all FAT copies */
 8002b14:	3f01      	subs	r7, #1
 8002b16:	e7ef      	b.n	8002af8 <sync_window.part.0+0x30>
			res = FR_DISK_ERR;
 8002b18:	2501      	movs	r5, #1
 8002b1a:	e7ef      	b.n	8002afc <sync_window.part.0+0x34>

08002b1c <sync_window>:
	if (fs->wflag) {	/* Write back the sector if it is dirty */
 8002b1c:	f890 3204 	ldrb.w	r3, [r0, #516]	; 0x204
 8002b20:	b10b      	cbz	r3, 8002b26 <sync_window+0xa>
 8002b22:	f7ff bfd1 	b.w	8002ac8 <sync_window.part.0>
}
 8002b26:	4618      	mov	r0, r3
 8002b28:	4770      	bx	lr

08002b2a <move_window>:
{
 8002b2a:	b538      	push	{r3, r4, r5, lr}
	if (sector != fs->winsect) {	/* Window offset changed? */
 8002b2c:	f8d0 322c 	ldr.w	r3, [r0, #556]	; 0x22c
{
 8002b30:	4605      	mov	r5, r0
	if (sector != fs->winsect) {	/* Window offset changed? */
 8002b32:	428b      	cmp	r3, r1
{
 8002b34:	460c      	mov	r4, r1
	if (sector != fs->winsect) {	/* Window offset changed? */
 8002b36:	d011      	beq.n	8002b5c <move_window+0x32>
		res = sync_window(fs);		/* Write-back changes */
 8002b38:	f7ff fff0 	bl	8002b1c <sync_window>
		if (res == FR_OK) {			/* Fill sector window with new data */
 8002b3c:	b968      	cbnz	r0, 8002b5a <move_window+0x30>
			if (disk_read(fs->drv, fs->win.d8, sector, 1) != RES_OK) {
 8002b3e:	4622      	mov	r2, r4
 8002b40:	2301      	movs	r3, #1
 8002b42:	4629      	mov	r1, r5
 8002b44:	f895 0201 	ldrb.w	r0, [r5, #513]	; 0x201
 8002b48:	f7ff fe76 	bl	8002838 <disk_read>
				res = FR_DISK_ERR;
 8002b4c:	2800      	cmp	r0, #0
 8002b4e:	bf1c      	itt	ne
 8002b50:	f04f 34ff 	movne.w	r4, #4294967295
 8002b54:	2001      	movne	r0, #1
			fs->winsect = sector;
 8002b56:	f8c5 422c 	str.w	r4, [r5, #556]	; 0x22c
}
 8002b5a:	bd38      	pop	{r3, r4, r5, pc}
	FRESULT res = FR_OK;
 8002b5c:	2000      	movs	r0, #0
 8002b5e:	e7fc      	b.n	8002b5a <move_window+0x30>

08002b60 <check_fs>:
	fs->wflag = 0; fs->winsect = 0xFFFFFFFF;	/* Invaidate window */
 8002b60:	2300      	movs	r3, #0
{
 8002b62:	b510      	push	{r4, lr}
	fs->wflag = 0; fs->winsect = 0xFFFFFFFF;	/* Invaidate window */
 8002b64:	f880 3204 	strb.w	r3, [r0, #516]	; 0x204
 8002b68:	f04f 33ff 	mov.w	r3, #4294967295
 8002b6c:	f8c0 322c 	str.w	r3, [r0, #556]	; 0x22c
{
 8002b70:	4604      	mov	r4, r0
	if (move_window(fs, sect) != FR_OK)			/* Load boot record */
 8002b72:	f7ff ffda 	bl	8002b2a <move_window>
 8002b76:	b9c0      	cbnz	r0, 8002baa <check_fs+0x4a>
	if (LD_WORD(&fs->win.d8[BS_55AA]) != 0xAA55)	/* Check boot record signature (always placed at offset 510 even if the sector size is >512) */
 8002b78:	f894 21ff 	ldrb.w	r2, [r4, #511]	; 0x1ff
 8002b7c:	f894 31fe 	ldrb.w	r3, [r4, #510]	; 0x1fe
 8002b80:	ea43 2302 	orr.w	r3, r3, r2, lsl #8
 8002b84:	f64a 2255 	movw	r2, #43605	; 0xaa55
 8002b88:	4293      	cmp	r3, r2
 8002b8a:	d110      	bne.n	8002bae <check_fs+0x4e>
	if ((LD_DWORD(&fs->win.d8[BS_FilSysType]) & 0xFFFFFF) == 0x544146)		/* Check "FAT" string */
 8002b8c:	f8d4 3036 	ldr.w	r3, [r4, #54]	; 0x36
 8002b90:	4a08      	ldr	r2, [pc, #32]	; (8002bb4 <check_fs+0x54>)
 8002b92:	f023 437f 	bic.w	r3, r3, #4278190080	; 0xff000000
 8002b96:	4293      	cmp	r3, r2
 8002b98:	d006      	beq.n	8002ba8 <check_fs+0x48>
	if ((LD_DWORD(&fs->win.d8[BS_FilSysType32]) & 0xFFFFFF) == 0x544146)	/* Check "FAT" string */
 8002b9a:	f8d4 0052 	ldr.w	r0, [r4, #82]	; 0x52
 8002b9e:	f020 407f 	bic.w	r0, r0, #4278190080	; 0xff000000
		return 3;
 8002ba2:	1a80      	subs	r0, r0, r2
 8002ba4:	bf18      	it	ne
 8002ba6:	2001      	movne	r0, #1
}
 8002ba8:	bd10      	pop	{r4, pc}
		return 3;
 8002baa:	2003      	movs	r0, #3
 8002bac:	e7fc      	b.n	8002ba8 <check_fs+0x48>
		return 2;
 8002bae:	2002      	movs	r0, #2
 8002bb0:	e7fa      	b.n	8002ba8 <check_fs+0x48>
 8002bb2:	bf00      	nop
 8002bb4:	00544146 	.word	0x00544146

08002bb8 <find_volume>:
{
 8002bb8:	e92d 41ff 	stmdb	sp!, {r0, r1, r2, r3, r4, r5, r6, r7, r8, lr}
	*rfs = 0;
 8002bbc:	2300      	movs	r3, #0
{
 8002bbe:	4605      	mov	r5, r0
	*rfs = 0;
 8002bc0:	6003      	str	r3, [r0, #0]
	vol = get_ldnumber(path);
 8002bc2:	4608      	mov	r0, r1
{
 8002bc4:	4617      	mov	r7, r2
	vol = get_ldnumber(path);
 8002bc6:	f7ff ff42 	bl	8002a4e <get_ldnumber>
	if (vol < 0) return FR_INVALID_DRIVE;
 8002bca:	1e06      	subs	r6, r0, #0
 8002bcc:	f2c0 8126 	blt.w	8002e1c <find_volume+0x264>
	fs = FatFs[vol];					/* Get pointer to the file system object */
 8002bd0:	4b96      	ldr	r3, [pc, #600]	; (8002e2c <find_volume+0x274>)
 8002bd2:	f853 4026 	ldr.w	r4, [r3, r6, lsl #2]
	if (!fs) return FR_NOT_ENABLED;		/* Is the file system object available? */
 8002bd6:	2c00      	cmp	r4, #0
 8002bd8:	f000 8122 	beq.w	8002e20 <find_volume+0x268>
	*rfs = fs;							/* Return pointer to the file system object */
 8002bdc:	602c      	str	r4, [r5, #0]
	if (fs->fs_type) {					/* If the volume has been mounted */
 8002bde:	f894 3200 	ldrb.w	r3, [r4, #512]	; 0x200
 8002be2:	b183      	cbz	r3, 8002c06 <find_volume+0x4e>
		stat = disk_status(fs->drv);
 8002be4:	f894 0201 	ldrb.w	r0, [r4, #513]	; 0x201
 8002be8:	f7ff fe0c 	bl	8002804 <disk_status>
		if (!(stat & STA_NOINIT)) {		/* and the physical drive is kept initialized */
 8002bec:	07c1      	lsls	r1, r0, #31
 8002bee:	d40a      	bmi.n	8002c06 <find_volume+0x4e>
			if (!_FS_READONLY && wmode && (stat & STA_PROTECT))	/* Check write protection if needed */
 8002bf0:	2f00      	cmp	r7, #0
 8002bf2:	f000 8117 	beq.w	8002e24 <find_volume+0x26c>
 8002bf6:	f010 0504 	ands.w	r5, r0, #4
 8002bfa:	d000      	beq.n	8002bfe <find_volume+0x46>
				return FR_WRITE_PROTECTED;
 8002bfc:	250a      	movs	r5, #10
}
 8002bfe:	4628      	mov	r0, r5
 8002c00:	b004      	add	sp, #16
 8002c02:	e8bd 81f0 	ldmia.w	sp!, {r4, r5, r6, r7, r8, pc}
	fs->fs_type = 0;					/* Clear the file system object */
 8002c06:	2300      	movs	r3, #0
	fs->drv = LD2PD(vol);				/* Bind the logical drive and a physical drive */
 8002c08:	b2f0      	uxtb	r0, r6
	fs->fs_type = 0;					/* Clear the file system object */
 8002c0a:	f884 3200 	strb.w	r3, [r4, #512]	; 0x200
	fs->drv = LD2PD(vol);				/* Bind the logical drive and a physical drive */
 8002c0e:	f884 0201 	strb.w	r0, [r4, #513]	; 0x201
	stat = disk_initialize(fs->drv);	/* Initialize the physical drive */
 8002c12:	f7ff fe01 	bl	8002818 <disk_initialize>
	if (stat & STA_NOINIT)				/* Check if the initialization succeeded */
 8002c16:	f010 0501 	ands.w	r5, r0, #1
 8002c1a:	f040 8105 	bne.w	8002e28 <find_volume+0x270>
	if (!_FS_READONLY && wmode && (stat & STA_PROTECT))	/* Check disk write protection if needed */
 8002c1e:	b10f      	cbz	r7, 8002c24 <find_volume+0x6c>
 8002c20:	0742      	lsls	r2, r0, #29
 8002c22:	d4eb      	bmi.n	8002bfc <find_volume+0x44>
	fmt = check_fs(fs, bsect);					/* Load sector 0 and check if it is an FAT boot sector as SFD */
 8002c24:	2100      	movs	r1, #0
 8002c26:	4620      	mov	r0, r4
 8002c28:	f7ff ff9a 	bl	8002b60 <check_fs>
	if (fmt == 1 || (!fmt && (LD2PT(vol)))) {	/* Not an FAT boot sector or forced partition number */
 8002c2c:	2801      	cmp	r0, #1
	fmt = check_fs(fs, bsect);					/* Load sector 0 and check if it is an FAT boot sector as SFD */
 8002c2e:	4606      	mov	r6, r0
	if (fmt == 1 || (!fmt && (LD2PT(vol)))) {	/* Not an FAT boot sector or forced partition number */
 8002c30:	f040 80db 	bne.w	8002dea <find_volume+0x232>
 8002c34:	46e8      	mov	r8, sp
 8002c36:	4641      	mov	r1, r8
 8002c38:	f504 73df 	add.w	r3, r4, #446	; 0x1be
 8002c3c:	f504 70ff 	add.w	r0, r4, #510	; 0x1fe
			br[i] = pt[4] ? LD_DWORD(&pt[8]) : 0;
 8002c40:	791a      	ldrb	r2, [r3, #4]
 8002c42:	b102      	cbz	r2, 8002c46 <find_volume+0x8e>
 8002c44:	689a      	ldr	r2, [r3, #8]
 8002c46:	3310      	adds	r3, #16
		for (i = 0; i < 4; i++) {			/* Get partition offset */
 8002c48:	4298      	cmp	r0, r3
			br[i] = pt[4] ? LD_DWORD(&pt[8]) : 0;
 8002c4a:	f841 2b04 	str.w	r2, [r1], #4
		for (i = 0; i < 4; i++) {			/* Get partition offset */
 8002c4e:	d1f7      	bne.n	8002c40 <find_volume+0x88>
 8002c50:	2700      	movs	r7, #0
			bsect = br[i];
 8002c52:	f858 6b04 	ldr.w	r6, [r8], #4
			fmt = bsect ? check_fs(fs, bsect) : 2;	/* Check the partition */
 8002c56:	2e00      	cmp	r6, #0
 8002c58:	f000 80be 	beq.w	8002dd8 <find_volume+0x220>
 8002c5c:	4631      	mov	r1, r6
 8002c5e:	4620      	mov	r0, r4
 8002c60:	f7ff ff7e 	bl	8002b60 <check_fs>
		} while (!LD2PT(vol) && fmt && ++i < 4);
 8002c64:	2800      	cmp	r0, #0
 8002c66:	f040 80b8 	bne.w	8002dda <find_volume+0x222>
	if (LD_WORD(fs->win.d8 + BPB_BytsPerSec) != SS(fs))	/* (BPB_BytsPerSec must be equal to the physical sector size) */
 8002c6a:	7b22      	ldrb	r2, [r4, #12]
 8002c6c:	7ae3      	ldrb	r3, [r4, #11]
 8002c6e:	ea43 2302 	orr.w	r3, r3, r2, lsl #8
 8002c72:	f5b3 7f00 	cmp.w	r3, #512	; 0x200
 8002c76:	f040 80bd 	bne.w	8002df4 <find_volume+0x23c>
	fasize = LD_WORD(fs->win.d8 + BPB_FATSz16);			/* Number of sectors per FAT */
 8002c7a:	7de3      	ldrb	r3, [r4, #23]
 8002c7c:	7da1      	ldrb	r1, [r4, #22]
	fs->n_fats = fs->win.d8[BPB_NumFATs];					/* Number of FAT copies */
 8002c7e:	f894 e010 	ldrb.w	lr, [r4, #16]
	if (!fasize) fasize = LD_DWORD(fs->win.d8 + BPB_FATSz32);
 8002c82:	ea51 2103 	orrs.w	r1, r1, r3, lsl #8
 8002c86:	bf08      	it	eq
 8002c88:	6a61      	ldreq	r1, [r4, #36]	; 0x24
	if (fs->n_fats != 1 && fs->n_fats != 2)				/* (Must be 1 or 2) */
 8002c8a:	f10e 33ff 	add.w	r3, lr, #4294967295
 8002c8e:	2b01      	cmp	r3, #1
	fs->fsize = fasize;
 8002c90:	f8c4 1218 	str.w	r1, [r4, #536]	; 0x218
	fs->n_fats = fs->win.d8[BPB_NumFATs];					/* Number of FAT copies */
 8002c94:	f884 e203 	strb.w	lr, [r4, #515]	; 0x203
	if (fs->n_fats != 1 && fs->n_fats != 2)				/* (Must be 1 or 2) */
 8002c98:	f200 80ac 	bhi.w	8002df4 <find_volume+0x23c>
	fs->csize = fs->win.d8[BPB_SecPerClus];				/* Number of sectors per cluster */
 8002c9c:	7b67      	ldrb	r7, [r4, #13]
 8002c9e:	f884 7202 	strb.w	r7, [r4, #514]	; 0x202
	if (!fs->csize || (fs->csize & (fs->csize - 1)))	/* (Must be power of 2) */
 8002ca2:	2f00      	cmp	r7, #0
 8002ca4:	f000 80a6 	beq.w	8002df4 <find_volume+0x23c>
 8002ca8:	1e7b      	subs	r3, r7, #1
 8002caa:	423b      	tst	r3, r7
 8002cac:	f040 80a2 	bne.w	8002df4 <find_volume+0x23c>
	fs->n_rootdir = LD_WORD(fs->win.d8 + BPB_RootEntCnt);	/* Number of root directory entries */
 8002cb0:	7ca3      	ldrb	r3, [r4, #18]
 8002cb2:	7c60      	ldrb	r0, [r4, #17]
 8002cb4:	ea40 2003 	orr.w	r0, r0, r3, lsl #8
	if (fs->n_rootdir % (SS(fs) / SZ_DIRE))				/* (Must be sector aligned) */
 8002cb8:	0703      	lsls	r3, r0, #28
	fs->n_rootdir = LD_WORD(fs->win.d8 + BPB_RootEntCnt);	/* Number of root directory entries */
 8002cba:	f8a4 0208 	strh.w	r0, [r4, #520]	; 0x208
	if (fs->n_rootdir % (SS(fs) / SZ_DIRE))				/* (Must be sector aligned) */
 8002cbe:	f040 8099 	bne.w	8002df4 <find_volume+0x23c>
	tsect = LD_WORD(fs->win.d8 + BPB_TotSec16);			/* Number of sectors on the volume */
 8002cc2:	7d22      	ldrb	r2, [r4, #20]
 8002cc4:	7ce3      	ldrb	r3, [r4, #19]
	nrsv = LD_WORD(fs->win.d8 + BPB_RsvdSecCnt);			/* Number of reserved sectors */
 8002cc6:	f894 c00f 	ldrb.w	ip, [r4, #15]
	if (!tsect) tsect = LD_DWORD(fs->win.d8 + BPB_TotSec32);
 8002cca:	ea53 2302 	orrs.w	r3, r3, r2, lsl #8
	nrsv = LD_WORD(fs->win.d8 + BPB_RsvdSecCnt);			/* Number of reserved sectors */
 8002cce:	7ba2      	ldrb	r2, [r4, #14]
	if (!tsect) tsect = LD_DWORD(fs->win.d8 + BPB_TotSec32);
 8002cd0:	bf08      	it	eq
 8002cd2:	6a23      	ldreq	r3, [r4, #32]
	if (!nrsv) return FR_NO_FILESYSTEM;					/* (Must not be 0) */
 8002cd4:	ea52 220c 	orrs.w	r2, r2, ip, lsl #8
 8002cd8:	f000 808c 	beq.w	8002df4 <find_volume+0x23c>
	fasize *= fs->n_fats;								/* Number of sectors for FAT area */
 8002cdc:	fb01 fe0e 	mul.w	lr, r1, lr
	sysect = nrsv + fasize + fs->n_rootdir / (SS(fs) / SZ_DIRE);	/* RSV + FAT + DIR */
 8002ce0:	eb02 1c10 	add.w	ip, r2, r0, lsr #4
 8002ce4:	44f4      	add	ip, lr
	if (tsect < sysect) return FR_NO_FILESYSTEM;		/* (Invalid volume size) */
 8002ce6:	4563      	cmp	r3, ip
 8002ce8:	f0c0 8084 	bcc.w	8002df4 <find_volume+0x23c>
	nclst = (tsect - sysect) / fs->csize;				/* Number of clusters */
 8002cec:	eba3 030c 	sub.w	r3, r3, ip
	if (!nclst) return FR_NO_FILESYSTEM;				/* (Invalid volume size) */
 8002cf0:	42bb      	cmp	r3, r7
	nclst = (tsect - sysect) / fs->csize;				/* Number of clusters */
 8002cf2:	fbb3 f8f7 	udiv	r8, r3, r7
	if (!nclst) return FR_NO_FILESYSTEM;				/* (Invalid volume size) */
 8002cf6:	d37d      	bcc.n	8002df4 <find_volume+0x23c>
	if (nclst >= MIN_FAT16) fmt = FS_FAT16;
 8002cf8:	f640 73f5 	movw	r3, #4085	; 0xff5
 8002cfc:	4598      	cmp	r8, r3
 8002cfe:	d97b      	bls.n	8002df8 <find_volume+0x240>
	if (nclst >= MIN_FAT32) fmt = FS_FAT32;
 8002d00:	f64f 77f5 	movw	r7, #65525	; 0xfff5
 8002d04:	45b8      	cmp	r8, r7
 8002d06:	bf94      	ite	ls
 8002d08:	2702      	movls	r7, #2
 8002d0a:	2703      	movhi	r7, #3
	fs->n_fatent = nclst + 2;							/* Number of FAT entries */
 8002d0c:	f108 0302 	add.w	r3, r8, #2
	fs->fatbase = bsect + nrsv; 						/* FAT start sector */
 8002d10:	4432      	add	r2, r6
	fs->database = bsect + sysect;						/* Data start sector */
 8002d12:	44b4      	add	ip, r6
	if (fmt == FS_FAT32) {
 8002d14:	2f03      	cmp	r7, #3
	fs->n_fatent = nclst + 2;							/* Number of FAT entries */
 8002d16:	f8c4 3214 	str.w	r3, [r4, #532]	; 0x214
	fs->volbase = bsect;								/* Volume start sector */
 8002d1a:	f8c4 621c 	str.w	r6, [r4, #540]	; 0x21c
	fs->fatbase = bsect + nrsv; 						/* FAT start sector */
 8002d1e:	f8c4 2220 	str.w	r2, [r4, #544]	; 0x220
	fs->database = bsect + sysect;						/* Data start sector */
 8002d22:	f8c4 c228 	str.w	ip, [r4, #552]	; 0x228
	if (fmt == FS_FAT32) {
 8002d26:	d169      	bne.n	8002dfc <find_volume+0x244>
		if (fs->n_rootdir) return FR_NO_FILESYSTEM;		/* (BPB_RootEntCnt must be 0) */
 8002d28:	2800      	cmp	r0, #0
 8002d2a:	d163      	bne.n	8002df4 <find_volume+0x23c>
		fs->dirbase = LD_DWORD(fs->win.d8 + BPB_RootClus);	/* Root directory start cluster */
 8002d2c:	6ae2      	ldr	r2, [r4, #44]	; 0x2c
		szbfat = fs->n_fatent * 4;						/* (Needed FAT size) */
 8002d2e:	009b      	lsls	r3, r3, #2
		fs->dirbase = LD_DWORD(fs->win.d8 + BPB_RootClus);	/* Root directory start cluster */
 8002d30:	f8c4 2224 	str.w	r2, [r4, #548]	; 0x224
	if (fs->fsize < (szbfat + (SS(fs) - 1)) / SS(fs))	/* (BPB_FATSz must not be less than the size needed) */
 8002d34:	f203 13ff 	addw	r3, r3, #511	; 0x1ff
 8002d38:	ebb1 2f53 	cmp.w	r1, r3, lsr #9
 8002d3c:	d35a      	bcc.n	8002df4 <find_volume+0x23c>
	fs->last_clust = fs->free_clust = 0xFFFFFFFF;
 8002d3e:	f04f 33ff 	mov.w	r3, #4294967295
 8002d42:	e9c4 3383 	strd	r3, r3, [r4, #524]	; 0x20c
	fs->fsi_flag = 0x80;
 8002d46:	2380      	movs	r3, #128	; 0x80
	if (fmt == FS_FAT32				/* Enable FSINFO only if FAT32 and BPB_FSInfo is 1 */
 8002d48:	2f03      	cmp	r7, #3
	fs->fsi_flag = 0x80;
 8002d4a:	f884 3205 	strb.w	r3, [r4, #517]	; 0x205
	if (fmt == FS_FAT32				/* Enable FSINFO only if FAT32 and BPB_FSInfo is 1 */
 8002d4e:	d12d      	bne.n	8002dac <find_volume+0x1f4>
		&& LD_WORD(fs->win.d8 + BPB_FSInfo) == 1
 8002d50:	f894 2031 	ldrb.w	r2, [r4, #49]	; 0x31
 8002d54:	f894 3030 	ldrb.w	r3, [r4, #48]	; 0x30
 8002d58:	ea43 2302 	orr.w	r3, r3, r2, lsl #8
 8002d5c:	2b01      	cmp	r3, #1
 8002d5e:	d125      	bne.n	8002dac <find_volume+0x1f4>
		&& move_window(fs, bsect + 1) == FR_OK)
 8002d60:	4620      	mov	r0, r4
 8002d62:	1c71      	adds	r1, r6, #1
 8002d64:	f7ff fee1 	bl	8002b2a <move_window>
 8002d68:	bb00      	cbnz	r0, 8002dac <find_volume+0x1f4>
		if (LD_WORD(fs->win.d8 + BS_55AA) == 0xAA55	/* Load FSINFO data if available */
 8002d6a:	f894 21ff 	ldrb.w	r2, [r4, #511]	; 0x1ff
 8002d6e:	f894 31fe 	ldrb.w	r3, [r4, #510]	; 0x1fe
		fs->fsi_flag = 0;
 8002d72:	f884 0205 	strb.w	r0, [r4, #517]	; 0x205
		if (LD_WORD(fs->win.d8 + BS_55AA) == 0xAA55	/* Load FSINFO data if available */
 8002d76:	ea43 2302 	orr.w	r3, r3, r2, lsl #8
 8002d7a:	f64a 2255 	movw	r2, #43605	; 0xaa55
 8002d7e:	4293      	cmp	r3, r2
 8002d80:	d114      	bne.n	8002dac <find_volume+0x1f4>
			&& LD_DWORD(fs->win.d8 + FSI_LeadSig) == 0x41615252
 8002d82:	6822      	ldr	r2, [r4, #0]
 8002d84:	4b2a      	ldr	r3, [pc, #168]	; (8002e30 <find_volume+0x278>)
 8002d86:	429a      	cmp	r2, r3
 8002d88:	d110      	bne.n	8002dac <find_volume+0x1f4>
			&& LD_DWORD(fs->win.d8 + FSI_StrucSig) == 0x61417272)
 8002d8a:	f103 53ff 	add.w	r3, r3, #534773760	; 0x1fe00000
 8002d8e:	f8d4 21e4 	ldr.w	r2, [r4, #484]	; 0x1e4
 8002d92:	f503 5300 	add.w	r3, r3, #8192	; 0x2000
 8002d96:	3320      	adds	r3, #32
 8002d98:	429a      	cmp	r2, r3
			fs->free_clust = LD_DWORD(fs->win.d8 + FSI_Free_Count);
 8002d9a:	bf01      	itttt	eq
 8002d9c:	f8d4 31e8 	ldreq.w	r3, [r4, #488]	; 0x1e8
 8002da0:	f8c4 3210 	streq.w	r3, [r4, #528]	; 0x210
			fs->last_clust = LD_DWORD(fs->win.d8 + FSI_Nxt_Free);
 8002da4:	f8d4 31ec 	ldreq.w	r3, [r4, #492]	; 0x1ec
 8002da8:	f8c4 320c 	streq.w	r3, [r4, #524]	; 0x20c
	fs->id = ++Fsid;	/* File system mount ID */
 8002dac:	4a21      	ldr	r2, [pc, #132]	; (8002e34 <find_volume+0x27c>)
	fs->fs_type = fmt;	/* FAT sub-type */
 8002dae:	f884 7200 	strb.w	r7, [r4, #512]	; 0x200
	fs->id = ++Fsid;	/* File system mount ID */
 8002db2:	8813      	ldrh	r3, [r2, #0]
 8002db4:	3301      	adds	r3, #1
 8002db6:	b29b      	uxth	r3, r3
 8002db8:	8013      	strh	r3, [r2, #0]
 8002dba:	f8a4 3206 	strh.w	r3, [r4, #518]	; 0x206
		if (Files[i].fs == fs) Files[i].fs = 0;
 8002dbe:	4b1e      	ldr	r3, [pc, #120]	; (8002e38 <find_volume+0x280>)
 8002dc0:	681a      	ldr	r2, [r3, #0]
 8002dc2:	4294      	cmp	r4, r2
 8002dc4:	bf04      	itt	eq
 8002dc6:	2200      	moveq	r2, #0
 8002dc8:	601a      	streq	r2, [r3, #0]
 8002dca:	68da      	ldr	r2, [r3, #12]
 8002dcc:	4294      	cmp	r4, r2
 8002dce:	f47f af16 	bne.w	8002bfe <find_volume+0x46>
 8002dd2:	2200      	movs	r2, #0
 8002dd4:	60da      	str	r2, [r3, #12]
 8002dd6:	e712      	b.n	8002bfe <find_volume+0x46>
			fmt = bsect ? check_fs(fs, bsect) : 2;	/* Check the partition */
 8002dd8:	2002      	movs	r0, #2
		} while (!LD2PT(vol) && fmt && ++i < 4);
 8002dda:	3701      	adds	r7, #1
 8002ddc:	2f04      	cmp	r7, #4
 8002dde:	f47f af38 	bne.w	8002c52 <find_volume+0x9a>
	if (fmt == 3) return FR_DISK_ERR;		/* An error occured in the disk I/O layer */
 8002de2:	2803      	cmp	r0, #3
 8002de4:	d106      	bne.n	8002df4 <find_volume+0x23c>
 8002de6:	2501      	movs	r5, #1
 8002de8:	e709      	b.n	8002bfe <find_volume+0x46>
 8002dea:	2803      	cmp	r0, #3
 8002dec:	d0fb      	beq.n	8002de6 <find_volume+0x22e>
	if (fmt) return FR_NO_FILESYSTEM;		/* No FAT volume is found */
 8002dee:	2800      	cmp	r0, #0
 8002df0:	f43f af3b 	beq.w	8002c6a <find_volume+0xb2>
 8002df4:	250d      	movs	r5, #13
 8002df6:	e702      	b.n	8002bfe <find_volume+0x46>
	fmt = FS_FAT12;
 8002df8:	2701      	movs	r7, #1
 8002dfa:	e787      	b.n	8002d0c <find_volume+0x154>
		if (!fs->n_rootdir)	return FR_NO_FILESYSTEM;	/* (BPB_RootEntCnt must not be 0) */
 8002dfc:	2800      	cmp	r0, #0
 8002dfe:	d0f9      	beq.n	8002df4 <find_volume+0x23c>
		fs->dirbase = fs->fatbase + fasize;				/* Root directory start sector */
 8002e00:	4472      	add	r2, lr
			fs->n_fatent * 2 : fs->n_fatent * 3 / 2 + (fs->n_fatent & 1);
 8002e02:	2f02      	cmp	r7, #2
		fs->dirbase = fs->fatbase + fasize;				/* Root directory start sector */
 8002e04:	f8c4 2224 	str.w	r2, [r4, #548]	; 0x224
		szbfat = (fmt == FS_FAT16) ?					/* (Needed FAT size) */
 8002e08:	ea4f 0243 	mov.w	r2, r3, lsl #1
			fs->n_fatent * 2 : fs->n_fatent * 3 / 2 + (fs->n_fatent & 1);
 8002e0c:	bf1b      	ittet	ne
 8002e0e:	18d2      	addne	r2, r2, r3
 8002e10:	f003 0301 	andne.w	r3, r3, #1
 8002e14:	4613      	moveq	r3, r2
 8002e16:	eb03 0352 	addne.w	r3, r3, r2, lsr #1
 8002e1a:	e78b      	b.n	8002d34 <find_volume+0x17c>
	if (vol < 0) return FR_INVALID_DRIVE;
 8002e1c:	250b      	movs	r5, #11
 8002e1e:	e6ee      	b.n	8002bfe <find_volume+0x46>
	if (!fs) return FR_NOT_ENABLED;		/* Is the file system object available? */
 8002e20:	250c      	movs	r5, #12
 8002e22:	e6ec      	b.n	8002bfe <find_volume+0x46>
			return FR_OK;				/* The file system object is valid */
 8002e24:	463d      	mov	r5, r7
 8002e26:	e6ea      	b.n	8002bfe <find_volume+0x46>
		return FR_NOT_READY;			/* Failed to initialize due to no medium or hard error */
 8002e28:	2503      	movs	r5, #3
 8002e2a:	e6e8      	b.n	8002bfe <find_volume+0x46>
 8002e2c:	200000fc 	.word	0x200000fc
 8002e30:	41615252 	.word	0x41615252
 8002e34:	20000118 	.word	0x20000118
 8002e38:	20000100 	.word	0x20000100

08002e3c <sync_fs>:
{
 8002e3c:	b538      	push	{r3, r4, r5, lr}
 8002e3e:	4604      	mov	r4, r0
	res = sync_window(fs);
 8002e40:	f7ff fe6c 	bl	8002b1c <sync_window>
 8002e44:	4605      	mov	r5, r0
	if (res == FR_OK) {
 8002e46:	bbb8      	cbnz	r0, 8002eb8 <sync_fs+0x7c>
		if (fs->fs_type == FS_FAT32 && fs->fsi_flag == 1) {
 8002e48:	f894 3200 	ldrb.w	r3, [r4, #512]	; 0x200
 8002e4c:	2b03      	cmp	r3, #3
 8002e4e:	d12a      	bne.n	8002ea6 <sync_fs+0x6a>
 8002e50:	f894 3205 	ldrb.w	r3, [r4, #517]	; 0x205
 8002e54:	2b01      	cmp	r3, #1
 8002e56:	d126      	bne.n	8002ea6 <sync_fs+0x6a>
			mem_set(fs->win.d8, 0, SS(fs));
 8002e58:	4601      	mov	r1, r0
 8002e5a:	f44f 7200 	mov.w	r2, #512	; 0x200
 8002e5e:	4620      	mov	r0, r4
 8002e60:	f7ff fd1c 	bl	800289c <mem_set>
			ST_WORD(fs->win.d8 + BS_55AA, 0xAA55);
 8002e64:	f64a 2255 	movw	r2, #43605	; 0xaa55
 8002e68:	f8a4 21fe 	strh.w	r2, [r4, #510]	; 0x1fe
			ST_DWORD(fs->win.d8 + FSI_LeadSig, 0x41615252);
 8002e6c:	4a13      	ldr	r2, [pc, #76]	; (8002ebc <sync_fs+0x80>)
			disk_write(fs->drv, fs->win.d8, fs->winsect, 1);
 8002e6e:	4621      	mov	r1, r4
			ST_DWORD(fs->win.d8 + FSI_LeadSig, 0x41615252);
 8002e70:	6022      	str	r2, [r4, #0]
			ST_DWORD(fs->win.d8 + FSI_StrucSig, 0x61417272);
 8002e72:	f102 52ff 	add.w	r2, r2, #534773760	; 0x1fe00000
 8002e76:	f502 5200 	add.w	r2, r2, #8192	; 0x2000
 8002e7a:	3220      	adds	r2, #32
 8002e7c:	f8c4 21e4 	str.w	r2, [r4, #484]	; 0x1e4
			ST_DWORD(fs->win.d8 + FSI_Free_Count, fs->free_clust);
 8002e80:	f8d4 2210 	ldr.w	r2, [r4, #528]	; 0x210
			disk_write(fs->drv, fs->win.d8, fs->winsect, 1);
 8002e84:	f894 0201 	ldrb.w	r0, [r4, #513]	; 0x201
			ST_DWORD(fs->win.d8 + FSI_Free_Count, fs->free_clust);
 8002e88:	f8c4 21e8 	str.w	r2, [r4, #488]	; 0x1e8
			ST_DWORD(fs->win.d8 + FSI_Nxt_Free, fs->last_clust);
 8002e8c:	f8d4 220c 	ldr.w	r2, [r4, #524]	; 0x20c
 8002e90:	f8c4 21ec 	str.w	r2, [r4, #492]	; 0x1ec
			fs->winsect = fs->volbase + 1;
 8002e94:	f8d4 221c 	ldr.w	r2, [r4, #540]	; 0x21c
 8002e98:	3201      	adds	r2, #1
 8002e9a:	f8c4 222c 	str.w	r2, [r4, #556]	; 0x22c
			disk_write(fs->drv, fs->win.d8, fs->winsect, 1);
 8002e9e:	f7ff fcd9 	bl	8002854 <disk_write>
			fs->fsi_flag = 0;
 8002ea2:	f884 5205 	strb.w	r5, [r4, #517]	; 0x205
		if (disk_ioctl(fs->drv, CTRL_SYNC, 0) != RES_OK)
 8002ea6:	2200      	movs	r2, #0
 8002ea8:	f894 0201 	ldrb.w	r0, [r4, #513]	; 0x201
 8002eac:	4611      	mov	r1, r2
 8002eae:	f7ff fcdf 	bl	8002870 <disk_ioctl>
	res = sync_window(fs);
 8002eb2:	3800      	subs	r0, #0
 8002eb4:	bf18      	it	ne
 8002eb6:	2001      	movne	r0, #1
}
 8002eb8:	bd38      	pop	{r3, r4, r5, pc}
 8002eba:	bf00      	nop
 8002ebc:	41615252 	.word	0x41615252

08002ec0 <clust2sect>:
	if (clst >= fs->n_fatent - 2) return 0;		/* Invalid cluster# */
 8002ec0:	f8d0 3214 	ldr.w	r3, [r0, #532]	; 0x214
	clst -= 2;
 8002ec4:	3902      	subs	r1, #2
	if (clst >= fs->n_fatent - 2) return 0;		/* Invalid cluster# */
 8002ec6:	3b02      	subs	r3, #2
 8002ec8:	428b      	cmp	r3, r1
	return clst * fs->csize + fs->database;
 8002eca:	bf83      	ittte	hi
 8002ecc:	f890 3202 	ldrbhi.w	r3, [r0, #514]	; 0x202
 8002ed0:	f8d0 0228 	ldrhi.w	r0, [r0, #552]	; 0x228
 8002ed4:	fb01 0003 	mlahi	r0, r1, r3, r0
	if (clst >= fs->n_fatent - 2) return 0;		/* Invalid cluster# */
 8002ed8:	2000      	movls	r0, #0
}
 8002eda:	4770      	bx	lr

08002edc <get_fat>:
	if (clst < 2 || clst >= fs->n_fatent) {	/* Check range */
 8002edc:	2901      	cmp	r1, #1
{
 8002ede:	b5f8      	push	{r3, r4, r5, r6, r7, lr}
 8002ee0:	4606      	mov	r6, r0
 8002ee2:	460d      	mov	r5, r1
	if (clst < 2 || clst >= fs->n_fatent) {	/* Check range */
 8002ee4:	d959      	bls.n	8002f9a <get_fat+0xbe>
 8002ee6:	f8d0 3214 	ldr.w	r3, [r0, #532]	; 0x214
 8002eea:	428b      	cmp	r3, r1
 8002eec:	d955      	bls.n	8002f9a <get_fat+0xbe>
		switch (fs->fs_type) {
 8002eee:	f890 3200 	ldrb.w	r3, [r0, #512]	; 0x200
 8002ef2:	2b02      	cmp	r3, #2
 8002ef4:	d027      	beq.n	8002f46 <get_fat+0x6a>
 8002ef6:	2b03      	cmp	r3, #3
 8002ef8:	d036      	beq.n	8002f68 <get_fat+0x8c>
 8002efa:	2b01      	cmp	r3, #1
 8002efc:	d14d      	bne.n	8002f9a <get_fat+0xbe>
			bc = (UINT)clst; bc += bc / 2;
 8002efe:	eb01 0451 	add.w	r4, r1, r1, lsr #1
			if (move_window(fs, fs->fatbase + (bc / SS(fs))) != FR_OK) break;
 8002f02:	f8d0 1220 	ldr.w	r1, [r0, #544]	; 0x220
 8002f06:	eb01 2154 	add.w	r1, r1, r4, lsr #9
 8002f0a:	f7ff fe0e 	bl	8002b2a <move_window>
 8002f0e:	b110      	cbz	r0, 8002f16 <get_fat+0x3a>
		val = 0xFFFFFFFF;	/* Default value falls on disk error */
 8002f10:	f04f 30ff 	mov.w	r0, #4294967295
}
 8002f14:	bdf8      	pop	{r3, r4, r5, r6, r7, pc}
			if (move_window(fs, fs->fatbase + (bc / SS(fs))) != FR_OK) break;
 8002f16:	f8d6 1220 	ldr.w	r1, [r6, #544]	; 0x220
			wc = fs->win.d8[bc++ % SS(fs)];
 8002f1a:	1c67      	adds	r7, r4, #1
			if (move_window(fs, fs->fatbase + (bc / SS(fs))) != FR_OK) break;
 8002f1c:	4630      	mov	r0, r6
			wc = fs->win.d8[bc++ % SS(fs)];
 8002f1e:	f3c4 0408 	ubfx	r4, r4, #0, #9
			if (move_window(fs, fs->fatbase + (bc / SS(fs))) != FR_OK) break;
 8002f22:	eb01 2157 	add.w	r1, r1, r7, lsr #9
			wc = fs->win.d8[bc++ % SS(fs)];
 8002f26:	5d34      	ldrb	r4, [r6, r4]
			if (move_window(fs, fs->fatbase + (bc / SS(fs))) != FR_OK) break;
 8002f28:	f7ff fdff 	bl	8002b2a <move_window>
 8002f2c:	2800      	cmp	r0, #0
 8002f2e:	d1ef      	bne.n	8002f10 <get_fat+0x34>
			wc |= fs->win.d8[bc % SS(fs)] << 8;
 8002f30:	f3c7 0708 	ubfx	r7, r7, #0, #9
 8002f34:	5df0      	ldrb	r0, [r6, r7]
			val = clst & 1 ? wc >> 4 : (wc & 0xFFF);
 8002f36:	07eb      	lsls	r3, r5, #31
			wc |= fs->win.d8[bc % SS(fs)] << 8;
 8002f38:	ea44 2000 	orr.w	r0, r4, r0, lsl #8
			val = clst & 1 ? wc >> 4 : (wc & 0xFFF);
 8002f3c:	bf4c      	ite	mi
 8002f3e:	0900      	lsrmi	r0, r0, #4
 8002f40:	f3c0 000b 	ubfxpl	r0, r0, #0, #12
 8002f44:	e7e6      	b.n	8002f14 <get_fat+0x38>
			if (move_window(fs, fs->fatbase + (clst / (SS(fs) / 2))) != FR_OK) break;
 8002f46:	f8d0 1220 	ldr.w	r1, [r0, #544]	; 0x220
 8002f4a:	eb01 2115 	add.w	r1, r1, r5, lsr #8
 8002f4e:	f7ff fdec 	bl	8002b2a <move_window>
 8002f52:	2800      	cmp	r0, #0
 8002f54:	d1dc      	bne.n	8002f10 <get_fat+0x34>
			p = &fs->win.d8[clst * 2 % SS(fs)];
 8002f56:	006d      	lsls	r5, r5, #1
 8002f58:	f405 75ff 	and.w	r5, r5, #510	; 0x1fe
			val = LD_WORD(p);
 8002f5c:	1973      	adds	r3, r6, r5
 8002f5e:	785b      	ldrb	r3, [r3, #1]
 8002f60:	5d70      	ldrb	r0, [r6, r5]
 8002f62:	ea40 2003 	orr.w	r0, r0, r3, lsl #8
			break;
 8002f66:	e7d5      	b.n	8002f14 <get_fat+0x38>
			if (move_window(fs, fs->fatbase + (clst / (SS(fs) / 4))) != FR_OK) break;
 8002f68:	f8d0 1220 	ldr.w	r1, [r0, #544]	; 0x220
 8002f6c:	eb01 11d5 	add.w	r1, r1, r5, lsr #7
 8002f70:	f7ff fddb 	bl	8002b2a <move_window>
 8002f74:	2800      	cmp	r0, #0
 8002f76:	d1cb      	bne.n	8002f10 <get_fat+0x34>
			p = &fs->win.d8[clst * 4 % SS(fs)];
 8002f78:	00ad      	lsls	r5, r5, #2
 8002f7a:	f405 75fe 	and.w	r5, r5, #508	; 0x1fc
 8002f7e:	1973      	adds	r3, r6, r5
			val = LD_DWORD(p) & 0x0FFFFFFF;
 8002f80:	7898      	ldrb	r0, [r3, #2]
 8002f82:	78da      	ldrb	r2, [r3, #3]
 8002f84:	0400      	lsls	r0, r0, #16
 8002f86:	ea40 6002 	orr.w	r0, r0, r2, lsl #24
 8002f8a:	5d72      	ldrb	r2, [r6, r5]
 8002f8c:	785b      	ldrb	r3, [r3, #1]
 8002f8e:	4310      	orrs	r0, r2
 8002f90:	ea40 2003 	orr.w	r0, r0, r3, lsl #8
 8002f94:	f020 4070 	bic.w	r0, r0, #4026531840	; 0xf0000000
			break;
 8002f98:	e7bc      	b.n	8002f14 <get_fat+0x38>
		switch (fs->fs_type) {
 8002f9a:	2001      	movs	r0, #1
	return val;
 8002f9c:	e7ba      	b.n	8002f14 <get_fat+0x38>

08002f9e <dir_sdi>:
	clst = dp->sclust;		/* Table start cluster (0:root) */
 8002f9e:	f8d0 2208 	ldr.w	r2, [r0, #520]	; 0x208
{
 8002fa2:	b570      	push	{r4, r5, r6, lr}
	if (clst == 1 || clst >= dp->fs->n_fatent)	/* Check start cluster range */
 8002fa4:	2a01      	cmp	r2, #1
{
 8002fa6:	4604      	mov	r4, r0
 8002fa8:	460d      	mov	r5, r1
	dp->index = (WORD)idx;	/* Current index */
 8002faa:	f8a0 1206 	strh.w	r1, [r0, #518]	; 0x206
	if (clst == 1 || clst >= dp->fs->n_fatent)	/* Check start cluster range */
 8002fae:	d101      	bne.n	8002fb4 <dir_sdi+0x16>
		return FR_INT_ERR;
 8002fb0:	2002      	movs	r0, #2
}
 8002fb2:	bd70      	pop	{r4, r5, r6, pc}
	if (clst == 1 || clst >= dp->fs->n_fatent)	/* Check start cluster range */
 8002fb4:	f8d0 3200 	ldr.w	r3, [r0, #512]	; 0x200
 8002fb8:	f8d3 1214 	ldr.w	r1, [r3, #532]	; 0x214
 8002fbc:	4291      	cmp	r1, r2
 8002fbe:	d9f7      	bls.n	8002fb0 <dir_sdi+0x12>
	if (!clst && dp->fs->fs_type == FS_FAT32)	/* Replace cluster# 0 with root cluster# if in FAT32 */
 8002fc0:	b9fa      	cbnz	r2, 8003002 <dir_sdi+0x64>
 8002fc2:	f893 1200 	ldrb.w	r1, [r3, #512]	; 0x200
 8002fc6:	2903      	cmp	r1, #3
 8002fc8:	d102      	bne.n	8002fd0 <dir_sdi+0x32>
		clst = dp->fs->dirbase;
 8002fca:	f8d3 1224 	ldr.w	r1, [r3, #548]	; 0x224
	if (clst == 0) {	/* Static table (root-directory in FAT12/16) */
 8002fce:	b9b9      	cbnz	r1, 8003000 <dir_sdi+0x62>
		if (idx >= dp->fs->n_rootdir)	/* Is index out of range? */
 8002fd0:	f8b3 1208 	ldrh.w	r1, [r3, #520]	; 0x208
 8002fd4:	42a9      	cmp	r1, r5
 8002fd6:	d9eb      	bls.n	8002fb0 <dir_sdi+0x12>
		sect = dp->fs->dirbase;
 8002fd8:	f8d3 0224 	ldr.w	r0, [r3, #548]	; 0x224
	dp->clust = clst;	/* Current cluster# */
 8002fdc:	f8c4 220c 	str.w	r2, [r4, #524]	; 0x20c
	if (!sect) return FR_INT_ERR;
 8002fe0:	2800      	cmp	r0, #0
 8002fe2:	d0e5      	beq.n	8002fb0 <dir_sdi+0x12>
	dp->dir = dp->fs->win.d8 + (idx % (SS(dp->fs) / SZ_DIRE)) * SZ_DIRE;	/* Ptr to the entry in the sector */
 8002fe4:	f8d4 1200 	ldr.w	r1, [r4, #512]	; 0x200
	dp->sect = sect + idx / (SS(dp->fs) / SZ_DIRE);					/* Sector# of the directory entry */
 8002fe8:	eb00 1015 	add.w	r0, r0, r5, lsr #4
	dp->dir = dp->fs->win.d8 + (idx % (SS(dp->fs) / SZ_DIRE)) * SZ_DIRE;	/* Ptr to the entry in the sector */
 8002fec:	f005 050f 	and.w	r5, r5, #15
 8002ff0:	eb01 1545 	add.w	r5, r1, r5, lsl #5
	dp->sect = sect + idx / (SS(dp->fs) / SZ_DIRE);					/* Sector# of the directory entry */
 8002ff4:	f8c4 0210 	str.w	r0, [r4, #528]	; 0x210
	dp->dir = dp->fs->win.d8 + (idx % (SS(dp->fs) / SZ_DIRE)) * SZ_DIRE;	/* Ptr to the entry in the sector */
 8002ff8:	f8c4 5214 	str.w	r5, [r4, #532]	; 0x214
	return FR_OK;
 8002ffc:	2000      	movs	r0, #0
 8002ffe:	e7d8      	b.n	8002fb2 <dir_sdi+0x14>
 8003000:	460a      	mov	r2, r1
		ic = SS(dp->fs) / SZ_DIRE * dp->fs->csize;	/* Entries per cluster */
 8003002:	f893 6202 	ldrb.w	r6, [r3, #514]	; 0x202
 8003006:	0136      	lsls	r6, r6, #4
		while (idx >= ic) {	/* Follow cluster chain */
 8003008:	42b5      	cmp	r5, r6
			clst = get_fat(dp->fs, clst);				/* Get next cluster */
 800300a:	4611      	mov	r1, r2
 800300c:	f8d4 0200 	ldr.w	r0, [r4, #512]	; 0x200
		while (idx >= ic) {	/* Follow cluster chain */
 8003010:	d202      	bcs.n	8003018 <dir_sdi+0x7a>
		sect = clust2sect(dp->fs, clst);
 8003012:	f7ff ff55 	bl	8002ec0 <clust2sect>
 8003016:	e7e1      	b.n	8002fdc <dir_sdi+0x3e>
			clst = get_fat(dp->fs, clst);				/* Get next cluster */
 8003018:	f7ff ff60 	bl	8002edc <get_fat>
			if (clst == 0xFFFFFFFF) return FR_DISK_ERR;	/* Disk error */
 800301c:	1c43      	adds	r3, r0, #1
			clst = get_fat(dp->fs, clst);				/* Get next cluster */
 800301e:	4602      	mov	r2, r0
			if (clst == 0xFFFFFFFF) return FR_DISK_ERR;	/* Disk error */
 8003020:	d009      	beq.n	8003036 <dir_sdi+0x98>
			if (clst < 2 || clst >= dp->fs->n_fatent)	/* Reached to end of table or internal error */
 8003022:	2801      	cmp	r0, #1
 8003024:	d9c4      	bls.n	8002fb0 <dir_sdi+0x12>
 8003026:	f8d4 3200 	ldr.w	r3, [r4, #512]	; 0x200
 800302a:	f8d3 3214 	ldr.w	r3, [r3, #532]	; 0x214
 800302e:	4283      	cmp	r3, r0
 8003030:	d9be      	bls.n	8002fb0 <dir_sdi+0x12>
			idx -= ic;
 8003032:	1bad      	subs	r5, r5, r6
 8003034:	e7e8      	b.n	8003008 <dir_sdi+0x6a>
			if (clst == 0xFFFFFFFF) return FR_DISK_ERR;	/* Disk error */
 8003036:	2001      	movs	r0, #1
 8003038:	e7bb      	b.n	8002fb2 <dir_sdi+0x14>

0800303a <put_fat>:
	if (clst < 2 || clst >= fs->n_fatent) {	/* Check range */
 800303a:	2901      	cmp	r1, #1
{
 800303c:	e92d 41f0 	stmdb	sp!, {r4, r5, r6, r7, r8, lr}
 8003040:	4605      	mov	r5, r0
 8003042:	460c      	mov	r4, r1
 8003044:	4616      	mov	r6, r2
	if (clst < 2 || clst >= fs->n_fatent) {	/* Check range */
 8003046:	d970      	bls.n	800312a <put_fat+0xf0>
 8003048:	f8d0 3214 	ldr.w	r3, [r0, #532]	; 0x214
 800304c:	428b      	cmp	r3, r1
 800304e:	d96c      	bls.n	800312a <put_fat+0xf0>
		switch (fs->fs_type) {
 8003050:	f890 3200 	ldrb.w	r3, [r0, #512]	; 0x200
 8003054:	2b02      	cmp	r3, #2
 8003056:	d03c      	beq.n	80030d2 <put_fat+0x98>
 8003058:	2b03      	cmp	r3, #3
 800305a:	d04b      	beq.n	80030f4 <put_fat+0xba>
 800305c:	2b01      	cmp	r3, #1
 800305e:	d164      	bne.n	800312a <put_fat+0xf0>
			bc = (UINT)clst; bc += bc / 2;
 8003060:	eb01 0751 	add.w	r7, r1, r1, lsr #1
			res = move_window(fs, fs->fatbase + (bc / SS(fs)));
 8003064:	f8d0 1220 	ldr.w	r1, [r0, #544]	; 0x220
 8003068:	eb01 2157 	add.w	r1, r1, r7, lsr #9
 800306c:	f7ff fd5d 	bl	8002b2a <move_window>
			if (res != FR_OK) break;
 8003070:	bb28      	cbnz	r0, 80030be <put_fat+0x84>
			*p = (clst & 1) ? ((*p & 0x0F) | ((BYTE)val << 4)) : (BYTE)val;
 8003072:	f014 0401 	ands.w	r4, r4, #1
			p = &fs->win.d8[bc++ % SS(fs)];
 8003076:	f107 0801 	add.w	r8, r7, #1
 800307a:	f3c7 0708 	ubfx	r7, r7, #0, #9
			*p = (clst & 1) ? ((*p & 0x0F) | ((BYTE)val << 4)) : (BYTE)val;
 800307e:	bf17      	itett	ne
 8003080:	5deb      	ldrbne	r3, [r5, r7]
 8003082:	b2f3      	uxtbeq	r3, r6
 8003084:	f003 020f 	andne.w	r2, r3, #15
 8003088:	0133      	lslne	r3, r6, #4
 800308a:	bf1c      	itt	ne
 800308c:	f003 03f0 	andne.w	r3, r3, #240	; 0xf0
 8003090:	4313      	orrne	r3, r2
 8003092:	55eb      	strb	r3, [r5, r7]
			fs->wflag = 1;
 8003094:	2301      	movs	r3, #1
			res = move_window(fs, fs->fatbase + (bc / SS(fs)));
 8003096:	f8d5 1220 	ldr.w	r1, [r5, #544]	; 0x220
 800309a:	4628      	mov	r0, r5
			fs->wflag = 1;
 800309c:	f885 3204 	strb.w	r3, [r5, #516]	; 0x204
			res = move_window(fs, fs->fatbase + (bc / SS(fs)));
 80030a0:	eb01 2158 	add.w	r1, r1, r8, lsr #9
 80030a4:	f7ff fd41 	bl	8002b2a <move_window>
			if (res != FR_OK) break;
 80030a8:	b948      	cbnz	r0, 80030be <put_fat+0x84>
			p = &fs->win.d8[bc % SS(fs)];
 80030aa:	f3c8 0808 	ubfx	r8, r8, #0, #9
			*p = (clst & 1) ? (BYTE)(val >> 4) : ((*p & 0xF0) | ((BYTE)(val >> 8) & 0x0F));
 80030ae:	b144      	cbz	r4, 80030c2 <put_fat+0x88>
 80030b0:	f3c6 1207 	ubfx	r2, r6, #4, #8
 80030b4:	f805 2008 	strb.w	r2, [r5, r8]
			fs->wflag = 1;
 80030b8:	2301      	movs	r3, #1
 80030ba:	f885 3204 	strb.w	r3, [r5, #516]	; 0x204
}
 80030be:	e8bd 81f0 	ldmia.w	sp!, {r4, r5, r6, r7, r8, pc}
			*p = (clst & 1) ? (BYTE)(val >> 4) : ((*p & 0xF0) | ((BYTE)(val >> 8) & 0x0F));
 80030c2:	f815 2008 	ldrb.w	r2, [r5, r8]
 80030c6:	f022 030f 	bic.w	r3, r2, #15
 80030ca:	f3c6 2203 	ubfx	r2, r6, #8, #4
 80030ce:	431a      	orrs	r2, r3
 80030d0:	e7f0      	b.n	80030b4 <put_fat+0x7a>
			res = move_window(fs, fs->fatbase + (clst / (SS(fs) / 2)));
 80030d2:	f8d0 1220 	ldr.w	r1, [r0, #544]	; 0x220
 80030d6:	eb01 2114 	add.w	r1, r1, r4, lsr #8
 80030da:	f7ff fd26 	bl	8002b2a <move_window>
			if (res != FR_OK) break;
 80030de:	2800      	cmp	r0, #0
 80030e0:	d1ed      	bne.n	80030be <put_fat+0x84>
			p = &fs->win.d8[clst * 2 % SS(fs)];
 80030e2:	0064      	lsls	r4, r4, #1
 80030e4:	f404 74ff 	and.w	r4, r4, #510	; 0x1fe
			ST_WORD(p, (WORD)val);
 80030e8:	552e      	strb	r6, [r5, r4]
 80030ea:	f3c6 2207 	ubfx	r2, r6, #8, #8
 80030ee:	442c      	add	r4, r5
 80030f0:	7062      	strb	r2, [r4, #1]
			fs->wflag = 1;
 80030f2:	e7e1      	b.n	80030b8 <put_fat+0x7e>
			res = move_window(fs, fs->fatbase + (clst / (SS(fs) / 4)));
 80030f4:	f8d0 1220 	ldr.w	r1, [r0, #544]	; 0x220
 80030f8:	eb01 11d4 	add.w	r1, r1, r4, lsr #7
 80030fc:	f7ff fd15 	bl	8002b2a <move_window>
			if (res != FR_OK) break;
 8003100:	2800      	cmp	r0, #0
 8003102:	d1dc      	bne.n	80030be <put_fat+0x84>
			p = &fs->win.d8[clst * 4 % SS(fs)];
 8003104:	00a4      	lsls	r4, r4, #2
 8003106:	f404 74fe 	and.w	r4, r4, #508	; 0x1fc
 800310a:	1929      	adds	r1, r5, r4
			val |= LD_DWORD(p) & 0xF0000000;
 800310c:	78cb      	ldrb	r3, [r1, #3]
 800310e:	061b      	lsls	r3, r3, #24
 8003110:	f003 4370 	and.w	r3, r3, #4026531840	; 0xf0000000
 8003114:	ea43 0206 	orr.w	r2, r3, r6
			ST_DWORD(p, val);
 8003118:	f3c2 2307 	ubfx	r3, r2, #8, #8
 800311c:	552a      	strb	r2, [r5, r4]
 800311e:	704b      	strb	r3, [r1, #1]
 8003120:	0c13      	lsrs	r3, r2, #16
 8003122:	0e12      	lsrs	r2, r2, #24
 8003124:	708b      	strb	r3, [r1, #2]
 8003126:	70ca      	strb	r2, [r1, #3]
 8003128:	e7c6      	b.n	80030b8 <put_fat+0x7e>
		switch (fs->fs_type) {
 800312a:	2002      	movs	r0, #2
 800312c:	e7c7      	b.n	80030be <put_fat+0x84>

0800312e <create_chain>:
{
 800312e:	b5f8      	push	{r3, r4, r5, r6, r7, lr}
 8003130:	4605      	mov	r5, r0
	if (clst == 0) {		/* Create a new chain */
 8003132:	460f      	mov	r7, r1
 8003134:	b989      	cbnz	r1, 800315a <create_chain+0x2c>
		scl = fs->last_clust;			/* Get suggested start point */
 8003136:	f8d0 620c 	ldr.w	r6, [r0, #524]	; 0x20c
		if (!scl || scl >= fs->n_fatent) scl = 1;
 800313a:	b1f6      	cbz	r6, 800317a <create_chain+0x4c>
 800313c:	f8d0 3214 	ldr.w	r3, [r0, #532]	; 0x214
 8003140:	429e      	cmp	r6, r3
 8003142:	bf28      	it	cs
 8003144:	2601      	movcs	r6, #1
	ncl = scl;				/* Start cluster */
 8003146:	4634      	mov	r4, r6
		if (ncl >= fs->n_fatent) {		/* Check wrap around */
 8003148:	f8d5 3214 	ldr.w	r3, [r5, #532]	; 0x214
		ncl++;							/* Next cluster */
 800314c:	3401      	adds	r4, #1
		if (ncl >= fs->n_fatent) {		/* Check wrap around */
 800314e:	42a3      	cmp	r3, r4
 8003150:	d816      	bhi.n	8003180 <create_chain+0x52>
			if (ncl > scl) return 0;	/* No free cluster */
 8003152:	2e01      	cmp	r6, #1
 8003154:	d813      	bhi.n	800317e <create_chain+0x50>
 8003156:	2400      	movs	r4, #0
 8003158:	e005      	b.n	8003166 <create_chain+0x38>
		cs = get_fat(fs, clst);			/* Check the cluster status */
 800315a:	f7ff febf 	bl	8002edc <get_fat>
		if (cs < 2) return 1;			/* Invalid value */
 800315e:	2801      	cmp	r0, #1
		cs = get_fat(fs, clst);			/* Check the cluster status */
 8003160:	4604      	mov	r4, r0
		if (cs < 2) return 1;			/* Invalid value */
 8003162:	d802      	bhi.n	800316a <create_chain+0x3c>
 8003164:	2401      	movs	r4, #1
}
 8003166:	4620      	mov	r0, r4
 8003168:	bdf8      	pop	{r3, r4, r5, r6, r7, pc}
		if (cs == 0xFFFFFFFF) return cs;	/* A disk error occurred */
 800316a:	1c60      	adds	r0, r4, #1
 800316c:	d035      	beq.n	80031da <create_chain+0xac>
		if (cs < fs->n_fatent) return cs;	/* It is already followed by next cluster */
 800316e:	f8d5 3214 	ldr.w	r3, [r5, #532]	; 0x214
 8003172:	42a3      	cmp	r3, r4
 8003174:	d8f7      	bhi.n	8003166 <create_chain+0x38>
 8003176:	463e      	mov	r6, r7
 8003178:	e7e5      	b.n	8003146 <create_chain+0x18>
		if (!scl || scl >= fs->n_fatent) scl = 1;
 800317a:	2601      	movs	r6, #1
 800317c:	e7e3      	b.n	8003146 <create_chain+0x18>
			ncl = 2;
 800317e:	2402      	movs	r4, #2
		cs = get_fat(fs, ncl);			/* Get the cluster status */
 8003180:	4621      	mov	r1, r4
 8003182:	4628      	mov	r0, r5
 8003184:	f7ff feaa 	bl	8002edc <get_fat>
		if (cs == 0) break;				/* Found a free cluster */
 8003188:	b130      	cbz	r0, 8003198 <create_chain+0x6a>
		if (cs == 0xFFFFFFFF || cs == 1)/* An error occurred */
 800318a:	1c41      	adds	r1, r0, #1
 800318c:	d025      	beq.n	80031da <create_chain+0xac>
 800318e:	2801      	cmp	r0, #1
 8003190:	d0e8      	beq.n	8003164 <create_chain+0x36>
		if (ncl == scl) return 0;		/* No free cluster */
 8003192:	42b4      	cmp	r4, r6
 8003194:	d1d8      	bne.n	8003148 <create_chain+0x1a>
 8003196:	e7de      	b.n	8003156 <create_chain+0x28>
	res = put_fat(fs, ncl, 0x0FFFFFFF);	/* Mark the new cluster "last link" */
 8003198:	f06f 4270 	mvn.w	r2, #4026531840	; 0xf0000000
 800319c:	4621      	mov	r1, r4
 800319e:	4628      	mov	r0, r5
 80031a0:	f7ff ff4b 	bl	800303a <put_fat>
	if (res == FR_OK && clst != 0) {
 80031a4:	b9b8      	cbnz	r0, 80031d6 <create_chain+0xa8>
 80031a6:	b97f      	cbnz	r7, 80031c8 <create_chain+0x9a>
		if (fs->free_clust != 0xFFFFFFFF) {
 80031a8:	f8d5 3210 	ldr.w	r3, [r5, #528]	; 0x210
		fs->last_clust = ncl;			/* Update FSINFO */
 80031ac:	f8c5 420c 	str.w	r4, [r5, #524]	; 0x20c
		if (fs->free_clust != 0xFFFFFFFF) {
 80031b0:	1c5a      	adds	r2, r3, #1
 80031b2:	d0d8      	beq.n	8003166 <create_chain+0x38>
			fs->free_clust--;
 80031b4:	3b01      	subs	r3, #1
 80031b6:	f8c5 3210 	str.w	r3, [r5, #528]	; 0x210
			fs->fsi_flag |= 1;
 80031ba:	f895 3205 	ldrb.w	r3, [r5, #517]	; 0x205
 80031be:	f043 0301 	orr.w	r3, r3, #1
 80031c2:	f885 3205 	strb.w	r3, [r5, #517]	; 0x205
 80031c6:	e7ce      	b.n	8003166 <create_chain+0x38>
		res = put_fat(fs, clst, ncl);	/* Link it to the previous one if needed */
 80031c8:	4622      	mov	r2, r4
 80031ca:	4639      	mov	r1, r7
 80031cc:	4628      	mov	r0, r5
 80031ce:	f7ff ff34 	bl	800303a <put_fat>
	if (res == FR_OK) {
 80031d2:	2800      	cmp	r0, #0
 80031d4:	d0e8      	beq.n	80031a8 <create_chain+0x7a>
		ncl = (res == FR_DISK_ERR) ? 0xFFFFFFFF : 1;
 80031d6:	2801      	cmp	r0, #1
 80031d8:	d1c4      	bne.n	8003164 <create_chain+0x36>
 80031da:	f04f 34ff 	mov.w	r4, #4294967295
 80031de:	e7c2      	b.n	8003166 <create_chain+0x38>

080031e0 <dir_next>:
{
 80031e0:	e92d 43f8 	stmdb	sp!, {r3, r4, r5, r6, r7, r8, r9, lr}
	i = dp->index + 1;
 80031e4:	f8b0 6206 	ldrh.w	r6, [r0, #518]	; 0x206
{
 80031e8:	4604      	mov	r4, r0
	i = dp->index + 1;
 80031ea:	3601      	adds	r6, #1
	if (!(i & 0xFFFF) || !dp->sect)	/* Report EOT when index has reached 65535 */
 80031ec:	b2b3      	uxth	r3, r6
{
 80031ee:	4689      	mov	r9, r1
	if (!(i & 0xFFFF) || !dp->sect)	/* Report EOT when index has reached 65535 */
 80031f0:	b913      	cbnz	r3, 80031f8 <dir_next+0x18>
		return FR_NO_FILE;
 80031f2:	2004      	movs	r0, #4
}
 80031f4:	e8bd 83f8 	ldmia.w	sp!, {r3, r4, r5, r6, r7, r8, r9, pc}
	if (!(i & 0xFFFF) || !dp->sect)	/* Report EOT when index has reached 65535 */
 80031f8:	f8d0 3210 	ldr.w	r3, [r0, #528]	; 0x210
 80031fc:	2b00      	cmp	r3, #0
 80031fe:	d0f8      	beq.n	80031f2 <dir_next+0x12>
	if (!(i % (SS(dp->fs) / SZ_DIRE))) {	/* Sector changed? */
 8003200:	f016 080f 	ands.w	r8, r6, #15
 8003204:	d10b      	bne.n	800321e <dir_next+0x3e>
		if (!dp->clust) {		/* Static table */
 8003206:	f8d4 120c 	ldr.w	r1, [r4, #524]	; 0x20c
		dp->sect++;					/* Next sector */
 800320a:	3301      	adds	r3, #1
 800320c:	f8d0 0200 	ldr.w	r0, [r0, #512]	; 0x200
 8003210:	f8c4 3210 	str.w	r3, [r4, #528]	; 0x210
		if (!dp->clust) {		/* Static table */
 8003214:	b969      	cbnz	r1, 8003232 <dir_next+0x52>
			if (i >= dp->fs->n_rootdir)	/* Report EOT if it reached end of static table */
 8003216:	f8b0 3208 	ldrh.w	r3, [r0, #520]	; 0x208
 800321a:	42b3      	cmp	r3, r6
 800321c:	d9e9      	bls.n	80031f2 <dir_next+0x12>
	dp->dir = dp->fs->win.d8 + (i % (SS(dp->fs) / SZ_DIRE)) * SZ_DIRE;	/* Current entry in the window */
 800321e:	f8d4 3200 	ldr.w	r3, [r4, #512]	; 0x200
	return FR_OK;
 8003222:	2000      	movs	r0, #0
	dp->dir = dp->fs->win.d8 + (i % (SS(dp->fs) / SZ_DIRE)) * SZ_DIRE;	/* Current entry in the window */
 8003224:	eb03 1348 	add.w	r3, r3, r8, lsl #5
	dp->index = (WORD)i;	/* Current index */
 8003228:	f8a4 6206 	strh.w	r6, [r4, #518]	; 0x206
	dp->dir = dp->fs->win.d8 + (i % (SS(dp->fs) / SZ_DIRE)) * SZ_DIRE;	/* Current entry in the window */
 800322c:	f8c4 3214 	str.w	r3, [r4, #532]	; 0x214
	return FR_OK;
 8003230:	e7e0      	b.n	80031f4 <dir_next+0x14>
			if (((i / (SS(dp->fs) / SZ_DIRE)) & (dp->fs->csize - 1)) == 0) {	/* Cluster changed? */
 8003232:	f890 7202 	ldrb.w	r7, [r0, #514]	; 0x202
 8003236:	3f01      	subs	r7, #1
 8003238:	ea17 1716 	ands.w	r7, r7, r6, lsr #4
 800323c:	d1ef      	bne.n	800321e <dir_next+0x3e>
				clst = get_fat(dp->fs, dp->clust);				/* Get next cluster */
 800323e:	f7ff fe4d 	bl	8002edc <get_fat>
				if (clst <= 1) return FR_INT_ERR;
 8003242:	2801      	cmp	r0, #1
				clst = get_fat(dp->fs, dp->clust);				/* Get next cluster */
 8003244:	4605      	mov	r5, r0
				if (clst <= 1) return FR_INT_ERR;
 8003246:	d801      	bhi.n	800324c <dir_next+0x6c>
 8003248:	2002      	movs	r0, #2
 800324a:	e7d3      	b.n	80031f4 <dir_next+0x14>
				if (clst == 0xFFFFFFFF) return FR_DISK_ERR;
 800324c:	1c42      	adds	r2, r0, #1
 800324e:	d101      	bne.n	8003254 <dir_next+0x74>
 8003250:	2001      	movs	r0, #1
 8003252:	e7cf      	b.n	80031f4 <dir_next+0x14>
				if (clst >= dp->fs->n_fatent) {					/* If it reached end of dynamic table, */
 8003254:	f8d4 0200 	ldr.w	r0, [r4, #512]	; 0x200
 8003258:	f8d0 3214 	ldr.w	r3, [r0, #532]	; 0x214
 800325c:	42ab      	cmp	r3, r5
 800325e:	d82f      	bhi.n	80032c0 <dir_next+0xe0>
					if (!stretch) return FR_NO_FILE;			/* If do not stretch, report EOT */
 8003260:	f1b9 0f00 	cmp.w	r9, #0
 8003264:	d0c5      	beq.n	80031f2 <dir_next+0x12>
					clst = create_chain(dp->fs, dp->clust);		/* Stretch cluster chain */
 8003266:	f8d4 120c 	ldr.w	r1, [r4, #524]	; 0x20c
 800326a:	f7ff ff60 	bl	800312e <create_chain>
					if (clst == 0) return FR_DENIED;			/* No free cluster */
 800326e:	4605      	mov	r5, r0
 8003270:	2800      	cmp	r0, #0
 8003272:	d03e      	beq.n	80032f2 <dir_next+0x112>
					if (clst == 1) return FR_INT_ERR;
 8003274:	2801      	cmp	r0, #1
 8003276:	d0e7      	beq.n	8003248 <dir_next+0x68>
					if (clst == 0xFFFFFFFF) return FR_DISK_ERR;
 8003278:	1c43      	adds	r3, r0, #1
 800327a:	d0e9      	beq.n	8003250 <dir_next+0x70>
					if (sync_window(dp->fs)) return FR_DISK_ERR;/* Flush disk access window */
 800327c:	f8d4 0200 	ldr.w	r0, [r4, #512]	; 0x200
 8003280:	f7ff fc4c 	bl	8002b1c <sync_window>
 8003284:	4601      	mov	r1, r0
 8003286:	2800      	cmp	r0, #0
 8003288:	d1e2      	bne.n	8003250 <dir_next+0x70>
					mem_set(dp->fs->win.d8, 0, SS(dp->fs));		/* Clear window buffer */
 800328a:	f44f 7200 	mov.w	r2, #512	; 0x200
 800328e:	f8d4 0200 	ldr.w	r0, [r4, #512]	; 0x200
 8003292:	f7ff fb03 	bl	800289c <mem_set>
					dp->fs->winsect = clust2sect(dp->fs, clst);	/* Cluster start sector */
 8003296:	f8d4 2200 	ldr.w	r2, [r4, #512]	; 0x200
 800329a:	4629      	mov	r1, r5
 800329c:	4610      	mov	r0, r2
 800329e:	f7ff fe0f 	bl	8002ec0 <clust2sect>
						dp->fs->wflag = 1;
 80032a2:	f04f 0901 	mov.w	r9, #1
					dp->fs->winsect = clust2sect(dp->fs, clst);	/* Cluster start sector */
 80032a6:	f8c2 022c 	str.w	r0, [r2, #556]	; 0x22c
					for (c = 0; c < dp->fs->csize; c++) {		/* Fill the new cluster with 0 */
 80032aa:	f8d4 0200 	ldr.w	r0, [r4, #512]	; 0x200
 80032ae:	f890 3202 	ldrb.w	r3, [r0, #514]	; 0x202
 80032b2:	42bb      	cmp	r3, r7
 80032b4:	d80e      	bhi.n	80032d4 <dir_next+0xf4>
					dp->fs->winsect -= c;						/* Rewind window offset */
 80032b6:	f8d0 322c 	ldr.w	r3, [r0, #556]	; 0x22c
 80032ba:	1bdf      	subs	r7, r3, r7
 80032bc:	f8c0 722c 	str.w	r7, [r0, #556]	; 0x22c
				dp->sect = clust2sect(dp->fs, clst);
 80032c0:	4629      	mov	r1, r5
 80032c2:	f8d4 0200 	ldr.w	r0, [r4, #512]	; 0x200
				dp->clust = clst;				/* Initialize data for new cluster */
 80032c6:	f8c4 520c 	str.w	r5, [r4, #524]	; 0x20c
				dp->sect = clust2sect(dp->fs, clst);
 80032ca:	f7ff fdf9 	bl	8002ec0 <clust2sect>
 80032ce:	f8c4 0210 	str.w	r0, [r4, #528]	; 0x210
 80032d2:	e7a4      	b.n	800321e <dir_next+0x3e>
						dp->fs->wflag = 1;
 80032d4:	f880 9204 	strb.w	r9, [r0, #516]	; 0x204
	if (fs->wflag) {	/* Write back the sector if it is dirty */
 80032d8:	f7ff fbf6 	bl	8002ac8 <sync_window.part.0>
						if (sync_window(dp->fs)) return FR_DISK_ERR;
 80032dc:	2800      	cmp	r0, #0
 80032de:	d1b7      	bne.n	8003250 <dir_next+0x70>
						dp->fs->winsect++;
 80032e0:	f8d4 2200 	ldr.w	r2, [r4, #512]	; 0x200
					for (c = 0; c < dp->fs->csize; c++) {		/* Fill the new cluster with 0 */
 80032e4:	3701      	adds	r7, #1
						dp->fs->winsect++;
 80032e6:	f8d2 322c 	ldr.w	r3, [r2, #556]	; 0x22c
 80032ea:	3301      	adds	r3, #1
 80032ec:	f8c2 322c 	str.w	r3, [r2, #556]	; 0x22c
					for (c = 0; c < dp->fs->csize; c++) {		/* Fill the new cluster with 0 */
 80032f0:	e7db      	b.n	80032aa <dir_next+0xca>
					if (clst == 0) return FR_DENIED;			/* No free cluster */
 80032f2:	2007      	movs	r0, #7
 80032f4:	e77e      	b.n	80031f4 <dir_next+0x14>
	...

080032f8 <dir_find.part.0>:
FRESULT dir_find (
 80032f8:	e92d 4ff7 	stmdb	sp!, {r0, r1, r2, r4, r5, r6, r7, r8, r9, sl, fp, lr}
	ord = sum = 0xFF; dp->lfn_idx = 0xFFFF;	/* Reset LFN sequence */
 80032fc:	f04f 09ff 	mov.w	r9, #255	; 0xff
 8003300:	f64f 78ff 	movw	r8, #65535	; 0xffff
FRESULT dir_find (
 8003304:	4606      	mov	r6, r0
	ord = sum = 0xFF; dp->lfn_idx = 0xFFFF;	/* Reset LFN sequence */
 8003306:	464c      	mov	r4, r9
 8003308:	f8a0 8224 	strh.w	r8, [r0, #548]	; 0x224
		res = move_window(dp->fs, dp->sect);
 800330c:	f8d6 1210 	ldr.w	r1, [r6, #528]	; 0x210
 8003310:	f8d6 0200 	ldr.w	r0, [r6, #512]	; 0x200
 8003314:	f7ff fc09 	bl	8002b2a <move_window>
		if (res != FR_OK) break;
 8003318:	4605      	mov	r5, r0
 800331a:	2800      	cmp	r0, #0
 800331c:	d161      	bne.n	80033e2 <dir_find.part.0+0xea>
		dir = dp->dir;					/* Ptr to the directory entry of current index */
 800331e:	f8d6 7214 	ldr.w	r7, [r6, #532]	; 0x214
		c = dir[DIR_Name];
 8003322:	783b      	ldrb	r3, [r7, #0]
		if (c == 0) { res = FR_NO_FILE; break; }	/* Reached to end of table */
 8003324:	2b00      	cmp	r3, #0
 8003326:	d07e      	beq.n	8003426 <dir_find.part.0+0x12e>
		if (c == DDEM || ((a & AM_VOL) && a != AM_LFN)) {	/* An entry without valid data */
 8003328:	2be5      	cmp	r3, #229	; 0xe5
 800332a:	d006      	beq.n	800333a <dir_find.part.0+0x42>
		a = dir[DIR_Attr] & AM_MASK;
 800332c:	7af9      	ldrb	r1, [r7, #11]
 800332e:	f001 023f 	and.w	r2, r1, #63	; 0x3f
		if (c == DDEM || ((a & AM_VOL) && a != AM_LFN)) {	/* An entry without valid data */
 8003332:	0709      	lsls	r1, r1, #28
 8003334:	d504      	bpl.n	8003340 <dir_find.part.0+0x48>
 8003336:	2a0f      	cmp	r2, #15
 8003338:	d004      	beq.n	8003344 <dir_find.part.0+0x4c>
				ord = 0xFF; dp->lfn_idx = 0xFFFF;	/* Reset LFN sequence */
 800333a:	f8a6 8224 	strh.w	r8, [r6, #548]	; 0x224
 800333e:	e056      	b.n	80033ee <dir_find.part.0+0xf6>
			if (a == AM_LFN) {			/* An LFN entry is found */
 8003340:	2a0f      	cmp	r2, #15
 8003342:	d159      	bne.n	80033f8 <dir_find.part.0+0x100>
				if (dp->lfn) {
 8003344:	f8d6 5220 	ldr.w	r5, [r6, #544]	; 0x220
 8003348:	2d00      	cmp	r5, #0
 800334a:	d043      	beq.n	80033d4 <dir_find.part.0+0xdc>
					if (c & LLEF) {		/* Is it start of LFN sequence? */
 800334c:	065a      	lsls	r2, r3, #25
 800334e:	d54c      	bpl.n	80033ea <dir_find.part.0+0xf2>
						c &= ~LLEF; ord = c;	/* LFN start order */
 8003350:	f003 04bf 	and.w	r4, r3, #191	; 0xbf
						dp->lfn_idx = dp->index;	/* Start index of LFN */
 8003354:	f8b6 3206 	ldrh.w	r3, [r6, #518]	; 0x206
						sum = dir[LDIR_Chksum];
 8003358:	f897 900d 	ldrb.w	r9, [r7, #13]
						dp->lfn_idx = dp->index;	/* Start index of LFN */
 800335c:	f8a6 3224 	strh.w	r3, [r6, #548]	; 0x224
					ord = (c == ord && sum == dir[LDIR_Chksum] && cmp_lfn(dp->lfn, dir)) ? ord - 1 : 0xFF;
 8003360:	7b7b      	ldrb	r3, [r7, #13]
 8003362:	454b      	cmp	r3, r9
 8003364:	d143      	bne.n	80033ee <dir_find.part.0+0xf6>
	i = ((dir[LDIR_Ord] & ~LLEF) - 1) * 13;	/* Get offset in the LFN buffer */
 8003366:	f04f 0b0d 	mov.w	fp, #13
	s = 0; wc = 1;
 800336a:	f04f 0c01 	mov.w	ip, #1
	i = ((dir[LDIR_Ord] & ~LLEF) - 1) * 13;	/* Get offset in the LFN buffer */
 800336e:	783b      	ldrb	r3, [r7, #0]
 8003370:	f8df a0bc 	ldr.w	sl, [pc, #188]	; 8003430 <dir_find.part.0+0x138>
 8003374:	f023 0340 	bic.w	r3, r3, #64	; 0x40
 8003378:	3b01      	subs	r3, #1
 800337a:	fb0b fb03 	mul.w	fp, fp, r3
		uc = LD_WORD(dir + LfnOfs[s]);	/* Pick an LFN character from the entry */
 800337e:	f81a 2b01 	ldrb.w	r2, [sl], #1
 8003382:	18b9      	adds	r1, r7, r2
 8003384:	7848      	ldrb	r0, [r1, #1]
 8003386:	5cba      	ldrb	r2, [r7, r2]
 8003388:	ea42 2000 	orr.w	r0, r2, r0, lsl #8
		if (wc) {	/* Last character has not been processed */
 800338c:	f1bc 0f00 	cmp.w	ip, #0
 8003390:	d02f      	beq.n	80033f2 <dir_find.part.0+0xfa>
			wc = ff_wtoupper(uc);		/* Convert it to upper case */
 8003392:	f000 febb 	bl	800410c <ff_wtoupper>
			if (i >= _MAX_LFN || wc != ff_wtoupper(lfnbuf[i++]))	/* Compare it */
 8003396:	f1bb 0f1f 	cmp.w	fp, #31
			wc = ff_wtoupper(uc);		/* Convert it to upper case */
 800339a:	9001      	str	r0, [sp, #4]
			if (i >= _MAX_LFN || wc != ff_wtoupper(lfnbuf[i++]))	/* Compare it */
 800339c:	d827      	bhi.n	80033ee <dir_find.part.0+0xf6>
 800339e:	f10b 0101 	add.w	r1, fp, #1
 80033a2:	f835 001b 	ldrh.w	r0, [r5, fp, lsl #1]
 80033a6:	9100      	str	r1, [sp, #0]
 80033a8:	f000 feb0 	bl	800410c <ff_wtoupper>
 80033ac:	9a01      	ldr	r2, [sp, #4]
 80033ae:	4684      	mov	ip, r0
 80033b0:	4282      	cmp	r2, r0
 80033b2:	d11c      	bne.n	80033ee <dir_find.part.0+0xf6>
 80033b4:	9900      	ldr	r1, [sp, #0]
 80033b6:	468b      	mov	fp, r1
	} while (++s < 13);				/* Repeat until all characters in the entry are checked */
 80033b8:	4b1c      	ldr	r3, [pc, #112]	; (800342c <dir_find.part.0+0x134>)
 80033ba:	4553      	cmp	r3, sl
 80033bc:	d1df      	bne.n	800337e <dir_find.part.0+0x86>
	if ((dir[LDIR_Ord] & LLEF) && wc && lfnbuf[i])	/* Last segment matched but different length */
 80033be:	783b      	ldrb	r3, [r7, #0]
 80033c0:	065b      	lsls	r3, r3, #25
 80033c2:	d505      	bpl.n	80033d0 <dir_find.part.0+0xd8>
 80033c4:	f1bc 0f00 	cmp.w	ip, #0
 80033c8:	d002      	beq.n	80033d0 <dir_find.part.0+0xd8>
 80033ca:	f835 301b 	ldrh.w	r3, [r5, fp, lsl #1]
 80033ce:	b973      	cbnz	r3, 80033ee <dir_find.part.0+0xf6>
					ord = (c == ord && sum == dir[LDIR_Chksum] && cmp_lfn(dp->lfn, dir)) ? ord - 1 : 0xFF;
 80033d0:	3c01      	subs	r4, #1
 80033d2:	b2e4      	uxtb	r4, r4
		res = dir_next(dp, 0);		/* Next entry */
 80033d4:	2100      	movs	r1, #0
 80033d6:	4630      	mov	r0, r6
 80033d8:	f7ff ff02 	bl	80031e0 <dir_next>
	} while (res == FR_OK);
 80033dc:	4605      	mov	r5, r0
 80033de:	2800      	cmp	r0, #0
 80033e0:	d094      	beq.n	800330c <dir_find.part.0+0x14>
}
 80033e2:	4628      	mov	r0, r5
 80033e4:	b003      	add	sp, #12
 80033e6:	e8bd 8ff0 	ldmia.w	sp!, {r4, r5, r6, r7, r8, r9, sl, fp, pc}
					ord = (c == ord && sum == dir[LDIR_Chksum] && cmp_lfn(dp->lfn, dir)) ? ord - 1 : 0xFF;
 80033ea:	42a3      	cmp	r3, r4
 80033ec:	d0b8      	beq.n	8003360 <dir_find.part.0+0x68>
 80033ee:	24ff      	movs	r4, #255	; 0xff
 80033f0:	e7f0      	b.n	80033d4 <dir_find.part.0+0xdc>
			if (uc != 0xFFFF) return 0;	/* Check filler */
 80033f2:	4540      	cmp	r0, r8
 80033f4:	d0e0      	beq.n	80033b8 <dir_find.part.0+0xc0>
 80033f6:	e7fa      	b.n	80033ee <dir_find.part.0+0xf6>
				if (!ord && sum == sum_sfn(dir)) break;	/* LFN matched? */
 80033f8:	b924      	cbnz	r4, 8003404 <dir_find.part.0+0x10c>
 80033fa:	4638      	mov	r0, r7
 80033fc:	f7ff fb18 	bl	8002a30 <sum_sfn>
 8003400:	4548      	cmp	r0, r9
 8003402:	d0ee      	beq.n	80033e2 <dir_find.part.0+0xea>
				if (!(dp->fn[NSFLAG] & NS_LOSS) && !mem_cmp(dir, dp->fn, 11)) break;	/* SFN matched? */
 8003404:	f8d6 3218 	ldr.w	r3, [r6, #536]	; 0x218
 8003408:	7add      	ldrb	r5, [r3, #11]
 800340a:	f015 0501 	ands.w	r5, r5, #1
 800340e:	d194      	bne.n	800333a <dir_find.part.0+0x42>
 8003410:	f107 000b 	add.w	r0, r7, #11
	while (cnt-- && (r = *d++ - *s++) == 0) ;
 8003414:	4287      	cmp	r7, r0
 8003416:	d0e4      	beq.n	80033e2 <dir_find.part.0+0xea>
 8003418:	f817 1b01 	ldrb.w	r1, [r7], #1
 800341c:	f813 2b01 	ldrb.w	r2, [r3], #1
 8003420:	4291      	cmp	r1, r2
 8003422:	d0f7      	beq.n	8003414 <dir_find.part.0+0x11c>
 8003424:	e789      	b.n	800333a <dir_find.part.0+0x42>
		if (c == 0) { res = FR_NO_FILE; break; }	/* Reached to end of table */
 8003426:	2504      	movs	r5, #4
 8003428:	e7db      	b.n	80033e2 <dir_find.part.0+0xea>
 800342a:	bf00      	nop
 800342c:	08005887 	.word	0x08005887
 8003430:	0800587a 	.word	0x0800587a

08003434 <follow_path>:
{
 8003434:	e92d 4ff7 	stmdb	sp!, {r0, r1, r2, r4, r5, r6, r7, r8, r9, sl, fp, lr}
	if (*path == '/' || *path == '\\')		/* Strip heading separator if exist */
 8003438:	780b      	ldrb	r3, [r1, #0]
{
 800343a:	4606      	mov	r6, r0
	if (*path == '/' || *path == '\\')		/* Strip heading separator if exist */
 800343c:	2b2f      	cmp	r3, #47	; 0x2f
{
 800343e:	460f      	mov	r7, r1
	if (*path == '/' || *path == '\\')		/* Strip heading separator if exist */
 8003440:	d001      	beq.n	8003446 <follow_path+0x12>
 8003442:	2b5c      	cmp	r3, #92	; 0x5c
 8003444:	d100      	bne.n	8003448 <follow_path+0x14>
		path++;
 8003446:	3701      	adds	r7, #1
	dp->sclust = 0;							/* Always start from the root directory */
 8003448:	2400      	movs	r4, #0
 800344a:	f8c6 4208 	str.w	r4, [r6, #520]	; 0x208
	if ((UINT)*path < ' ') {				/* Null path name is the origin directory itself */
 800344e:	783b      	ldrb	r3, [r7, #0]
 8003450:	2b1f      	cmp	r3, #31
 8003452:	f200 80d9 	bhi.w	8003608 <follow_path+0x1d4>
		res = dir_sdi(dp, 0);
 8003456:	4621      	mov	r1, r4
 8003458:	4630      	mov	r0, r6
 800345a:	f7ff fda0 	bl	8002f9e <dir_sdi>
		dp->dir = 0;
 800345e:	f8c6 4214 	str.w	r4, [r6, #532]	; 0x214
}
 8003462:	b003      	add	sp, #12
 8003464:	e8bd 8ff0 	ldmia.w	sp!, {r4, r5, r6, r7, r8, r9, sl, fp, pc}
		w = p[si++];					/* Get a character */
 8003468:	46b9      	mov	r9, r7
		lfn[di++] = w;					/* Store the Unicode character */
 800346a:	f82a 0f02 	strh.w	r0, [sl, #2]!
		w = p[si++];					/* Get a character */
 800346e:	e0dc      	b.n	800362a <follow_path+0x1f6>
	cf = (w < ' ') ? NS_LAST : 0;		/* Set last segment flag if end of path */
 8003470:	2820      	cmp	r0, #32
	*path = &p[si];						/* Return pointer to the next segment */
 8003472:	4427      	add	r7, r4
	cf = (w < ' ') ? NS_LAST : 0;		/* Set last segment flag if end of path */
 8003474:	bf34      	ite	cc
 8003476:	2404      	movcc	r4, #4
 8003478:	2400      	movcs	r4, #0
	while (di) {						/* Strip trailing spaces and dots */
 800347a:	f1b9 0f00 	cmp.w	r9, #0
 800347e:	f000 80f2 	beq.w	8003666 <follow_path+0x232>
		w = lfn[di - 1];
 8003482:	f835 3019 	ldrh.w	r3, [r5, r9, lsl #1]
		if (w != ' ' && w != '.') break;
 8003486:	2b20      	cmp	r3, #32
 8003488:	d002      	beq.n	8003490 <follow_path+0x5c>
 800348a:	2b2e      	cmp	r3, #46	; 0x2e
 800348c:	f040 80ef 	bne.w	800366e <follow_path+0x23a>
		di--;
 8003490:	f109 39ff 	add.w	r9, r9, #4294967295
 8003494:	e7f1      	b.n	800347a <follow_path+0x46>
	for (si = 0; lfn[si] == ' ' || lfn[si] == '.'; si++) ;	/* Strip leading spaces and dots */
 8003496:	3101      	adds	r1, #1
 8003498:	f83b 3011 	ldrh.w	r3, [fp, r1, lsl #1]
 800349c:	2b20      	cmp	r3, #32
 800349e:	d0fa      	beq.n	8003496 <follow_path+0x62>
 80034a0:	2b2e      	cmp	r3, #46	; 0x2e
 80034a2:	d0f8      	beq.n	8003496 <follow_path+0x62>
	if (si) cf |= NS_LOSS | NS_LFN;
 80034a4:	b109      	cbz	r1, 80034aa <follow_path+0x76>
 80034a6:	f044 0403 	orr.w	r4, r4, #3
	while (di && lfn[di - 1] != '.') di--;	/* Find extension (di<=si: no extension) */
 80034aa:	f835 3019 	ldrh.w	r3, [r5, r9, lsl #1]
 80034ae:	2b2e      	cmp	r3, #46	; 0x2e
 80034b0:	d002      	beq.n	80034b8 <follow_path+0x84>
 80034b2:	f1b9 0901 	subs.w	r9, r9, #1
 80034b6:	d1f8      	bne.n	80034aa <follow_path+0x76>
		dp->fn[i++] = (BYTE)w;
 80034b8:	f04f 0800 	mov.w	r8, #0
 80034bc:	f04f 0a08 	mov.w	sl, #8
 80034c0:	4645      	mov	r5, r8
		w = lfn[si++];					/* Get an LFN character */
 80034c2:	f83b 0011 	ldrh.w	r0, [fp, r1, lsl #1]
 80034c6:	1c4a      	adds	r2, r1, #1
		if (!w) break;					/* Break on end of the LFN */
 80034c8:	b1c0      	cbz	r0, 80034fc <follow_path+0xc8>
		if (w == ' ' || (w == '.' && si != di)) {	/* Remove spaces and dots */
 80034ca:	2820      	cmp	r0, #32
 80034cc:	d003      	beq.n	80034d6 <follow_path+0xa2>
 80034ce:	282e      	cmp	r0, #46	; 0x2e
 80034d0:	d105      	bne.n	80034de <follow_path+0xaa>
 80034d2:	454a      	cmp	r2, r9
 80034d4:	d007      	beq.n	80034e6 <follow_path+0xb2>
			cf |= NS_LOSS | NS_LFN; continue;
 80034d6:	f044 0403 	orr.w	r4, r4, #3
		dp->fn[i++] = (BYTE)w;
 80034da:	4611      	mov	r1, r2
 80034dc:	e7f1      	b.n	80034c2 <follow_path+0x8e>
		if (i >= ni || si == di) {		/* Extension or end of SFN */
 80034de:	45d0      	cmp	r8, sl
 80034e0:	d205      	bcs.n	80034ee <follow_path+0xba>
 80034e2:	454a      	cmp	r2, r9
 80034e4:	d151      	bne.n	800358a <follow_path+0x156>
			if (ni == 11) {				/* Long extension */
 80034e6:	f1ba 0f0b 	cmp.w	sl, #11
 80034ea:	d146      	bne.n	800357a <follow_path+0x146>
 80034ec:	e002      	b.n	80034f4 <follow_path+0xc0>
 80034ee:	f1ba 0f0b 	cmp.w	sl, #11
 80034f2:	d13d      	bne.n	8003570 <follow_path+0x13c>
				cf |= NS_LOSS | NS_LFN; break;
 80034f4:	f04f 0a0b 	mov.w	sl, #11
 80034f8:	f044 0403 	orr.w	r4, r4, #3
	if (dp->fn[0] == DDEM) dp->fn[0] = RDDEM;	/* If the first character collides with deleted mark, replace it with RDDEM */
 80034fc:	f8d6 3218 	ldr.w	r3, [r6, #536]	; 0x218
 8003500:	781a      	ldrb	r2, [r3, #0]
 8003502:	2ae5      	cmp	r2, #229	; 0xe5
 8003504:	bf04      	itt	eq
 8003506:	2205      	moveq	r2, #5
 8003508:	701a      	strbeq	r2, [r3, #0]
	if (ni == 8) b <<= 2;
 800350a:	f1ba 0f08 	cmp.w	sl, #8
 800350e:	bf04      	itt	eq
 8003510:	00ad      	lsleq	r5, r5, #2
 8003512:	b2ed      	uxtbeq	r5, r5
	if ((b & 0x0C) == 0x0C || (b & 0x03) == 0x03)	/* Create LFN entry when there are composite capitals */
 8003514:	f005 030c 	and.w	r3, r5, #12
 8003518:	2b0c      	cmp	r3, #12
 800351a:	d003      	beq.n	8003524 <follow_path+0xf0>
 800351c:	f005 0203 	and.w	r2, r5, #3
 8003520:	2a03      	cmp	r2, #3
 8003522:	d101      	bne.n	8003528 <follow_path+0xf4>
		cf |= NS_LFN;
 8003524:	f044 0402 	orr.w	r4, r4, #2
	if (!(cf & NS_LFN)) {						/* When LFN is in 8.3 format without extended character, NT flags are created */
 8003528:	07a1      	lsls	r1, r4, #30
 800352a:	d409      	bmi.n	8003540 <follow_path+0x10c>
		if ((b & 0x03) == 0x01) cf |= NS_EXT;	/* NT flag (Extension has only small capital) */
 800352c:	f005 0503 	and.w	r5, r5, #3
 8003530:	2d01      	cmp	r5, #1
 8003532:	bf08      	it	eq
 8003534:	f044 0410 	orreq.w	r4, r4, #16
		if ((b & 0x0C) == 0x04) cf |= NS_BODY;	/* NT flag (Filename has only small capital) */
 8003538:	2b04      	cmp	r3, #4
 800353a:	bf08      	it	eq
 800353c:	f044 0408 	orreq.w	r4, r4, #8
	dp->fn[NSFLAG] = cf;	/* SFN is created */
 8003540:	f8d6 3218 	ldr.w	r3, [r6, #536]	; 0x218
	res = dir_sdi(dp, 0);			/* Rewind directory object */
 8003544:	2100      	movs	r1, #0
 8003546:	4630      	mov	r0, r6
	dp->fn[NSFLAG] = cf;	/* SFN is created */
 8003548:	72dc      	strb	r4, [r3, #11]
	res = dir_sdi(dp, 0);			/* Rewind directory object */
 800354a:	f7ff fd28 	bl	8002f9e <dir_sdi>
	if (res != FR_OK) return res;
 800354e:	b910      	cbnz	r0, 8003556 <follow_path+0x122>
 8003550:	4630      	mov	r0, r6
 8003552:	f7ff fed1 	bl	80032f8 <dir_find.part.0>
			ns = dp->fn[NSFLAG];
 8003556:	f8d6 3218 	ldr.w	r3, [r6, #536]	; 0x218
 800355a:	7adb      	ldrb	r3, [r3, #11]
			if (res != FR_OK) {				/* Failed to find the object */
 800355c:	2800      	cmp	r0, #0
 800355e:	d043      	beq.n	80035e8 <follow_path+0x1b4>
				if (res == FR_NO_FILE) {	/* Object is not found */
 8003560:	2804      	cmp	r0, #4
 8003562:	f47f af7e 	bne.w	8003462 <follow_path+0x2e>
						if (!(ns & NS_LAST)) res = FR_NO_PATH;	/* Adjust error code if not last segment */
 8003566:	f013 0f04 	tst.w	r3, #4
 800356a:	bf08      	it	eq
 800356c:	2005      	moveq	r0, #5
 800356e:	e778      	b.n	8003462 <follow_path+0x2e>
			if (si != di) cf |= NS_LOSS | NS_LFN;	/* Out of 8.3 format */
 8003570:	454a      	cmp	r2, r9
 8003572:	d002      	beq.n	800357a <follow_path+0x146>
 8003574:	f044 0403 	orr.w	r4, r4, #3
			if (si > di) break;			/* No extension */
 8003578:	d8c0      	bhi.n	80034fc <follow_path+0xc8>
			b <<= 2; continue;
 800357a:	00ad      	lsls	r5, r5, #2
 800357c:	464a      	mov	r2, r9
			si = di; i = 8; ni = 11;	/* Enter extension section */
 800357e:	f04f 0a0b 	mov.w	sl, #11
 8003582:	f04f 0808 	mov.w	r8, #8
			b <<= 2; continue;
 8003586:	b2ed      	uxtb	r5, r5
 8003588:	e7a7      	b.n	80034da <follow_path+0xa6>
		if (w >= 0x80) {				/* Non ASCII character */
 800358a:	287f      	cmp	r0, #127	; 0x7f
 800358c:	d90c      	bls.n	80035a8 <follow_path+0x174>
			w = ff_convert(w, 0);		/* Unicode -> OEM code */
 800358e:	2100      	movs	r1, #0
 8003590:	9201      	str	r2, [sp, #4]
 8003592:	f000 fd9d 	bl	80040d0 <ff_convert>
			if (w) w = ExCvt[w - 0x80];	/* Convert extended character to upper (SBCS) */
 8003596:	f044 0402 	orr.w	r4, r4, #2
 800359a:	9a01      	ldr	r2, [sp, #4]
 800359c:	b150      	cbz	r0, 80035b4 <follow_path+0x180>
 800359e:	4b39      	ldr	r3, [pc, #228]	; (8003684 <follow_path+0x250>)
 80035a0:	4418      	add	r0, r3
 80035a2:	f810 0c80 	ldrb.w	r0, [r0, #-128]
			if (!w || chk_chr("+,;=[]", w)) {	/* Replace illegal characters for SFN */
 80035a6:	b128      	cbz	r0, 80035b4 <follow_path+0x180>
	while (*str && *str != chr) str++;
 80035a8:	4b37      	ldr	r3, [pc, #220]	; (8003688 <follow_path+0x254>)
 80035aa:	f813 1b01 	ldrb.w	r1, [r3], #1
 80035ae:	b159      	cbz	r1, 80035c8 <follow_path+0x194>
 80035b0:	4281      	cmp	r1, r0
 80035b2:	d1fa      	bne.n	80035aa <follow_path+0x176>
				w = '_'; cf |= NS_LOSS | NS_LFN;/* Lossy conversion */
 80035b4:	205f      	movs	r0, #95	; 0x5f
 80035b6:	f044 0403 	orr.w	r4, r4, #3
		dp->fn[i++] = (BYTE)w;
 80035ba:	f8d6 1218 	ldr.w	r1, [r6, #536]	; 0x218
 80035be:	f801 0008 	strb.w	r0, [r1, r8]
 80035c2:	f108 0801 	add.w	r8, r8, #1
 80035c6:	e788      	b.n	80034da <follow_path+0xa6>
				if (IsUpper(w)) {		/* ASCII large capital */
 80035c8:	f1a0 0141 	sub.w	r1, r0, #65	; 0x41
 80035cc:	2919      	cmp	r1, #25
 80035ce:	d802      	bhi.n	80035d6 <follow_path+0x1a2>
					b |= 2;
 80035d0:	f045 0502 	orr.w	r5, r5, #2
 80035d4:	e7f1      	b.n	80035ba <follow_path+0x186>
					if (IsLower(w)) {	/* ASCII small capital */
 80035d6:	f1a0 0161 	sub.w	r1, r0, #97	; 0x61
 80035da:	2919      	cmp	r1, #25
						b |= 1; w -= 0x20;
 80035dc:	bf9e      	ittt	ls
 80035de:	3820      	subls	r0, #32
 80035e0:	f045 0501 	orrls.w	r5, r5, #1
 80035e4:	b280      	uxthls	r0, r0
 80035e6:	e7e8      	b.n	80035ba <follow_path+0x186>
			if (ns & NS_LAST) break;			/* Last segment matched. Function completed. */
 80035e8:	075a      	lsls	r2, r3, #29
 80035ea:	f53f af3a 	bmi.w	8003462 <follow_path+0x2e>
			dir = dp->dir;						/* Follow the sub-directory */
 80035ee:	f8d6 1214 	ldr.w	r1, [r6, #532]	; 0x214
			if (!(dir[DIR_Attr] & AM_DIR)) {	/* It is not a sub-directory and cannot follow */
 80035f2:	7acb      	ldrb	r3, [r1, #11]
 80035f4:	06db      	lsls	r3, r3, #27
 80035f6:	d538      	bpl.n	800366a <follow_path+0x236>
			dp->sclust = ld_clust(dp->fs, dir);
 80035f8:	f8d6 3200 	ldr.w	r3, [r6, #512]	; 0x200
 80035fc:	f893 0200 	ldrb.w	r0, [r3, #512]	; 0x200
 8003600:	f7ff fa54 	bl	8002aac <ld_clust.isra.0>
 8003604:	f8c6 0208 	str.w	r0, [r6, #520]	; 0x208
	for (p = *path; *p == '/' || *p == '\\'; p++) ;	/* Strip duplicated separator */
 8003608:	783b      	ldrb	r3, [r7, #0]
 800360a:	463c      	mov	r4, r7
 800360c:	2b2f      	cmp	r3, #47	; 0x2f
 800360e:	f107 0701 	add.w	r7, r7, #1
 8003612:	d0f9      	beq.n	8003608 <follow_path+0x1d4>
 8003614:	2b5c      	cmp	r3, #92	; 0x5c
 8003616:	d0f7      	beq.n	8003608 <follow_path+0x1d4>
	lfn = dp->lfn;
 8003618:	f8d6 b220 	ldr.w	fp, [r6, #544]	; 0x220
	si = di = 0;
 800361c:	f04f 0900 	mov.w	r9, #0
 8003620:	f1ab 0502 	sub.w	r5, fp, #2
 8003624:	46aa      	mov	sl, r5
 8003626:	f104 38ff 	add.w	r8, r4, #4294967295
		w = p[si++];					/* Get a character */
 800362a:	f818 0f01 	ldrb.w	r0, [r8, #1]!
 800362e:	f109 0701 	add.w	r7, r9, #1
		if (w < ' ' || w == '/' || w == '\\') break;	/* Break on end of segment */
 8003632:	281f      	cmp	r0, #31
 8003634:	f67f af1c 	bls.w	8003470 <follow_path+0x3c>
 8003638:	282f      	cmp	r0, #47	; 0x2f
 800363a:	f43f af19 	beq.w	8003470 <follow_path+0x3c>
 800363e:	285c      	cmp	r0, #92	; 0x5c
 8003640:	f43f af16 	beq.w	8003470 <follow_path+0x3c>
		if (di >= _MAX_LFN)				/* Reject too long name */
 8003644:	2f21      	cmp	r7, #33	; 0x21
 8003646:	d00e      	beq.n	8003666 <follow_path+0x232>
		w = ff_convert(w, 1);			/* Convert ANSI/OEM to Unicode */
 8003648:	2101      	movs	r1, #1
 800364a:	f000 fd41 	bl	80040d0 <ff_convert>
		if (!w) return FR_INVALID_NAME;	/* Reject invalid code */
 800364e:	b150      	cbz	r0, 8003666 <follow_path+0x232>
		if (w < 0x80 && chk_chr("\"*:<>\?|\x7F", w)) /* Reject illegal characters for LFN */
 8003650:	287f      	cmp	r0, #127	; 0x7f
 8003652:	f63f af09 	bhi.w	8003468 <follow_path+0x34>
 8003656:	490d      	ldr	r1, [pc, #52]	; (800368c <follow_path+0x258>)
	while (*str && *str != chr) str++;
 8003658:	f811 2b01 	ldrb.w	r2, [r1], #1
 800365c:	2a00      	cmp	r2, #0
 800365e:	f43f af03 	beq.w	8003468 <follow_path+0x34>
 8003662:	4282      	cmp	r2, r0
 8003664:	d1f8      	bne.n	8003658 <follow_path+0x224>
				cf |= NS_LOSS | NS_LFN; break;
 8003666:	2006      	movs	r0, #6
 8003668:	e6fb      	b.n	8003462 <follow_path+0x2e>
						if (!(ns & NS_LAST)) res = FR_NO_PATH;	/* Adjust error code if not last segment */
 800366a:	2005      	movs	r0, #5
	return res;
 800366c:	e6f9      	b.n	8003462 <follow_path+0x2e>
	lfn[di] = 0;						/* LFN is created */
 800366e:	2300      	movs	r3, #0
	mem_set(dp->fn, ' ', 11);
 8003670:	2120      	movs	r1, #32
 8003672:	220b      	movs	r2, #11
 8003674:	f8d6 0218 	ldr.w	r0, [r6, #536]	; 0x218
	lfn[di] = 0;						/* LFN is created */
 8003678:	f82b 3019 	strh.w	r3, [fp, r9, lsl #1]
	mem_set(dp->fn, ' ', 11);
 800367c:	f7ff f90e 	bl	800289c <mem_set>
	for (si = 0; lfn[si] == ' ' || lfn[si] == '.'; si++) ;	/* Strip leading spaces and dots */
 8003680:	4619      	mov	r1, r3
 8003682:	e709      	b.n	8003498 <follow_path+0x64>
 8003684:	080057fa 	.word	0x080057fa
 8003688:	080057f3 	.word	0x080057f3
 800368c:	080057ea 	.word	0x080057ea

08003690 <dir_register>:
	mem_cpy(sn, fn, 12);
 8003690:	220c      	movs	r2, #12
{
 8003692:	e92d 4ff0 	stmdb	sp!, {r4, r5, r6, r7, r8, r9, sl, fp, lr}
	fn = dp->fn; lfn = dp->lfn;
 8003696:	f8d0 6218 	ldr.w	r6, [r0, #536]	; 0x218
{
 800369a:	b087      	sub	sp, #28
	fn = dp->fn; lfn = dp->lfn;
 800369c:	f8d0 7220 	ldr.w	r7, [r0, #544]	; 0x220
{
 80036a0:	4605      	mov	r5, r0
	mem_cpy(sn, fn, 12);
 80036a2:	4631      	mov	r1, r6
 80036a4:	eb0d 0002 	add.w	r0, sp, r2
 80036a8:	f7ff f8ee 	bl	8002888 <mem_cpy>
	if (sn[NSFLAG] & NS_LOSS) {			/* When LFN is out of 8.3 format, generate a numbered name */
 80036ac:	f89d 3017 	ldrb.w	r3, [sp, #23]
 80036b0:	07db      	lsls	r3, r3, #31
 80036b2:	d55d      	bpl.n	8003770 <dir_register+0xe0>
		fn[NSFLAG] = 0; dp->lfn = 0;			/* Find only SFN */
 80036b4:	2300      	movs	r3, #0
		for (n = 1; n < 100; n++) {
 80036b6:	f04f 0901 	mov.w	r9, #1
				if (sr & 0x10000) sr ^= 0x11021;
 80036ba:	f8df 8260 	ldr.w	r8, [pc, #608]	; 800391c <dir_register+0x28c>
		fn[NSFLAG] = 0; dp->lfn = 0;			/* Find only SFN */
 80036be:	72f3      	strb	r3, [r6, #11]
 80036c0:	f8c5 3220 	str.w	r3, [r5, #544]	; 0x220
	mem_cpy(dst, src, 11);
 80036c4:	220b      	movs	r2, #11
 80036c6:	4630      	mov	r0, r6
 80036c8:	a903      	add	r1, sp, #12
 80036ca:	f7ff f8dd 	bl	8002888 <mem_cpy>
	if (seq > 5) {	/* On many collisions, generate a hash number instead of sequential number */
 80036ce:	f1b9 0f05 	cmp.w	r9, #5
 80036d2:	f240 80fa 	bls.w	80038ca <dir_register+0x23a>
 80036d6:	464b      	mov	r3, r9
 80036d8:	1eb8      	subs	r0, r7, #2
		while (*lfn) {	/* Create a CRC */
 80036da:	f830 2f02 	ldrh.w	r2, [r0, #2]!
 80036de:	2a00      	cmp	r2, #0
 80036e0:	f040 80e5 	bne.w	80038ae <dir_register+0x21e>
 80036e4:	2207      	movs	r2, #7
 80036e6:	f10d 000b 	add.w	r0, sp, #11
		c = (seq % 16) + '0';
 80036ea:	f003 040f 	and.w	r4, r3, #15
 80036ee:	f104 0130 	add.w	r1, r4, #48	; 0x30
		if (c > '9') c += 7;
 80036f2:	2939      	cmp	r1, #57	; 0x39
 80036f4:	bf88      	it	hi
 80036f6:	f104 0137 	addhi.w	r1, r4, #55	; 0x37
	} while (seq);
 80036fa:	2b0f      	cmp	r3, #15
		ns[i--] = c;
 80036fc:	f800 1901 	strb.w	r1, [r0], #-1
 8003700:	f102 32ff 	add.w	r2, r2, #4294967295
		seq /= 16;
 8003704:	ea4f 1113 	mov.w	r1, r3, lsr #4
	} while (seq);
 8003708:	f200 80e1 	bhi.w	80038ce <dir_register+0x23e>
	ns[i] = '~';
 800370c:	217e      	movs	r1, #126	; 0x7e
 800370e:	ab06      	add	r3, sp, #24
 8003710:	4413      	add	r3, r2
 8003712:	f803 1c14 	strb.w	r1, [r3, #-20]
	for (j = 0; j < i && dst[j] != ' '; j++) {
 8003716:	2300      	movs	r3, #0
 8003718:	1e74      	subs	r4, r6, #1
 800371a:	4293      	cmp	r3, r2
 800371c:	d004      	beq.n	8003728 <dir_register+0x98>
 800371e:	1c59      	adds	r1, r3, #1
 8003720:	5c60      	ldrb	r0, [r4, r1]
 8003722:	2820      	cmp	r0, #32
 8003724:	f040 80d5 	bne.w	80038d2 <dir_register+0x242>
 8003728:	4433      	add	r3, r6
		dst[j++] = (i < 8) ? ns[i++] : ' ';
 800372a:	2a07      	cmp	r2, #7
 800372c:	bf8f      	iteee	hi
 800372e:	2120      	movhi	r1, #32
 8003730:	a906      	addls	r1, sp, #24
 8003732:	1889      	addls	r1, r1, r2
 8003734:	f811 1c14 	ldrbls.w	r1, [r1, #-20]
 8003738:	bf98      	it	ls
 800373a:	3201      	addls	r2, #1
 800373c:	f803 1b01 	strb.w	r1, [r3], #1
	} while (j < 8);
 8003740:	1b99      	subs	r1, r3, r6
 8003742:	2907      	cmp	r1, #7
 8003744:	d9f1      	bls.n	800372a <dir_register+0x9a>
	res = dir_sdi(dp, 0);			/* Rewind directory object */
 8003746:	2100      	movs	r1, #0
 8003748:	4628      	mov	r0, r5
 800374a:	f7ff fc28 	bl	8002f9e <dir_sdi>
	if (res != FR_OK) return res;
 800374e:	4604      	mov	r4, r0
 8003750:	b930      	cbnz	r0, 8003760 <dir_register+0xd0>
 8003752:	4628      	mov	r0, r5
 8003754:	f7ff fdd0 	bl	80032f8 <dir_find.part.0>
			if (res != FR_OK) break;
 8003758:	4604      	mov	r4, r0
 800375a:	2800      	cmp	r0, #0
 800375c:	f000 80bb 	beq.w	80038d6 <dir_register+0x246>
		if (res != FR_NO_FILE) return res;	/* Abort if the result is other than 'not collided' */
 8003760:	2c04      	cmp	r4, #4
 8003762:	f040 80bf 	bne.w	80038e4 <dir_register+0x254>
		fn[NSFLAG] = sn[NSFLAG]; dp->lfn = lfn;
 8003766:	f89d 3017 	ldrb.w	r3, [sp, #23]
 800376a:	72f3      	strb	r3, [r6, #11]
 800376c:	f8c5 7220 	str.w	r7, [r5, #544]	; 0x220
	if (sn[NSFLAG] & NS_LFN) {			/* When LFN is to be created, allocate entries for an SFN + LFNs. */
 8003770:	f89d 3017 	ldrb.w	r3, [sp, #23]
 8003774:	079b      	lsls	r3, r3, #30
 8003776:	f100 80c3 	bmi.w	8003900 <dir_register+0x270>
		nent = 1;
 800377a:	2601      	movs	r6, #1
	res = dir_sdi(dp, 0);
 800377c:	2100      	movs	r1, #0
 800377e:	4628      	mov	r0, r5
 8003780:	f7ff fc0d 	bl	8002f9e <dir_sdi>
	if (res == FR_OK) {
 8003784:	4604      	mov	r4, r0
 8003786:	2800      	cmp	r0, #0
 8003788:	f040 80c5 	bne.w	8003916 <dir_register+0x286>
		n = 0;
 800378c:	4607      	mov	r7, r0
			res = move_window(dp->fs, dp->sect);
 800378e:	f8d5 1210 	ldr.w	r1, [r5, #528]	; 0x210
 8003792:	f8d5 0200 	ldr.w	r0, [r5, #512]	; 0x200
 8003796:	f7ff f9c8 	bl	8002b2a <move_window>
			if (res != FR_OK) break;
 800379a:	4604      	mov	r4, r0
 800379c:	2800      	cmp	r0, #0
 800379e:	f040 80ba 	bne.w	8003916 <dir_register+0x286>
			if (dp->dir[0] == DDEM || dp->dir[0] == 0) {	/* Is it a free entry? */
 80037a2:	f8d5 3214 	ldr.w	r3, [r5, #532]	; 0x214
 80037a6:	781b      	ldrb	r3, [r3, #0]
 80037a8:	2be5      	cmp	r3, #229	; 0xe5
 80037aa:	d002      	beq.n	80037b2 <dir_register+0x122>
 80037ac:	2b00      	cmp	r3, #0
 80037ae:	f040 80a9 	bne.w	8003904 <dir_register+0x274>
				if (++n == nent) break;	/* A block of contiguous free entries is found */
 80037b2:	3701      	adds	r7, #1
 80037b4:	42be      	cmp	r6, r7
 80037b6:	f040 80a6 	bne.w	8003906 <dir_register+0x276>
	if (res == FR_OK && --nent) {	/* Set LFN entry if needed */
 80037ba:	3e01      	subs	r6, #1
 80037bc:	d058      	beq.n	8003870 <dir_register+0x1e0>
		res = dir_sdi(dp, dp->index - nent);
 80037be:	f8b5 1206 	ldrh.w	r1, [r5, #518]	; 0x206
 80037c2:	4628      	mov	r0, r5
 80037c4:	1b89      	subs	r1, r1, r6
 80037c6:	f7ff fbea 	bl	8002f9e <dir_sdi>
		if (res == FR_OK) {
 80037ca:	4604      	mov	r4, r0
 80037cc:	2800      	cmp	r0, #0
 80037ce:	f040 8089 	bne.w	80038e4 <dir_register+0x254>
			sum = sum_sfn(dp->fn);	/* Sum value of the SFN tied to the LFN */
 80037d2:	f8d5 0218 	ldr.w	r0, [r5, #536]	; 0x218
 80037d6:	f7ff f92b 	bl	8002a30 <sum_sfn>
	dir[LDIR_Attr] = AM_LFN;		/* Set attribute. LFN entry */
 80037da:	f04f 080f 	mov.w	r8, #15
			sum = sum_sfn(dp->fn);	/* Sum value of the SFN tied to the LFN */
 80037de:	4607      	mov	r7, r0
		if (wc != 0xFFFF) wc = lfnbuf[i++];	/* Get an effective character */
 80037e0:	f64f 79ff 	movw	r9, #65535	; 0xffff
				res = move_window(dp->fs, dp->sect);
 80037e4:	f8d5 1210 	ldr.w	r1, [r5, #528]	; 0x210
 80037e8:	f8d5 0200 	ldr.w	r0, [r5, #512]	; 0x200
 80037ec:	f7ff f99d 	bl	8002b2a <move_window>
 80037f0:	4603      	mov	r3, r0
 80037f2:	4604      	mov	r4, r0
				if (res != FR_OK) break;
 80037f4:	2800      	cmp	r0, #0
 80037f6:	d175      	bne.n	80038e4 <dir_register+0x254>
	i = (ord - 1) * 13;				/* Get offset in the LFN buffer */
 80037f8:	240d      	movs	r4, #13
	s = wc = 0;
 80037fa:	469a      	mov	sl, r3
 80037fc:	b2f0      	uxtb	r0, r6
	i = (ord - 1) * 13;				/* Get offset in the LFN buffer */
 80037fe:	1e41      	subs	r1, r0, #1
 8003800:	4361      	muls	r1, r4
				fit_lfn(dp->lfn, dp->dir, (BYTE)nent, sum);
 8003802:	f8d5 2214 	ldr.w	r2, [r5, #532]	; 0x214
 8003806:	f8df e118 	ldr.w	lr, [pc, #280]	; 8003920 <dir_register+0x290>
 800380a:	f8d5 c220 	ldr.w	ip, [r5, #544]	; 0x220
	dir[LDIR_Chksum] = sum;			/* Set check sum */
 800380e:	7357      	strb	r7, [r2, #13]
	dir[LDIR_Attr] = AM_LFN;		/* Set attribute. LFN entry */
 8003810:	f882 800b 	strb.w	r8, [r2, #11]
	dir[LDIR_Type] = 0;
 8003814:	7313      	strb	r3, [r2, #12]
	ST_WORD(dir + LDIR_FstClusLO, 0);
 8003816:	7693      	strb	r3, [r2, #26]
 8003818:	76d3      	strb	r3, [r2, #27]
		if (wc != 0xFFFF) wc = lfnbuf[i++];	/* Get an effective character */
 800381a:	454b      	cmp	r3, r9
 800381c:	bf18      	it	ne
 800381e:	f83c 3011 	ldrhne.w	r3, [ip, r1, lsl #1]
		ST_WORD(dir+LfnOfs[s], wc);	/* Put it */
 8003822:	f81e 4b01 	ldrb.w	r4, [lr], #1
	} while (++s < 13);
 8003826:	f10a 0a01 	add.w	sl, sl, #1
		ST_WORD(dir+LfnOfs[s], wc);	/* Put it */
 800382a:	5513      	strb	r3, [r2, r4]
		if (wc != 0xFFFF) wc = lfnbuf[i++];	/* Get an effective character */
 800382c:	bf18      	it	ne
 800382e:	3101      	addne	r1, #1
		ST_WORD(dir+LfnOfs[s], wc);	/* Put it */
 8003830:	ea4f 2b13 	mov.w	fp, r3, lsr #8
 8003834:	4414      	add	r4, r2
		if (!wc) wc = 0xFFFF;		/* Padding characters following last character */
 8003836:	2b00      	cmp	r3, #0
 8003838:	bf08      	it	eq
 800383a:	464b      	moveq	r3, r9
	} while (++s < 13);
 800383c:	f1ba 0f0d 	cmp.w	sl, #13
		ST_WORD(dir+LfnOfs[s], wc);	/* Put it */
 8003840:	f884 b001 	strb.w	fp, [r4, #1]
	} while (++s < 13);
 8003844:	d1e9      	bne.n	800381a <dir_register+0x18a>
	if (wc == 0xFFFF || !lfnbuf[i]) ord |= LLEF;	/* Bottom LFN part is the start of LFN sequence */
 8003846:	454b      	cmp	r3, r9
 8003848:	d002      	beq.n	8003850 <dir_register+0x1c0>
 800384a:	f83c 3011 	ldrh.w	r3, [ip, r1, lsl #1]
 800384e:	b90b      	cbnz	r3, 8003854 <dir_register+0x1c4>
 8003850:	f040 0040 	orr.w	r0, r0, #64	; 0x40
	dir[LDIR_Ord] = ord;			/* Set the LFN order */
 8003854:	7010      	strb	r0, [r2, #0]
				dp->fs->wflag = 1;
 8003856:	2201      	movs	r2, #1
 8003858:	f8d5 3200 	ldr.w	r3, [r5, #512]	; 0x200
				res = dir_next(dp, 0);	/* Next entry */
 800385c:	2100      	movs	r1, #0
 800385e:	4628      	mov	r0, r5
				dp->fs->wflag = 1;
 8003860:	f883 2204 	strb.w	r2, [r3, #516]	; 0x204
				res = dir_next(dp, 0);	/* Next entry */
 8003864:	f7ff fcbc 	bl	80031e0 <dir_next>
			} while (res == FR_OK && --nent);
 8003868:	4604      	mov	r4, r0
 800386a:	bbd8      	cbnz	r0, 80038e4 <dir_register+0x254>
 800386c:	3e01      	subs	r6, #1
 800386e:	d1b9      	bne.n	80037e4 <dir_register+0x154>
		res = move_window(dp->fs, dp->sect);
 8003870:	f8d5 1210 	ldr.w	r1, [r5, #528]	; 0x210
 8003874:	f8d5 0200 	ldr.w	r0, [r5, #512]	; 0x200
 8003878:	f7ff f957 	bl	8002b2a <move_window>
		if (res == FR_OK) {
 800387c:	4604      	mov	r4, r0
 800387e:	bb88      	cbnz	r0, 80038e4 <dir_register+0x254>
			mem_set(dp->dir, 0, SZ_DIRE);	/* Clean the entry */
 8003880:	4601      	mov	r1, r0
 8003882:	2220      	movs	r2, #32
 8003884:	f8d5 0214 	ldr.w	r0, [r5, #532]	; 0x214
 8003888:	f7ff f808 	bl	800289c <mem_set>
			mem_cpy(dp->dir, dp->fn, 11);	/* Put SFN */
 800388c:	e9d5 0185 	ldrd	r0, r1, [r5, #532]	; 0x214
 8003890:	220b      	movs	r2, #11
 8003892:	f7fe fff9 	bl	8002888 <mem_cpy>
			dp->dir[DIR_NTres] = dp->fn[NSFLAG] & (NS_BODY | NS_EXT);	/* Put NT flag */
 8003896:	e9d5 2385 	ldrd	r2, r3, [r5, #532]	; 0x214
 800389a:	7adb      	ldrb	r3, [r3, #11]
 800389c:	f003 0318 	and.w	r3, r3, #24
 80038a0:	7313      	strb	r3, [r2, #12]
			dp->fs->wflag = 1;
 80038a2:	2201      	movs	r2, #1
 80038a4:	f8d5 3200 	ldr.w	r3, [r5, #512]	; 0x200
 80038a8:	f883 2204 	strb.w	r2, [r3, #516]	; 0x204
 80038ac:	e01a      	b.n	80038e4 <dir_register+0x254>
 80038ae:	2110      	movs	r1, #16
				sr = (sr << 1) + (wc & 1);
 80038b0:	f002 0401 	and.w	r4, r2, #1
 80038b4:	eb04 0343 	add.w	r3, r4, r3, lsl #1
				if (sr & 0x10000) sr ^= 0x11021;
 80038b8:	03dc      	lsls	r4, r3, #15
 80038ba:	bf48      	it	mi
 80038bc:	ea83 0308 	eormi.w	r3, r3, r8
			for (i = 0; i < 16; i++) {
 80038c0:	3901      	subs	r1, #1
				wc >>= 1;
 80038c2:	ea4f 0252 	mov.w	r2, r2, lsr #1
			for (i = 0; i < 16; i++) {
 80038c6:	d1f3      	bne.n	80038b0 <dir_register+0x220>
 80038c8:	e707      	b.n	80036da <dir_register+0x4a>
 80038ca:	464b      	mov	r3, r9
 80038cc:	e70a      	b.n	80036e4 <dir_register+0x54>
		seq /= 16;
 80038ce:	460b      	mov	r3, r1
 80038d0:	e70b      	b.n	80036ea <dir_register+0x5a>
 80038d2:	460b      	mov	r3, r1
 80038d4:	e721      	b.n	800371a <dir_register+0x8a>
		for (n = 1; n < 100; n++) {
 80038d6:	f109 0901 	add.w	r9, r9, #1
 80038da:	f1b9 0f64 	cmp.w	r9, #100	; 0x64
 80038de:	f47f aef1 	bne.w	80036c4 <dir_register+0x34>
		if (n == 100) return FR_DENIED;		/* Abort if too many collisions */
 80038e2:	2407      	movs	r4, #7
}
 80038e4:	4620      	mov	r0, r4
 80038e6:	b007      	add	sp, #28
 80038e8:	e8bd 8ff0 	ldmia.w	sp!, {r4, r5, r6, r7, r8, r9, sl, fp, pc}
		for (n = 0; lfn[n]; n++) ;
 80038ec:	3601      	adds	r6, #1
 80038ee:	f837 3016 	ldrh.w	r3, [r7, r6, lsl #1]
 80038f2:	2b00      	cmp	r3, #0
 80038f4:	d1fa      	bne.n	80038ec <dir_register+0x25c>
		nent = (n + 25) / 13;
 80038f6:	230d      	movs	r3, #13
 80038f8:	3619      	adds	r6, #25
 80038fa:	fbb6 f6f3 	udiv	r6, r6, r3
 80038fe:	e73d      	b.n	800377c <dir_register+0xec>
		for (n = 0; lfn[n]; n++) ;
 8003900:	2600      	movs	r6, #0
 8003902:	e7f4      	b.n	80038ee <dir_register+0x25e>
				n = 0;					/* Not a blank entry. Restart to search */
 8003904:	4607      	mov	r7, r0
			res = dir_next(dp, 1);		/* Next entry with table stretch enabled */
 8003906:	2101      	movs	r1, #1
 8003908:	4628      	mov	r0, r5
 800390a:	f7ff fc69 	bl	80031e0 <dir_next>
		} while (res == FR_OK);
 800390e:	4604      	mov	r4, r0
 8003910:	2800      	cmp	r0, #0
 8003912:	f43f af3c 	beq.w	800378e <dir_register+0xfe>
	if (res == FR_NO_FILE) res = FR_DENIED;	/* No directory entry to allocate */
 8003916:	2c04      	cmp	r4, #4
 8003918:	d0e3      	beq.n	80038e2 <dir_register+0x252>
 800391a:	e7e3      	b.n	80038e4 <dir_register+0x254>
 800391c:	00011021 	.word	0x00011021
 8003920:	0800587a 	.word	0x0800587a

08003924 <remove_chain>:
	if (clst < 2 || clst >= fs->n_fatent) {	/* Check range */
 8003924:	2901      	cmp	r1, #1
{
 8003926:	b570      	push	{r4, r5, r6, lr}
 8003928:	4605      	mov	r5, r0
 800392a:	460c      	mov	r4, r1
	if (clst < 2 || clst >= fs->n_fatent) {	/* Check range */
 800392c:	d929      	bls.n	8003982 <remove_chain+0x5e>
 800392e:	f8d0 3214 	ldr.w	r3, [r0, #532]	; 0x214
 8003932:	428b      	cmp	r3, r1
 8003934:	d925      	bls.n	8003982 <remove_chain+0x5e>
			nxt = get_fat(fs, clst);			/* Get cluster status */
 8003936:	4621      	mov	r1, r4
 8003938:	4628      	mov	r0, r5
 800393a:	f7ff facf 	bl	8002edc <get_fat>
			if (nxt == 0) break;				/* Empty cluster? */
 800393e:	4626      	mov	r6, r4
 8003940:	4604      	mov	r4, r0
 8003942:	b908      	cbnz	r0, 8003948 <remove_chain+0x24>
		res = FR_INT_ERR;
 8003944:	2000      	movs	r0, #0
}
 8003946:	bd70      	pop	{r4, r5, r6, pc}
			if (nxt == 1) { res = FR_INT_ERR; break; }	/* Internal error? */
 8003948:	2801      	cmp	r0, #1
 800394a:	d01a      	beq.n	8003982 <remove_chain+0x5e>
			if (nxt == 0xFFFFFFFF) { res = FR_DISK_ERR; break; }	/* Disk error? */
 800394c:	1c41      	adds	r1, r0, #1
 800394e:	d01a      	beq.n	8003986 <remove_chain+0x62>
			res = put_fat(fs, clst, 0);			/* Mark the cluster "empty" */
 8003950:	2200      	movs	r2, #0
 8003952:	4631      	mov	r1, r6
 8003954:	4628      	mov	r0, r5
 8003956:	f7ff fb70 	bl	800303a <put_fat>
			if (res != FR_OK) break;
 800395a:	2800      	cmp	r0, #0
 800395c:	d1f3      	bne.n	8003946 <remove_chain+0x22>
			if (fs->free_clust != 0xFFFFFFFF) {	/* Update FSINFO */
 800395e:	f8d5 3210 	ldr.w	r3, [r5, #528]	; 0x210
 8003962:	1c5a      	adds	r2, r3, #1
 8003964:	d008      	beq.n	8003978 <remove_chain+0x54>
				fs->free_clust++;
 8003966:	3301      	adds	r3, #1
 8003968:	f8c5 3210 	str.w	r3, [r5, #528]	; 0x210
				fs->fsi_flag |= 1;
 800396c:	f895 3205 	ldrb.w	r3, [r5, #517]	; 0x205
 8003970:	f043 0301 	orr.w	r3, r3, #1
 8003974:	f885 3205 	strb.w	r3, [r5, #517]	; 0x205
		while (clst < fs->n_fatent) {			/* Not a last link? */
 8003978:	f8d5 3214 	ldr.w	r3, [r5, #532]	; 0x214
 800397c:	429c      	cmp	r4, r3
 800397e:	d3da      	bcc.n	8003936 <remove_chain+0x12>
 8003980:	e7e0      	b.n	8003944 <remove_chain+0x20>
		res = FR_INT_ERR;
 8003982:	2002      	movs	r0, #2
 8003984:	e7df      	b.n	8003946 <remove_chain+0x22>
			if (nxt == 0xFFFFFFFF) { res = FR_DISK_ERR; break; }	/* Disk error? */
 8003986:	2001      	movs	r0, #1
 8003988:	e7dd      	b.n	8003946 <remove_chain+0x22>
	...

0800398c <f_mount>:
FRESULT f_mount (
	FATFS* fs,			/* Pointer to the file system object (NULL:unmount)*/
	const TCHAR* path,	/* Logical drive number to be mounted/unmounted */
	BYTE opt			/* 0:Do not mount (delayed mount), 1:Mount immediately */
)
{
 800398c:	b530      	push	{r4, r5, lr}
 800398e:	b085      	sub	sp, #20
 8003990:	e9cd 1000 	strd	r1, r0, [sp]
	int vol;
	FRESULT res;
	const TCHAR *rp = path;


	vol = get_ldnumber(&rp);
 8003994:	a803      	add	r0, sp, #12
	const TCHAR *rp = path;
 8003996:	9103      	str	r1, [sp, #12]
{
 8003998:	4615      	mov	r5, r2
	vol = get_ldnumber(&rp);
 800399a:	f7ff f858 	bl	8002a4e <get_ldnumber>
	if (vol < 0) return FR_INVALID_DRIVE;
 800399e:	1e01      	subs	r1, r0, #0
 80039a0:	db22      	blt.n	80039e8 <f_mount+0x5c>
	cfs = FatFs[vol];					/* Pointer to fs object */
 80039a2:	4c13      	ldr	r4, [pc, #76]	; (80039f0 <f_mount+0x64>)
 80039a4:	f854 0021 	ldr.w	r0, [r4, r1, lsl #2]

	if (cfs) {
 80039a8:	b168      	cbz	r0, 80039c6 <f_mount+0x3a>
		if (Files[i].fs == fs) Files[i].fs = 0;
 80039aa:	4b12      	ldr	r3, [pc, #72]	; (80039f4 <f_mount+0x68>)
 80039ac:	681a      	ldr	r2, [r3, #0]
 80039ae:	4290      	cmp	r0, r2
 80039b0:	bf04      	itt	eq
 80039b2:	2200      	moveq	r2, #0
 80039b4:	601a      	streq	r2, [r3, #0]
 80039b6:	68da      	ldr	r2, [r3, #12]
 80039b8:	4290      	cmp	r0, r2
 80039ba:	f04f 0200 	mov.w	r2, #0
 80039be:	bf08      	it	eq
 80039c0:	60da      	streq	r2, [r3, #12]
		clear_lock(cfs);
#endif
#if _FS_REENTRANT						/* Discard sync object of the current volume */
		if (!ff_del_syncobj(cfs->sobj)) return FR_INT_ERR;
#endif
		cfs->fs_type = 0;				/* Clear old fs object */
 80039c2:	f880 2200 	strb.w	r2, [r0, #512]	; 0x200
	}

	if (fs) {
 80039c6:	9801      	ldr	r0, [sp, #4]
 80039c8:	b110      	cbz	r0, 80039d0 <f_mount+0x44>
		fs->fs_type = 0;				/* Clear new fs object */
 80039ca:	2300      	movs	r3, #0
 80039cc:	f880 3200 	strb.w	r3, [r0, #512]	; 0x200
#if _FS_REENTRANT						/* Create sync object for the new volume */
		if (!ff_cre_syncobj((BYTE)vol, &fs->sobj)) return FR_INT_ERR;
#endif
	}
	FatFs[vol] = fs;					/* Register new fs object */
 80039d0:	f844 0021 	str.w	r0, [r4, r1, lsl #2]

	if (!fs || opt != 1) return FR_OK;	/* Do not mount now, it will be mounted later */
 80039d4:	b130      	cbz	r0, 80039e4 <f_mount+0x58>
 80039d6:	2d01      	cmp	r5, #1
 80039d8:	d108      	bne.n	80039ec <f_mount+0x60>

	res = find_volume(&fs, &path, 0);	/* Force mounted the volume */
 80039da:	2200      	movs	r2, #0
 80039dc:	4669      	mov	r1, sp
 80039de:	a801      	add	r0, sp, #4
 80039e0:	f7ff f8ea 	bl	8002bb8 <find_volume>
	LEAVE_FF(fs, res);
}
 80039e4:	b005      	add	sp, #20
 80039e6:	bd30      	pop	{r4, r5, pc}
	if (vol < 0) return FR_INVALID_DRIVE;
 80039e8:	200b      	movs	r0, #11
 80039ea:	e7fb      	b.n	80039e4 <f_mount+0x58>
	if (!fs || opt != 1) return FR_OK;	/* Do not mount now, it will be mounted later */
 80039ec:	2000      	movs	r0, #0
 80039ee:	e7f9      	b.n	80039e4 <f_mount+0x58>
 80039f0:	200000fc 	.word	0x200000fc
 80039f4:	20000100 	.word	0x20000100

080039f8 <f_open>:
FRESULT f_open (
	FIL* fp,			/* Pointer to the blank file object */
	const TCHAR* path,	/* Pointer to the file name */
	BYTE mode			/* Access mode and file open mode flags */
)
{
 80039f8:	e92d 41f0 	stmdb	sp!, {r4, r5, r6, r7, r8, lr}
 80039fc:	f5ad 7d10 	sub.w	sp, sp, #576	; 0x240
 8003a00:	4617      	mov	r7, r2
#if !_FS_READONLY
	DWORD dw, cl;
#endif


	if (!fp) return FR_INVALID_OBJECT;
 8003a02:	4605      	mov	r5, r0
{
 8003a04:	9101      	str	r1, [sp, #4]
	if (!fp) return FR_INVALID_OBJECT;
 8003a06:	2800      	cmp	r0, #0
 8003a08:	f000 8092 	beq.w	8003b30 <f_open+0x138>
	fp->fs = 0;			/* Clear file object */
 8003a0c:	2300      	movs	r3, #0

	/* Get logical drive number */
#if !_FS_READONLY
	mode &= FA_READ | FA_WRITE | FA_CREATE_ALWAYS | FA_OPEN_ALWAYS | FA_CREATE_NEW;
	res = find_volume(&dj.fs, &path, (BYTE)(mode & ~FA_READ));
 8003a0e:	f002 021e 	and.w	r2, r2, #30
	fp->fs = 0;			/* Clear file object */
 8003a12:	f8c0 3200 	str.w	r3, [r0, #512]	; 0x200
	res = find_volume(&dj.fs, &path, (BYTE)(mode & ~FA_READ));
 8003a16:	a901      	add	r1, sp, #4
 8003a18:	a886      	add	r0, sp, #536	; 0x218
 8003a1a:	f7ff f8cd 	bl	8002bb8 <find_volume>
#else
	mode &= FA_READ;
	res = find_volume(&dj.fs, &path, 0);
#endif
	if (res == FR_OK) {
 8003a1e:	bb20      	cbnz	r0, 8003a6a <f_open+0x72>
		INIT_BUF(dj);
 8003a20:	ab03      	add	r3, sp, #12
 8003a22:	938c      	str	r3, [sp, #560]	; 0x230
 8003a24:	4b54      	ldr	r3, [pc, #336]	; (8003b78 <f_open+0x180>)
		res = follow_path(&dj, path);	/* Follow the file path */
 8003a26:	9901      	ldr	r1, [sp, #4]
 8003a28:	a806      	add	r0, sp, #24
		INIT_BUF(dj);
 8003a2a:	938e      	str	r3, [sp, #568]	; 0x238
		res = follow_path(&dj, path);	/* Follow the file path */
 8003a2c:	f7ff fd02 	bl	8003434 <follow_path>
	mode &= FA_READ | FA_WRITE | FA_CREATE_ALWAYS | FA_OPEN_ALWAYS | FA_CREATE_NEW;
 8003a30:	f007 041f 	and.w	r4, r7, #31
		dir = dj.dir;
 8003a34:	9e8b      	ldr	r6, [sp, #556]	; 0x22c
#if !_FS_READONLY	/* R/W configuration */
		if (res == FR_OK) {
 8003a36:	b940      	cbnz	r0, 8003a4a <f_open+0x52>
			if (!dir)	/* Default directory itself */
 8003a38:	b1de      	cbz	r6, 8003a72 <f_open+0x7a>
				res = FR_INVALID_NAME;
#if _FS_LOCK
			else
				res = chk_lock(&dj, (mode & ~FA_READ) ? 1 : 0);
 8003a3a:	f014 0f1e 	tst.w	r4, #30
 8003a3e:	bf14      	ite	ne
 8003a40:	2101      	movne	r1, #1
 8003a42:	2100      	moveq	r1, #0
 8003a44:	a806      	add	r0, sp, #24
 8003a46:	f7fe ff31 	bl	80028ac <chk_lock>
#endif
		}
		/* Create or Open a file */
		if (mode & (FA_CREATE_ALWAYS | FA_OPEN_ALWAYS | FA_CREATE_NEW)) {
 8003a4a:	f017 0f1c 	tst.w	r7, #28
 8003a4e:	d064      	beq.n	8003b1a <f_open+0x122>
			if (res != FR_OK) {					/* No file, create new */
 8003a50:	b188      	cbz	r0, 8003a76 <f_open+0x7e>
				if (res == FR_NO_FILE)			/* There is no file to open, create a new entry */
 8003a52:	2804      	cmp	r0, #4
 8003a54:	d109      	bne.n	8003a6a <f_open+0x72>
	for (i = 0; i < _FS_LOCK && Files[i].fs; i++) ;
 8003a56:	4b49      	ldr	r3, [pc, #292]	; (8003b7c <f_open+0x184>)
 8003a58:	681a      	ldr	r2, [r3, #0]
 8003a5a:	b112      	cbz	r2, 8003a62 <f_open+0x6a>
 8003a5c:	68db      	ldr	r3, [r3, #12]
 8003a5e:	2b00      	cmp	r3, #0
 8003a60:	d168      	bne.n	8003b34 <f_open+0x13c>
#if _FS_LOCK
					res = enq_lock() ? dir_register(&dj) : FR_TOO_MANY_OPEN_FILES;
 8003a62:	a806      	add	r0, sp, #24
 8003a64:	f7ff fe14 	bl	8003690 <dir_register>
				} else {
					if (mode & FA_CREATE_NEW)	/* Cannot create as new file */
						res = FR_EXIST;
				}
			}
			if (res == FR_OK && (mode & FA_CREATE_ALWAYS)) {	/* Truncate it if overwrite mode */
 8003a68:	b170      	cbz	r0, 8003a88 <f_open+0x90>
			fp->id = fp->fs->id;
		}
	}

	LEAVE_FF(dj.fs, res);
}
 8003a6a:	f50d 7d10 	add.w	sp, sp, #576	; 0x240
 8003a6e:	e8bd 81f0 	ldmia.w	sp!, {r4, r5, r6, r7, r8, pc}
				res = FR_INVALID_NAME;
 8003a72:	2006      	movs	r0, #6
 8003a74:	e7e9      	b.n	8003a4a <f_open+0x52>
				if (dir[DIR_Attr] & (AM_RDO | AM_DIR)) {	/* Cannot overwrite it (R/O or DIR) */
 8003a76:	7af3      	ldrb	r3, [r6, #11]
 8003a78:	f013 0f11 	tst.w	r3, #17
 8003a7c:	d156      	bne.n	8003b2c <f_open+0x134>
					if (mode & FA_CREATE_NEW)	/* Cannot create as new file */
 8003a7e:	0778      	lsls	r0, r7, #29
 8003a80:	d45a      	bmi.n	8003b38 <f_open+0x140>
			if (res == FR_OK && (mode & FA_CREATE_ALWAYS)) {	/* Truncate it if overwrite mode */
 8003a82:	073b      	lsls	r3, r7, #28
 8003a84:	d533      	bpl.n	8003aee <f_open+0xf6>
 8003a86:	e002      	b.n	8003a8e <f_open+0x96>
				dir = dj.dir;					/* New entry */
 8003a88:	9e8b      	ldr	r6, [sp, #556]	; 0x22c
				mode |= FA_CREATE_ALWAYS;		/* File is created */
 8003a8a:	f044 0408 	orr.w	r4, r4, #8
				dw = GET_FATTIME();				/* Created time */
 8003a8e:	f7fe fb85 	bl	800219c <get_fattime>
				dir[DIR_Attr] = 0;				/* Reset attribute */
 8003a92:	2700      	movs	r7, #0
				ST_DWORD(dir + DIR_CrtTime, dw);
 8003a94:	f3c0 2307 	ubfx	r3, r0, #8, #8
 8003a98:	73b0      	strb	r0, [r6, #14]
 8003a9a:	73f3      	strb	r3, [r6, #15]
 8003a9c:	0c03      	lsrs	r3, r0, #16
 8003a9e:	0e00      	lsrs	r0, r0, #24
				dir[DIR_Attr] = 0;				/* Reset attribute */
 8003aa0:	72f7      	strb	r7, [r6, #11]
				ST_DWORD(dir + DIR_FileSize, 0);/* size = 0 */
 8003aa2:	7737      	strb	r7, [r6, #28]
 8003aa4:	7777      	strb	r7, [r6, #29]
 8003aa6:	77b7      	strb	r7, [r6, #30]
 8003aa8:	77f7      	strb	r7, [r6, #31]
				ST_DWORD(dir + DIR_CrtTime, dw);
 8003aaa:	7433      	strb	r3, [r6, #16]
 8003aac:	7470      	strb	r0, [r6, #17]
				cl = ld_clust(dj.fs, dir);		/* Get start cluster */
 8003aae:	9b86      	ldr	r3, [sp, #536]	; 0x218
 8003ab0:	4631      	mov	r1, r6
 8003ab2:	f893 0200 	ldrb.w	r0, [r3, #512]	; 0x200
 8003ab6:	f7fe fff9 	bl	8002aac <ld_clust.isra.0>
				dj.fs->wflag = 1;
 8003aba:	2301      	movs	r3, #1
				cl = ld_clust(dj.fs, dir);		/* Get start cluster */
 8003abc:	4601      	mov	r1, r0
	ST_WORD(dir + DIR_FstClusLO, cl);
 8003abe:	76b7      	strb	r7, [r6, #26]
 8003ac0:	76f7      	strb	r7, [r6, #27]
	ST_WORD(dir + DIR_FstClusHI, cl >> 16);
 8003ac2:	7537      	strb	r7, [r6, #20]
 8003ac4:	7577      	strb	r7, [r6, #21]
				dj.fs->wflag = 1;
 8003ac6:	9886      	ldr	r0, [sp, #536]	; 0x218
				if (cl) {						/* Remove the cluster chain if exist */
 8003ac8:	460f      	mov	r7, r1
				dj.fs->wflag = 1;
 8003aca:	f880 3204 	strb.w	r3, [r0, #516]	; 0x204
				if (cl) {						/* Remove the cluster chain if exist */
 8003ace:	b171      	cbz	r1, 8003aee <f_open+0xf6>
					dw = dj.fs->winsect;
 8003ad0:	f8d0 822c 	ldr.w	r8, [r0, #556]	; 0x22c
					res = remove_chain(dj.fs, cl);
 8003ad4:	f7ff ff26 	bl	8003924 <remove_chain>
					if (res == FR_OK) {
 8003ad8:	2800      	cmp	r0, #0
 8003ada:	d1c6      	bne.n	8003a6a <f_open+0x72>
						dj.fs->last_clust = cl - 1;	/* Reuse the cluster hole */
 8003adc:	9886      	ldr	r0, [sp, #536]	; 0x218
 8003ade:	3f01      	subs	r7, #1
						res = move_window(dj.fs, dw);
 8003ae0:	4641      	mov	r1, r8
						dj.fs->last_clust = cl - 1;	/* Reuse the cluster hole */
 8003ae2:	f8c0 720c 	str.w	r7, [r0, #524]	; 0x20c
						res = move_window(dj.fs, dw);
 8003ae6:	f7ff f820 	bl	8002b2a <move_window>
		if (res == FR_OK) {
 8003aea:	2800      	cmp	r0, #0
 8003aec:	d1bd      	bne.n	8003a6a <f_open+0x72>
			fp->dir_sect = dj.fs->winsect;		/* Pointer to the directory entry */
 8003aee:	9b86      	ldr	r3, [sp, #536]	; 0x218
			if (mode & FA_CREATE_ALWAYS)		/* Set file change flag if created or overwritten */
 8003af0:	0722      	lsls	r2, r4, #28
			fp->dir_sect = dj.fs->winsect;		/* Pointer to the directory entry */
 8003af2:	f8d3 322c 	ldr.w	r3, [r3, #556]	; 0x22c
				mode |= FA__WRITTEN;
 8003af6:	bf48      	it	mi
 8003af8:	f044 0420 	orrmi.w	r4, r4, #32
			fp->lockid = inc_lock(&dj, (mode & ~FA_READ) ? 1 : 0);
 8003afc:	f014 0ffe 	tst.w	r4, #254	; 0xfe
 8003b00:	bf14      	ite	ne
 8003b02:	2101      	movne	r1, #1
 8003b04:	2100      	moveq	r1, #0
			fp->dir_ptr = dir;
 8003b06:	e9c5 3687 	strd	r3, r6, [r5, #540]	; 0x21c
			fp->lockid = inc_lock(&dj, (mode & ~FA_READ) ? 1 : 0);
 8003b0a:	a806      	add	r0, sp, #24
 8003b0c:	f7fe ff10 	bl	8002930 <inc_lock>
 8003b10:	f8c5 0228 	str.w	r0, [r5, #552]	; 0x228
			if (!fp->lockid) res = FR_INT_ERR;
 8003b14:	b9a0      	cbnz	r0, 8003b40 <f_open+0x148>
 8003b16:	2002      	movs	r0, #2
 8003b18:	e7a7      	b.n	8003a6a <f_open+0x72>
			if (res == FR_OK) {					/* Follow succeeded */
 8003b1a:	2800      	cmp	r0, #0
 8003b1c:	d1a5      	bne.n	8003a6a <f_open+0x72>
				if (dir[DIR_Attr] & AM_DIR) {	/* It is a directory */
 8003b1e:	7af3      	ldrb	r3, [r6, #11]
 8003b20:	06da      	lsls	r2, r3, #27
 8003b22:	d40b      	bmi.n	8003b3c <f_open+0x144>
					if ((mode & FA_WRITE) && (dir[DIR_Attr] & AM_RDO)) /* R/O violation */
 8003b24:	07bf      	lsls	r7, r7, #30
 8003b26:	d5e2      	bpl.n	8003aee <f_open+0xf6>
 8003b28:	07d8      	lsls	r0, r3, #31
 8003b2a:	d5e0      	bpl.n	8003aee <f_open+0xf6>
					res = FR_DENIED;
 8003b2c:	2007      	movs	r0, #7
 8003b2e:	e79c      	b.n	8003a6a <f_open+0x72>
	if (!fp) return FR_INVALID_OBJECT;
 8003b30:	2009      	movs	r0, #9
 8003b32:	e79a      	b.n	8003a6a <f_open+0x72>
					res = enq_lock() ? dir_register(&dj) : FR_TOO_MANY_OPEN_FILES;
 8003b34:	2012      	movs	r0, #18
 8003b36:	e798      	b.n	8003a6a <f_open+0x72>
						res = FR_EXIST;
 8003b38:	2008      	movs	r0, #8
 8003b3a:	e796      	b.n	8003a6a <f_open+0x72>
					res = FR_NO_FILE;
 8003b3c:	2004      	movs	r0, #4
 8003b3e:	e794      	b.n	8003a6a <f_open+0x72>
			fp->flag = mode;					/* File access mode */
 8003b40:	f885 4206 	strb.w	r4, [r5, #518]	; 0x206
			fp->err = 0;						/* Clear error flag */
 8003b44:	2400      	movs	r4, #0
			fp->sclust = ld_clust(dj.fs, dir);	/* File start cluster */
 8003b46:	9f86      	ldr	r7, [sp, #536]	; 0x218
			fp->err = 0;						/* Clear error flag */
 8003b48:	f885 4207 	strb.w	r4, [r5, #519]	; 0x207
			fp->sclust = ld_clust(dj.fs, dir);	/* File start cluster */
 8003b4c:	f897 0200 	ldrb.w	r0, [r7, #512]	; 0x200
 8003b50:	4631      	mov	r1, r6
 8003b52:	f7fe ffab 	bl	8002aac <ld_clust.isra.0>
 8003b56:	f8c5 0210 	str.w	r0, [r5, #528]	; 0x210
			fp->fsize = LD_DWORD(dir + DIR_FileSize);	/* File size */
 8003b5a:	69f3      	ldr	r3, [r6, #28]
			fp->id = fp->fs->id;
 8003b5c:	4620      	mov	r0, r4
			fp->fptr = 0;						/* File pointer */
 8003b5e:	e9c5 4382 	strd	r4, r3, [r5, #520]	; 0x208
			fp->id = fp->fs->id;
 8003b62:	f8b7 3206 	ldrh.w	r3, [r7, #518]	; 0x206
			fp->dsect = 0;
 8003b66:	f8c5 4218 	str.w	r4, [r5, #536]	; 0x218
			fp->cltbl = 0;						/* Normal seek mode */
 8003b6a:	f8c5 4224 	str.w	r4, [r5, #548]	; 0x224
			fp->fs = dj.fs;	 					/* Validate file object */
 8003b6e:	f8c5 7200 	str.w	r7, [r5, #512]	; 0x200
			fp->id = fp->fs->id;
 8003b72:	f8a5 3204 	strh.w	r3, [r5, #516]	; 0x204
 8003b76:	e778      	b.n	8003a6a <f_open+0x72>
 8003b78:	2000011a 	.word	0x2000011a
 8003b7c:	20000100 	.word	0x20000100

08003b80 <f_read>:
	FIL* fp, 		/* Pointer to the file object */
	void* buff,		/* Pointer to data buffer */
	UINT btr,		/* Number of bytes to read */
	UINT* br		/* Pointer to number of bytes read */
)
{
 8003b80:	e92d 4ff7 	stmdb	sp!, {r0, r1, r2, r4, r5, r6, r7, r8, r9, sl, fp, lr}
 8003b84:	469a      	mov	sl, r3
	DWORD clst, sect, remain;
	UINT rcnt, cc;
	BYTE csect, *rbuff = (BYTE*)buff;


	*br = 0;	/* Clear read byte counter */
 8003b86:	2300      	movs	r3, #0
 8003b88:	f8ca 3000 	str.w	r3, [sl]
{
 8003b8c:	4604      	mov	r4, r0
 8003b8e:	4689      	mov	r9, r1
 8003b90:	4617      	mov	r7, r2

	res = validate(fp);							/* Check validity */
 8003b92:	f7fe ff74 	bl	8002a7e <validate>
	if (res != FR_OK) LEAVE_FF(fp->fs, res);
 8003b96:	4605      	mov	r5, r0
 8003b98:	bb50      	cbnz	r0, 8003bf0 <f_read+0x70>
	if (fp->err)								/* Check error */
 8003b9a:	f894 5207 	ldrb.w	r5, [r4, #519]	; 0x207
 8003b9e:	bb3d      	cbnz	r5, 8003bf0 <f_read+0x70>
		LEAVE_FF(fp->fs, (FRESULT)fp->err);
	if (!(fp->flag & FA_READ)) 					/* Check access mode */
 8003ba0:	f894 3206 	ldrb.w	r3, [r4, #518]	; 0x206
 8003ba4:	f013 0301 	ands.w	r3, r3, #1
 8003ba8:	9300      	str	r3, [sp, #0]
 8003baa:	f000 80ae 	beq.w	8003d0a <f_read+0x18a>
		LEAVE_FF(fp->fs, FR_DENIED);
	remain = fp->fsize - fp->fptr;
 8003bae:	e9d4 2682 	ldrd	r2, r6, [r4, #520]	; 0x208
 8003bb2:	1ab6      	subs	r6, r6, r2
 8003bb4:	42be      	cmp	r6, r7
 8003bb6:	bf28      	it	cs
 8003bb8:	463e      	movcs	r6, r7
	if (btr > remain) btr = (UINT)remain;		/* Truncate btr by remaining bytes */

	for ( ;  btr;								/* Repeat until all data read */
 8003bba:	b1ce      	cbz	r6, 8003bf0 <f_read+0x70>
		rbuff += rcnt, fp->fptr += rcnt, *br += rcnt, btr -= rcnt) {
		if ((fp->fptr % SS(fp->fs)) == 0) {		/* On the sector boundary? */
 8003bbc:	f8d4 1208 	ldr.w	r1, [r4, #520]	; 0x208
 8003bc0:	f3c1 0308 	ubfx	r3, r1, #0, #9
 8003bc4:	2b00      	cmp	r3, #0
 8003bc6:	f040 8091 	bne.w	8003cec <f_read+0x16c>
			csect = (BYTE)(fp->fptr / SS(fp->fs) & (fp->fs->csize - 1));	/* Sector offset in the cluster */
 8003bca:	f8d4 0200 	ldr.w	r0, [r4, #512]	; 0x200
 8003bce:	f890 8202 	ldrb.w	r8, [r0, #514]	; 0x202
 8003bd2:	f108 38ff 	add.w	r8, r8, #4294967295
 8003bd6:	ea08 2851 	and.w	r8, r8, r1, lsr #9
			if (!csect) {						/* On the cluster boundary? */
 8003bda:	f018 08ff 	ands.w	r8, r8, #255	; 0xff
 8003bde:	d120      	bne.n	8003c22 <f_read+0xa2>
				if (fp->fptr == 0) {			/* On the top of the file? */
 8003be0:	b951      	cbnz	r1, 8003bf8 <f_read+0x78>
					clst = fp->sclust;			/* Follow from the origin */
 8003be2:	f8d4 0210 	ldr.w	r0, [r4, #528]	; 0x210
						clst = clmt_clust(fp, fp->fptr);	/* Get cluster# from the CLMT */
					else
#endif
						clst = get_fat(fp->fs, fp->clust);	/* Follow cluster chain on the FAT */
				}
				if (clst < 2) ABORT(fp->fs, FR_INT_ERR);
 8003be6:	2801      	cmp	r0, #1
 8003be8:	d812      	bhi.n	8003c10 <f_read+0x90>
 8003bea:	2502      	movs	r5, #2
 8003bec:	f884 5207 	strb.w	r5, [r4, #519]	; 0x207
		mem_cpy(rbuff, &fp->buf.d8[fp->fptr % SS(fp->fs)], rcnt);	/* Pick partial sector */
#endif
	}

	LEAVE_FF(fp->fs, FR_OK);
}
 8003bf0:	4628      	mov	r0, r5
 8003bf2:	b003      	add	sp, #12
 8003bf4:	e8bd 8ff0 	ldmia.w	sp!, {r4, r5, r6, r7, r8, r9, sl, fp, pc}
					if (fp->cltbl)
 8003bf8:	f8d4 3224 	ldr.w	r3, [r4, #548]	; 0x224
 8003bfc:	b11b      	cbz	r3, 8003c06 <f_read+0x86>
						clst = clmt_clust(fp, fp->fptr);	/* Get cluster# from the CLMT */
 8003bfe:	4620      	mov	r0, r4
 8003c00:	f7fe ff02 	bl	8002a08 <clmt_clust>
 8003c04:	e7ef      	b.n	8003be6 <f_read+0x66>
						clst = get_fat(fp->fs, fp->clust);	/* Follow cluster chain on the FAT */
 8003c06:	f8d4 1214 	ldr.w	r1, [r4, #532]	; 0x214
 8003c0a:	f7ff f967 	bl	8002edc <get_fat>
 8003c0e:	e7ea      	b.n	8003be6 <f_read+0x66>
				if (clst == 0xFFFFFFFF) ABORT(fp->fs, FR_DISK_ERR);
 8003c10:	1c42      	adds	r2, r0, #1
 8003c12:	d104      	bne.n	8003c1e <f_read+0x9e>
 8003c14:	2301      	movs	r3, #1
 8003c16:	9d00      	ldr	r5, [sp, #0]
 8003c18:	f884 3207 	strb.w	r3, [r4, #519]	; 0x207
 8003c1c:	e7e8      	b.n	8003bf0 <f_read+0x70>
				fp->clust = clst;				/* Update current cluster */
 8003c1e:	f8c4 0214 	str.w	r0, [r4, #532]	; 0x214
			sect = clust2sect(fp->fs, fp->clust);	/* Get current sector */
 8003c22:	f8d4 b200 	ldr.w	fp, [r4, #512]	; 0x200
 8003c26:	f8d4 1214 	ldr.w	r1, [r4, #532]	; 0x214
 8003c2a:	4658      	mov	r0, fp
 8003c2c:	f7ff f948 	bl	8002ec0 <clust2sect>
			if (!sect) ABORT(fp->fs, FR_INT_ERR);
 8003c30:	2800      	cmp	r0, #0
 8003c32:	d0da      	beq.n	8003bea <f_read+0x6a>
			if (cc) {							/* Read maximum contiguous sectors directly */
 8003c34:	f5b6 7f00 	cmp.w	r6, #512	; 0x200
			sect += csect;
 8003c38:	eb00 0708 	add.w	r7, r0, r8
			if (cc) {							/* Read maximum contiguous sectors directly */
 8003c3c:	d333      	bcc.n	8003ca6 <f_read+0x126>
				if (csect + cc > fp->fs->csize)	/* Clip at cluster boundary */
 8003c3e:	f89b 2202 	ldrb.w	r2, [fp, #514]	; 0x202
 8003c42:	eb08 2156 	add.w	r1, r8, r6, lsr #9
 8003c46:	4291      	cmp	r1, r2
			cc = btr / SS(fp->fs);				/* When remaining bytes >= sector size, */
 8003c48:	ea4f 2356 	mov.w	r3, r6, lsr #9
				if (disk_read(fp->fs->drv, rbuff, sect, cc) != RES_OK)
 8003c4c:	4649      	mov	r1, r9
					cc = fp->fs->csize - csect;
 8003c4e:	bf88      	it	hi
 8003c50:	eba2 0308 	subhi.w	r3, r2, r8
				if (disk_read(fp->fs->drv, rbuff, sect, cc) != RES_OK)
 8003c54:	f89b 0201 	ldrb.w	r0, [fp, #513]	; 0x201
 8003c58:	463a      	mov	r2, r7
 8003c5a:	9301      	str	r3, [sp, #4]
 8003c5c:	f7fe fdec 	bl	8002838 <disk_read>
 8003c60:	2800      	cmp	r0, #0
 8003c62:	d1d7      	bne.n	8003c14 <f_read+0x94>
				if ((fp->flag & FA__DIRTY) && fp->dsect - sect < cc)
 8003c64:	f894 2206 	ldrb.w	r2, [r4, #518]	; 0x206
 8003c68:	9b01      	ldr	r3, [sp, #4]
 8003c6a:	f012 0f40 	tst.w	r2, #64	; 0x40
 8003c6e:	d00c      	beq.n	8003c8a <f_read+0x10a>
 8003c70:	f8d4 0218 	ldr.w	r0, [r4, #536]	; 0x218
 8003c74:	1bc0      	subs	r0, r0, r7
 8003c76:	4283      	cmp	r3, r0
 8003c78:	d907      	bls.n	8003c8a <f_read+0x10a>
					mem_cpy(rbuff + ((fp->dsect - sect) * SS(fp->fs)), fp->buf.d8, SS(fp->fs));
 8003c7a:	f44f 7200 	mov.w	r2, #512	; 0x200
 8003c7e:	4621      	mov	r1, r4
 8003c80:	eb09 2040 	add.w	r0, r9, r0, lsl #9
 8003c84:	f7fe fe00 	bl	8002888 <mem_cpy>
 8003c88:	9b01      	ldr	r3, [sp, #4]
				rcnt = SS(fp->fs) * cc;			/* Number of bytes transferred */
 8003c8a:	025f      	lsls	r7, r3, #9
		rbuff += rcnt, fp->fptr += rcnt, *br += rcnt, btr -= rcnt) {
 8003c8c:	f8d4 3208 	ldr.w	r3, [r4, #520]	; 0x208
 8003c90:	44b9      	add	r9, r7
 8003c92:	443b      	add	r3, r7
 8003c94:	f8c4 3208 	str.w	r3, [r4, #520]	; 0x208
 8003c98:	f8da 3000 	ldr.w	r3, [sl]
 8003c9c:	1bf6      	subs	r6, r6, r7
 8003c9e:	443b      	add	r3, r7
 8003ca0:	f8ca 3000 	str.w	r3, [sl]
 8003ca4:	e789      	b.n	8003bba <f_read+0x3a>
			if (fp->dsect != sect) {			/* Load data sector if not in cache */
 8003ca6:	f8d4 2218 	ldr.w	r2, [r4, #536]	; 0x218
 8003caa:	4297      	cmp	r7, r2
 8003cac:	d01c      	beq.n	8003ce8 <f_read+0x168>
				if (fp->flag & FA__DIRTY) {		/* Write-back dirty sector cache */
 8003cae:	f894 3206 	ldrb.w	r3, [r4, #518]	; 0x206
 8003cb2:	065b      	lsls	r3, r3, #25
 8003cb4:	d50d      	bpl.n	8003cd2 <f_read+0x152>
					if (disk_write(fp->fs->drv, fp->buf.d8, fp->dsect, 1) != RES_OK)
 8003cb6:	2301      	movs	r3, #1
 8003cb8:	4621      	mov	r1, r4
 8003cba:	f89b 0201 	ldrb.w	r0, [fp, #513]	; 0x201
 8003cbe:	f7fe fdc9 	bl	8002854 <disk_write>
 8003cc2:	2800      	cmp	r0, #0
 8003cc4:	d1a6      	bne.n	8003c14 <f_read+0x94>
					fp->flag &= ~FA__DIRTY;
 8003cc6:	f894 3206 	ldrb.w	r3, [r4, #518]	; 0x206
 8003cca:	f023 0340 	bic.w	r3, r3, #64	; 0x40
 8003cce:	f884 3206 	strb.w	r3, [r4, #518]	; 0x206
				if (disk_read(fp->fs->drv, fp->buf.d8, sect, 1) != RES_OK)	/* Fill sector cache */
 8003cd2:	f8d4 0200 	ldr.w	r0, [r4, #512]	; 0x200
 8003cd6:	2301      	movs	r3, #1
 8003cd8:	463a      	mov	r2, r7
 8003cda:	4621      	mov	r1, r4
 8003cdc:	f890 0201 	ldrb.w	r0, [r0, #513]	; 0x201
 8003ce0:	f7fe fdaa 	bl	8002838 <disk_read>
 8003ce4:	2800      	cmp	r0, #0
 8003ce6:	d195      	bne.n	8003c14 <f_read+0x94>
			fp->dsect = sect;
 8003ce8:	f8c4 7218 	str.w	r7, [r4, #536]	; 0x218
		rcnt = SS(fp->fs) - ((UINT)fp->fptr % SS(fp->fs));	/* Get partial sector data from sector buffer */
 8003cec:	f8d4 1208 	ldr.w	r1, [r4, #520]	; 0x208
		mem_cpy(rbuff, &fp->buf.d8[fp->fptr % SS(fp->fs)], rcnt);	/* Pick partial sector */
 8003cf0:	4648      	mov	r0, r9
		rcnt = SS(fp->fs) - ((UINT)fp->fptr % SS(fp->fs));	/* Get partial sector data from sector buffer */
 8003cf2:	f3c1 0108 	ubfx	r1, r1, #0, #9
 8003cf6:	f5c1 7700 	rsb	r7, r1, #512	; 0x200
		if (rcnt > btr) rcnt = btr;
 8003cfa:	42b7      	cmp	r7, r6
 8003cfc:	bf28      	it	cs
 8003cfe:	4637      	movcs	r7, r6
		mem_cpy(rbuff, &fp->buf.d8[fp->fptr % SS(fp->fs)], rcnt);	/* Pick partial sector */
 8003d00:	4421      	add	r1, r4
 8003d02:	463a      	mov	r2, r7
 8003d04:	f7fe fdc0 	bl	8002888 <mem_cpy>
 8003d08:	e7c0      	b.n	8003c8c <f_read+0x10c>
		LEAVE_FF(fp->fs, FR_DENIED);
 8003d0a:	2507      	movs	r5, #7
 8003d0c:	e770      	b.n	8003bf0 <f_read+0x70>

08003d0e <f_sync>:
/*-----------------------------------------------------------------------*/

FRESULT f_sync (
	FIL* fp		/* Pointer to the file object */
)
{
 8003d0e:	b570      	push	{r4, r5, r6, lr}
 8003d10:	4604      	mov	r4, r0
	FRESULT res;
	DWORD tm;
	BYTE *dir;


	res = validate(fp);					/* Check validity of the object */
 8003d12:	f7fe feb4 	bl	8002a7e <validate>
	if (res == FR_OK) {
 8003d16:	2800      	cmp	r0, #0
 8003d18:	d159      	bne.n	8003dce <f_sync+0xc0>
		if (fp->flag & FA__WRITTEN) {	/* Has the file been written? */
 8003d1a:	f894 3206 	ldrb.w	r3, [r4, #518]	; 0x206
 8003d1e:	f013 0020 	ands.w	r0, r3, #32
 8003d22:	d054      	beq.n	8003dce <f_sync+0xc0>
			/* Write-back dirty buffer */
#if !_FS_TINY
			if (fp->flag & FA__DIRTY) {
 8003d24:	065b      	lsls	r3, r3, #25
 8003d26:	d511      	bpl.n	8003d4c <f_sync+0x3e>
				if (disk_write(fp->fs->drv, fp->buf.d8, fp->dsect, 1) != RES_OK)
 8003d28:	f8d4 0200 	ldr.w	r0, [r4, #512]	; 0x200
 8003d2c:	2301      	movs	r3, #1
 8003d2e:	4621      	mov	r1, r4
 8003d30:	f8d4 2218 	ldr.w	r2, [r4, #536]	; 0x218
 8003d34:	f890 0201 	ldrb.w	r0, [r0, #513]	; 0x201
 8003d38:	f7fe fd8c 	bl	8002854 <disk_write>
 8003d3c:	2800      	cmp	r0, #0
 8003d3e:	d145      	bne.n	8003dcc <f_sync+0xbe>
					LEAVE_FF(fp->fs, FR_DISK_ERR);
				fp->flag &= ~FA__DIRTY;
 8003d40:	f894 3206 	ldrb.w	r3, [r4, #518]	; 0x206
 8003d44:	f023 0340 	bic.w	r3, r3, #64	; 0x40
 8003d48:	f884 3206 	strb.w	r3, [r4, #518]	; 0x206
			}
#endif
			/* Update the directory entry */
			res = move_window(fp->fs, fp->dir_sect);
 8003d4c:	f8d4 121c 	ldr.w	r1, [r4, #540]	; 0x21c
 8003d50:	f8d4 0200 	ldr.w	r0, [r4, #512]	; 0x200
 8003d54:	f7fe fee9 	bl	8002b2a <move_window>
 8003d58:	4606      	mov	r6, r0
			if (res == FR_OK) {
 8003d5a:	bbc0      	cbnz	r0, 8003dce <f_sync+0xc0>
				dir = fp->dir_ptr;
 8003d5c:	f8d4 5220 	ldr.w	r5, [r4, #544]	; 0x220
				dir[DIR_Attr] |= AM_ARC;					/* Set archive bit */
 8003d60:	7aeb      	ldrb	r3, [r5, #11]
 8003d62:	f043 0320 	orr.w	r3, r3, #32
 8003d66:	72eb      	strb	r3, [r5, #11]
				ST_DWORD(dir + DIR_FileSize, fp->fsize);	/* Update file size */
 8003d68:	f8d4 320c 	ldr.w	r3, [r4, #524]	; 0x20c
 8003d6c:	772b      	strb	r3, [r5, #28]
 8003d6e:	f8b4 320c 	ldrh.w	r3, [r4, #524]	; 0x20c
 8003d72:	0a1b      	lsrs	r3, r3, #8
 8003d74:	776b      	strb	r3, [r5, #29]
 8003d76:	f8b4 320e 	ldrh.w	r3, [r4, #526]	; 0x20e
 8003d7a:	77ab      	strb	r3, [r5, #30]
 8003d7c:	f894 320f 	ldrb.w	r3, [r4, #527]	; 0x20f
 8003d80:	77eb      	strb	r3, [r5, #31]
				st_clust(dir, fp->sclust);					/* Update start cluster */
 8003d82:	f8d4 3210 	ldr.w	r3, [r4, #528]	; 0x210
	ST_WORD(dir + DIR_FstClusLO, cl);
 8003d86:	76ab      	strb	r3, [r5, #26]
 8003d88:	f3c3 2207 	ubfx	r2, r3, #8, #8
	ST_WORD(dir + DIR_FstClusHI, cl >> 16);
 8003d8c:	0c1b      	lsrs	r3, r3, #16
 8003d8e:	752b      	strb	r3, [r5, #20]
 8003d90:	0a1b      	lsrs	r3, r3, #8
 8003d92:	756b      	strb	r3, [r5, #21]
	ST_WORD(dir + DIR_FstClusLO, cl);
 8003d94:	76ea      	strb	r2, [r5, #27]
				tm = GET_FATTIME();							/* Update updated time */
 8003d96:	f7fe fa01 	bl	800219c <get_fattime>
				ST_DWORD(dir + DIR_WrtTime, tm);
 8003d9a:	f3c0 2307 	ubfx	r3, r0, #8, #8
 8003d9e:	75eb      	strb	r3, [r5, #23]
 8003da0:	0c03      	lsrs	r3, r0, #16
 8003da2:	762b      	strb	r3, [r5, #24]
 8003da4:	0e03      	lsrs	r3, r0, #24
 8003da6:	75a8      	strb	r0, [r5, #22]
 8003da8:	766b      	strb	r3, [r5, #25]
				ST_WORD(dir + DIR_LstAccDate, 0);
 8003daa:	74ae      	strb	r6, [r5, #18]
 8003dac:	74ee      	strb	r6, [r5, #19]
				fp->flag &= ~FA__WRITTEN;
 8003dae:	f894 3206 	ldrb.w	r3, [r4, #518]	; 0x206
				fp->fs->wflag = 1;
 8003db2:	f8d4 0200 	ldr.w	r0, [r4, #512]	; 0x200
				fp->flag &= ~FA__WRITTEN;
 8003db6:	f023 0320 	bic.w	r3, r3, #32
 8003dba:	f884 3206 	strb.w	r3, [r4, #518]	; 0x206
				fp->fs->wflag = 1;
 8003dbe:	2301      	movs	r3, #1
 8003dc0:	f880 3204 	strb.w	r3, [r0, #516]	; 0x204
			}
		}
	}

	LEAVE_FF(fp->fs, res);
}
 8003dc4:	e8bd 4070 	ldmia.w	sp!, {r4, r5, r6, lr}
				res = sync_fs(fp->fs);
 8003dc8:	f7ff b838 	b.w	8002e3c <sync_fs>
					LEAVE_FF(fp->fs, FR_DISK_ERR);
 8003dcc:	2001      	movs	r0, #1
}
 8003dce:	bd70      	pop	{r4, r5, r6, pc}

08003dd0 <f_close>:
/*-----------------------------------------------------------------------*/

FRESULT f_close (
	FIL *fp		/* Pointer to the file object to be closed */
)
{
 8003dd0:	b510      	push	{r4, lr}
 8003dd2:	4604      	mov	r4, r0
	FRESULT res;


#if !_FS_READONLY
	res = f_sync(fp);					/* Flush cached data */
 8003dd4:	f7ff ff9b 	bl	8003d0e <f_sync>
	if (res == FR_OK)
 8003dd8:	b950      	cbnz	r0, 8003df0 <f_close+0x20>
#endif
	{
		res = validate(fp);				/* Lock volume */
 8003dda:	4620      	mov	r0, r4
 8003ddc:	f7fe fe4f 	bl	8002a7e <validate>
		if (res == FR_OK) {
 8003de0:	b930      	cbnz	r0, 8003df0 <f_close+0x20>
#if _FS_REENTRANT
			FATFS *fs = fp->fs;
#endif
#if _FS_LOCK
			res = dec_lock(fp->lockid);	/* Decrement file open counter */
 8003de2:	f8d4 0228 	ldr.w	r0, [r4, #552]	; 0x228
 8003de6:	f7fe fdef 	bl	80029c8 <dec_lock>
			if (res == FR_OK)
 8003dea:	b908      	cbnz	r0, 8003df0 <f_close+0x20>
#endif
				fp->fs = 0;				/* Invalidate file object */
 8003dec:	f8c4 0200 	str.w	r0, [r4, #512]	; 0x200
			unlock_fs(fs, FR_OK);		/* Unlock volume */
#endif
		}
	}
	return res;
}
 8003df0:	bd10      	pop	{r4, pc}

08003df2 <f_lseek>:

FRESULT f_lseek (
	FIL* fp,		/* Pointer to the file object */
	DWORD ofs		/* File pointer from top of file */
)
{
 8003df2:	e92d 4ff8 	stmdb	sp!, {r3, r4, r5, r6, r7, r8, r9, sl, fp, lr}
 8003df6:	4604      	mov	r4, r0
 8003df8:	460e      	mov	r6, r1
#if _USE_FASTSEEK
	DWORD cl, pcl, ncl, tcl, dsc, tlen, ulen, *tbl;
#endif


	res = validate(fp);					/* Check validity of the object */
 8003dfa:	f7fe fe40 	bl	8002a7e <validate>
	if (res != FR_OK) LEAVE_FF(fp->fs, res);
 8003dfe:	4605      	mov	r5, r0
 8003e00:	bb10      	cbnz	r0, 8003e48 <f_lseek+0x56>
	if (fp->err)						/* Check error */
 8003e02:	f894 5207 	ldrb.w	r5, [r4, #519]	; 0x207
 8003e06:	b9fd      	cbnz	r5, 8003e48 <f_lseek+0x56>
		LEAVE_FF(fp->fs, (FRESULT)fp->err);

#if _USE_FASTSEEK
	if (fp->cltbl) {	/* Fast seek */
 8003e08:	f8d4 3224 	ldr.w	r3, [r4, #548]	; 0x224
 8003e0c:	2b00      	cmp	r3, #0
 8003e0e:	f000 8088 	beq.w	8003f22 <f_lseek+0x130>
		if (ofs == CREATE_LINKMAP) {	/* Create CLMT */
 8003e12:	1c72      	adds	r2, r6, #1
 8003e14:	d13d      	bne.n	8003e92 <f_lseek+0xa0>
			tbl = fp->cltbl;
			tlen = *tbl++; ulen = 2;	/* Given table size and required table size */
 8003e16:	461e      	mov	r6, r3
			cl = fp->sclust;			/* Top of the chain */
 8003e18:	f8d4 8210 	ldr.w	r8, [r4, #528]	; 0x210
			tlen = *tbl++; ulen = 2;	/* Given table size and required table size */
 8003e1c:	2702      	movs	r7, #2
 8003e1e:	f856 bb04 	ldr.w	fp, [r6], #4
			if (cl) {
 8003e22:	f1b8 0f00 	cmp.w	r8, #0
 8003e26:	d02b      	beq.n	8003e80 <f_lseek+0x8e>
				do {
					/* Get a fragment */
					tcl = cl; ncl = 0; ulen += 2;	/* Top, length and used items */
 8003e28:	4640      	mov	r0, r8
 8003e2a:	f04f 0a00 	mov.w	sl, #0
					do {
						pcl = cl; ncl++;
						cl = get_fat(fp->fs, cl);
 8003e2e:	4601      	mov	r1, r0
 8003e30:	4681      	mov	r9, r0
 8003e32:	f8d4 0200 	ldr.w	r0, [r4, #512]	; 0x200
 8003e36:	f7ff f851 	bl	8002edc <get_fat>
						if (cl <= 1) ABORT(fp->fs, FR_INT_ERR);
 8003e3a:	2801      	cmp	r0, #1
						pcl = cl; ncl++;
 8003e3c:	f10a 0a01 	add.w	sl, sl, #1
						if (cl <= 1) ABORT(fp->fs, FR_INT_ERR);
 8003e40:	d807      	bhi.n	8003e52 <f_lseek+0x60>
 8003e42:	2502      	movs	r5, #2
						if (cl == 0xFFFFFFFF) ABORT(fp->fs, FR_DISK_ERR);
 8003e44:	f884 5207 	strb.w	r5, [r4, #519]	; 0x207
		}
#endif
	}

	LEAVE_FF(fp->fs, res);
}
 8003e48:	4628      	mov	r0, r5
 8003e4a:	e8bd 8ff8 	ldmia.w	sp!, {r3, r4, r5, r6, r7, r8, r9, sl, fp, pc}
 8003e4e:	4680      	mov	r8, r0
 8003e50:	e7ea      	b.n	8003e28 <f_lseek+0x36>
						if (cl == 0xFFFFFFFF) ABORT(fp->fs, FR_DISK_ERR);
 8003e52:	1c43      	adds	r3, r0, #1
 8003e54:	d101      	bne.n	8003e5a <f_lseek+0x68>
 8003e56:	2501      	movs	r5, #1
 8003e58:	e7f4      	b.n	8003e44 <f_lseek+0x52>
					} while (cl == pcl + 1);
 8003e5a:	f109 0901 	add.w	r9, r9, #1
 8003e5e:	4581      	cmp	r9, r0
 8003e60:	d0e5      	beq.n	8003e2e <f_lseek+0x3c>
					tcl = cl; ncl = 0; ulen += 2;	/* Top, length and used items */
 8003e62:	3702      	adds	r7, #2
					if (ulen <= tlen) {		/* Store the length and top of the fragment */
 8003e64:	45bb      	cmp	fp, r7
						*tbl++ = ncl; *tbl++ = tcl;
 8003e66:	bf21      	itttt	cs
 8003e68:	4633      	movcs	r3, r6
 8003e6a:	f843 ab08 	strcs.w	sl, [r3], #8
 8003e6e:	f8c6 8004 	strcs.w	r8, [r6, #4]
 8003e72:	461e      	movcs	r6, r3
				} while (cl < fp->fs->n_fatent);	/* Repeat until end of chain */
 8003e74:	f8d4 3200 	ldr.w	r3, [r4, #512]	; 0x200
 8003e78:	f8d3 3214 	ldr.w	r3, [r3, #532]	; 0x214
 8003e7c:	4283      	cmp	r3, r0
 8003e7e:	d8e6      	bhi.n	8003e4e <f_lseek+0x5c>
			*fp->cltbl = ulen;	/* Number of items used */
 8003e80:	f8d4 3224 	ldr.w	r3, [r4, #548]	; 0x224
			if (ulen <= tlen)
 8003e84:	455f      	cmp	r7, fp
			*fp->cltbl = ulen;	/* Number of items used */
 8003e86:	601f      	str	r7, [r3, #0]
			if (ulen <= tlen)
 8003e88:	f200 80fa 	bhi.w	8004080 <f_lseek+0x28e>
				*tbl = 0;		/* Terminate table */
 8003e8c:	2300      	movs	r3, #0
 8003e8e:	6033      	str	r3, [r6, #0]
 8003e90:	e7da      	b.n	8003e48 <f_lseek+0x56>
			if (ofs > fp->fsize)		/* Clip offset at the file size */
 8003e92:	f8d4 120c 	ldr.w	r1, [r4, #524]	; 0x20c
 8003e96:	428e      	cmp	r6, r1
 8003e98:	bf28      	it	cs
 8003e9a:	460e      	movcs	r6, r1
			fp->fptr = ofs;				/* Set file pointer */
 8003e9c:	f8c4 6208 	str.w	r6, [r4, #520]	; 0x208
			if (ofs) {
 8003ea0:	2e00      	cmp	r6, #0
 8003ea2:	d0d1      	beq.n	8003e48 <f_lseek+0x56>
				fp->clust = clmt_clust(fp, ofs - 1);
 8003ea4:	f106 38ff 	add.w	r8, r6, #4294967295
 8003ea8:	4641      	mov	r1, r8
 8003eaa:	4620      	mov	r0, r4
 8003eac:	f7fe fdac 	bl	8002a08 <clmt_clust>
				dsc = clust2sect(fp->fs, fp->clust);
 8003eb0:	f8d4 7200 	ldr.w	r7, [r4, #512]	; 0x200
				fp->clust = clmt_clust(fp, ofs - 1);
 8003eb4:	4601      	mov	r1, r0
 8003eb6:	f8c4 0214 	str.w	r0, [r4, #532]	; 0x214
				dsc = clust2sect(fp->fs, fp->clust);
 8003eba:	4638      	mov	r0, r7
 8003ebc:	f7ff f800 	bl	8002ec0 <clust2sect>
				if (!dsc) ABORT(fp->fs, FR_INT_ERR);
 8003ec0:	2800      	cmp	r0, #0
 8003ec2:	d0be      	beq.n	8003e42 <f_lseek+0x50>
				if (fp->fptr % SS(fp->fs) && dsc != fp->dsect) {	/* Refill sector cache if needed */
 8003ec4:	f3c6 0608 	ubfx	r6, r6, #0, #9
 8003ec8:	2e00      	cmp	r6, #0
 8003eca:	d0bd      	beq.n	8003e48 <f_lseek+0x56>
				dsc += (ofs - 1) / SS(fp->fs) & (fp->fs->csize - 1);
 8003ecc:	f897 6202 	ldrb.w	r6, [r7, #514]	; 0x202
				if (fp->fptr % SS(fp->fs) && dsc != fp->dsect) {	/* Refill sector cache if needed */
 8003ed0:	f8d4 2218 	ldr.w	r2, [r4, #536]	; 0x218
				dsc += (ofs - 1) / SS(fp->fs) & (fp->fs->csize - 1);
 8003ed4:	3e01      	subs	r6, #1
 8003ed6:	ea06 2658 	and.w	r6, r6, r8, lsr #9
 8003eda:	4406      	add	r6, r0
				if (fp->fptr % SS(fp->fs) && dsc != fp->dsect) {	/* Refill sector cache if needed */
 8003edc:	42b2      	cmp	r2, r6
 8003ede:	d0b3      	beq.n	8003e48 <f_lseek+0x56>
					if (fp->flag & FA__DIRTY) {		/* Write-back dirty sector cache */
 8003ee0:	f894 3206 	ldrb.w	r3, [r4, #518]	; 0x206
 8003ee4:	0659      	lsls	r1, r3, #25
 8003ee6:	d50d      	bpl.n	8003f04 <f_lseek+0x112>
						if (disk_write(fp->fs->drv, fp->buf.d8, fp->dsect, 1) != RES_OK)
 8003ee8:	2301      	movs	r3, #1
 8003eea:	4621      	mov	r1, r4
 8003eec:	f897 0201 	ldrb.w	r0, [r7, #513]	; 0x201
 8003ef0:	f7fe fcb0 	bl	8002854 <disk_write>
 8003ef4:	2800      	cmp	r0, #0
 8003ef6:	d1ae      	bne.n	8003e56 <f_lseek+0x64>
						fp->flag &= ~FA__DIRTY;
 8003ef8:	f894 3206 	ldrb.w	r3, [r4, #518]	; 0x206
 8003efc:	f023 0340 	bic.w	r3, r3, #64	; 0x40
 8003f00:	f884 3206 	strb.w	r3, [r4, #518]	; 0x206
					if (disk_read(fp->fs->drv, fp->buf.d8, dsc, 1) != RES_OK)	/* Load current sector */
 8003f04:	f8d4 0200 	ldr.w	r0, [r4, #512]	; 0x200
 8003f08:	2301      	movs	r3, #1
 8003f0a:	4632      	mov	r2, r6
 8003f0c:	4621      	mov	r1, r4
 8003f0e:	f890 0201 	ldrb.w	r0, [r0, #513]	; 0x201
 8003f12:	f7fe fc91 	bl	8002838 <disk_read>
 8003f16:	4605      	mov	r5, r0
 8003f18:	2800      	cmp	r0, #0
 8003f1a:	d19c      	bne.n	8003e56 <f_lseek+0x64>
					fp->dsect = dsc;
 8003f1c:	f8c4 6218 	str.w	r6, [r4, #536]	; 0x218
 8003f20:	e792      	b.n	8003e48 <f_lseek+0x56>
		if (ofs > fp->fsize					/* In read-only mode, clip offset with the file size */
 8003f22:	f8d4 320c 	ldr.w	r3, [r4, #524]	; 0x20c
 8003f26:	42b3      	cmp	r3, r6
 8003f28:	d205      	bcs.n	8003f36 <f_lseek+0x144>
			 && !(fp->flag & FA_WRITE)
 8003f2a:	f894 2206 	ldrb.w	r2, [r4, #518]	; 0x206
 8003f2e:	f012 0f02 	tst.w	r2, #2
 8003f32:	bf08      	it	eq
 8003f34:	461e      	moveq	r6, r3
		fp->fptr = nsect = 0;
 8003f36:	2200      	movs	r2, #0
		ifptr = fp->fptr;
 8003f38:	f8d4 3208 	ldr.w	r3, [r4, #520]	; 0x208
		fp->fptr = nsect = 0;
 8003f3c:	f8c4 2208 	str.w	r2, [r4, #520]	; 0x208
		if (ofs) {
 8003f40:	b96e      	cbnz	r6, 8003f5e <f_lseek+0x16c>
		if (fp->fptr > fp->fsize) {			/* Set file change flag if the file size is extended */
 8003f42:	e9d4 3282 	ldrd	r3, r2, [r4, #520]	; 0x208
 8003f46:	4293      	cmp	r3, r2
 8003f48:	f67f af7e 	bls.w	8003e48 <f_lseek+0x56>
			fp->fsize = fp->fptr;
 8003f4c:	f8c4 320c 	str.w	r3, [r4, #524]	; 0x20c
			fp->flag |= FA__WRITTEN;
 8003f50:	f894 3206 	ldrb.w	r3, [r4, #518]	; 0x206
 8003f54:	f043 0320 	orr.w	r3, r3, #32
 8003f58:	f884 3206 	strb.w	r3, [r4, #518]	; 0x206
 8003f5c:	e774      	b.n	8003e48 <f_lseek+0x56>
			bcs = (DWORD)fp->fs->csize * SS(fp->fs);	/* Cluster size (byte) */
 8003f5e:	f8d4 0200 	ldr.w	r0, [r4, #512]	; 0x200
 8003f62:	f890 7202 	ldrb.w	r7, [r0, #514]	; 0x202
 8003f66:	027f      	lsls	r7, r7, #9
			if (ifptr > 0 &&
 8003f68:	2b00      	cmp	r3, #0
 8003f6a:	d03f      	beq.n	8003fec <f_lseek+0x1fa>
				(ofs - 1) / bcs >= (ifptr - 1) / bcs) {	/* When seek to same or following cluster, */
 8003f6c:	3b01      	subs	r3, #1
 8003f6e:	1e72      	subs	r2, r6, #1
 8003f70:	fbb2 f2f7 	udiv	r2, r2, r7
 8003f74:	fbb3 f1f7 	udiv	r1, r3, r7
			if (ifptr > 0 &&
 8003f78:	428a      	cmp	r2, r1
 8003f7a:	d337      	bcc.n	8003fec <f_lseek+0x1fa>
				fp->fptr = (ifptr - 1) & ~(bcs - 1);	/* start from the current cluster */
 8003f7c:	427a      	negs	r2, r7
 8003f7e:	4013      	ands	r3, r2
				clst = fp->clust;
 8003f80:	f8d4 1214 	ldr.w	r1, [r4, #532]	; 0x214
				fp->fptr = (ifptr - 1) & ~(bcs - 1);	/* start from the current cluster */
 8003f84:	f8c4 3208 	str.w	r3, [r4, #520]	; 0x208
				ofs -= fp->fptr;
 8003f88:	1af6      	subs	r6, r6, r3
			if (clst != 0) {
 8003f8a:	2900      	cmp	r1, #0
 8003f8c:	d163      	bne.n	8004056 <f_lseek+0x264>
		fp->fptr = nsect = 0;
 8003f8e:	2600      	movs	r6, #0
		if (fp->fptr % SS(fp->fs) && nsect != fp->dsect) {	/* Fill sector cache if needed */
 8003f90:	f8d4 3208 	ldr.w	r3, [r4, #520]	; 0x208
 8003f94:	f3c3 0308 	ubfx	r3, r3, #0, #9
 8003f98:	2b00      	cmp	r3, #0
 8003f9a:	d0d2      	beq.n	8003f42 <f_lseek+0x150>
 8003f9c:	f8d4 2218 	ldr.w	r2, [r4, #536]	; 0x218
 8003fa0:	42b2      	cmp	r2, r6
 8003fa2:	d0ce      	beq.n	8003f42 <f_lseek+0x150>
			if (fp->flag & FA__DIRTY) {			/* Write-back dirty sector cache */
 8003fa4:	f894 3206 	ldrb.w	r3, [r4, #518]	; 0x206
 8003fa8:	065b      	lsls	r3, r3, #25
 8003faa:	d510      	bpl.n	8003fce <f_lseek+0x1dc>
				if (disk_write(fp->fs->drv, fp->buf.d8, fp->dsect, 1) != RES_OK)
 8003fac:	f8d4 0200 	ldr.w	r0, [r4, #512]	; 0x200
 8003fb0:	2301      	movs	r3, #1
 8003fb2:	4621      	mov	r1, r4
 8003fb4:	f890 0201 	ldrb.w	r0, [r0, #513]	; 0x201
 8003fb8:	f7fe fc4c 	bl	8002854 <disk_write>
 8003fbc:	2800      	cmp	r0, #0
 8003fbe:	f47f af4a 	bne.w	8003e56 <f_lseek+0x64>
				fp->flag &= ~FA__DIRTY;
 8003fc2:	f894 3206 	ldrb.w	r3, [r4, #518]	; 0x206
 8003fc6:	f023 0340 	bic.w	r3, r3, #64	; 0x40
 8003fca:	f884 3206 	strb.w	r3, [r4, #518]	; 0x206
			if (disk_read(fp->fs->drv, fp->buf.d8, nsect, 1) != RES_OK)	/* Fill sector cache */
 8003fce:	f8d4 0200 	ldr.w	r0, [r4, #512]	; 0x200
 8003fd2:	2301      	movs	r3, #1
 8003fd4:	4632      	mov	r2, r6
 8003fd6:	4621      	mov	r1, r4
 8003fd8:	f890 0201 	ldrb.w	r0, [r0, #513]	; 0x201
 8003fdc:	f7fe fc2c 	bl	8002838 <disk_read>
 8003fe0:	2800      	cmp	r0, #0
 8003fe2:	f47f af38 	bne.w	8003e56 <f_lseek+0x64>
			fp->dsect = nsect;
 8003fe6:	f8c4 6218 	str.w	r6, [r4, #536]	; 0x218
 8003fea:	e7aa      	b.n	8003f42 <f_lseek+0x150>
				clst = fp->sclust;						/* start from the first cluster */
 8003fec:	f8d4 1210 	ldr.w	r1, [r4, #528]	; 0x210
				if (clst == 0) {						/* If no cluster chain, create a new chain */
 8003ff0:	b951      	cbnz	r1, 8004008 <f_lseek+0x216>
					clst = create_chain(fp->fs, 0);
 8003ff2:	f7ff f89c 	bl	800312e <create_chain>
					if (clst == 1) ABORT(fp->fs, FR_INT_ERR);
 8003ff6:	2801      	cmp	r0, #1
					clst = create_chain(fp->fs, 0);
 8003ff8:	4601      	mov	r1, r0
					if (clst == 1) ABORT(fp->fs, FR_INT_ERR);
 8003ffa:	f43f af22 	beq.w	8003e42 <f_lseek+0x50>
					if (clst == 0xFFFFFFFF) ABORT(fp->fs, FR_DISK_ERR);
 8003ffe:	1c42      	adds	r2, r0, #1
 8004000:	f43f af29 	beq.w	8003e56 <f_lseek+0x64>
					fp->sclust = clst;
 8004004:	f8c4 0210 	str.w	r0, [r4, #528]	; 0x210
				fp->clust = clst;
 8004008:	f8c4 1214 	str.w	r1, [r4, #532]	; 0x214
 800400c:	e7bd      	b.n	8003f8a <f_lseek+0x198>
					if (fp->flag & FA_WRITE) {			/* Check if in write mode or not */
 800400e:	f894 3206 	ldrb.w	r3, [r4, #518]	; 0x206
 8004012:	f8d4 0200 	ldr.w	r0, [r4, #512]	; 0x200
 8004016:	079b      	lsls	r3, r3, #30
 8004018:	d505      	bpl.n	8004026 <f_lseek+0x234>
						clst = create_chain(fp->fs, clst);	/* Force stretch if in write mode */
 800401a:	f7ff f888 	bl	800312e <create_chain>
						if (clst == 0) {				/* When disk gets full, clip file size */
 800401e:	4601      	mov	r1, r0
 8004020:	b920      	cbnz	r0, 800402c <f_lseek+0x23a>
 8004022:	463e      	mov	r6, r7
 8004024:	e019      	b.n	800405a <f_lseek+0x268>
						clst = get_fat(fp->fs, clst);	/* Follow cluster chain if not in write mode */
 8004026:	f7fe ff59 	bl	8002edc <get_fat>
 800402a:	4601      	mov	r1, r0
					if (clst == 0xFFFFFFFF) ABORT(fp->fs, FR_DISK_ERR);
 800402c:	1c4a      	adds	r2, r1, #1
 800402e:	f43f af12 	beq.w	8003e56 <f_lseek+0x64>
					if (clst <= 1 || clst >= fp->fs->n_fatent) ABORT(fp->fs, FR_INT_ERR);
 8004032:	2901      	cmp	r1, #1
 8004034:	f67f af05 	bls.w	8003e42 <f_lseek+0x50>
 8004038:	f8d4 3200 	ldr.w	r3, [r4, #512]	; 0x200
 800403c:	f8d3 3214 	ldr.w	r3, [r3, #532]	; 0x214
 8004040:	428b      	cmp	r3, r1
 8004042:	f67f aefe 	bls.w	8003e42 <f_lseek+0x50>
					fp->fptr += bcs;
 8004046:	f8d4 3208 	ldr.w	r3, [r4, #520]	; 0x208
					fp->clust = clst;
 800404a:	f8c4 1214 	str.w	r1, [r4, #532]	; 0x214
					fp->fptr += bcs;
 800404e:	443b      	add	r3, r7
 8004050:	f8c4 3208 	str.w	r3, [r4, #520]	; 0x208
					ofs -= bcs;
 8004054:	1bf6      	subs	r6, r6, r7
				while (ofs > bcs) {						/* Cluster following loop */
 8004056:	42be      	cmp	r6, r7
 8004058:	d8d9      	bhi.n	800400e <f_lseek+0x21c>
				fp->fptr += ofs;
 800405a:	f8d4 3208 	ldr.w	r3, [r4, #520]	; 0x208
 800405e:	4433      	add	r3, r6
 8004060:	f8c4 3208 	str.w	r3, [r4, #520]	; 0x208
				if (ofs % SS(fp->fs)) {
 8004064:	f3c6 0308 	ubfx	r3, r6, #0, #9
 8004068:	2b00      	cmp	r3, #0
 800406a:	d090      	beq.n	8003f8e <f_lseek+0x19c>
					nsect = clust2sect(fp->fs, clst);	/* Current sector */
 800406c:	f8d4 0200 	ldr.w	r0, [r4, #512]	; 0x200
 8004070:	f7fe ff26 	bl	8002ec0 <clust2sect>
					if (!nsect) ABORT(fp->fs, FR_INT_ERR);
 8004074:	2800      	cmp	r0, #0
 8004076:	f43f aee4 	beq.w	8003e42 <f_lseek+0x50>
					nsect += ofs / SS(fp->fs);
 800407a:	eb00 2656 	add.w	r6, r0, r6, lsr #9
 800407e:	e787      	b.n	8003f90 <f_lseek+0x19e>
				res = FR_NOT_ENOUGH_CORE;	/* Given table size is smaller than required */
 8004080:	2511      	movs	r5, #17
 8004082:	e6e1      	b.n	8003e48 <f_lseek+0x56>

08004084 <FATFS_LinkDriverEx>:
  * @param  lun : only used for USB Key Disk to add multi-lun management
            else the paramter must be equal to 0
  * @retval Returns 0 in case of success, otherwise 1.
  */
uint8_t FATFS_LinkDriverEx(Diskio_drvTypeDef *drv, char *path, uint8_t lun)
{
 8004084:	b530      	push	{r4, r5, lr}
  uint8_t ret = 1;
  uint8_t DiskNum = 0;
  
  if(disk.nbr <= _VOLUMES)
 8004086:	4b0f      	ldr	r3, [pc, #60]	; (80040c4 <FATFS_LinkDriverEx+0x40>)
{
 8004088:	4605      	mov	r5, r0
  if(disk.nbr <= _VOLUMES)
 800408a:	7a58      	ldrb	r0, [r3, #9]
 800408c:	2801      	cmp	r0, #1
 800408e:	d816      	bhi.n	80040be <FATFS_LinkDriverEx+0x3a>
  {
    disk.is_initialized[disk.nbr] = 0;
 8004090:	2000      	movs	r0, #0
 8004092:	7a5c      	ldrb	r4, [r3, #9]
 8004094:	b2e4      	uxtb	r4, r4
 8004096:	5518      	strb	r0, [r3, r4]
    disk.drv[disk.nbr] = drv;  
 8004098:	7a5c      	ldrb	r4, [r3, #9]
 800409a:	eb03 0484 	add.w	r4, r3, r4, lsl #2
 800409e:	6065      	str	r5, [r4, #4]
    disk.lun[disk.nbr] = lun;  
 80040a0:	7a5c      	ldrb	r4, [r3, #9]
 80040a2:	441c      	add	r4, r3
 80040a4:	7222      	strb	r2, [r4, #8]
    DiskNum = disk.nbr++;
 80040a6:	7a5a      	ldrb	r2, [r3, #9]
 80040a8:	1c54      	adds	r4, r2, #1
 80040aa:	b2e4      	uxtb	r4, r4
 80040ac:	725c      	strb	r4, [r3, #9]
    path[0] = DiskNum + '0';
    path[1] = ':';
 80040ae:	233a      	movs	r3, #58	; 0x3a
 80040b0:	704b      	strb	r3, [r1, #1]
    path[2] = '/';
 80040b2:	232f      	movs	r3, #47	; 0x2f
    path[0] = DiskNum + '0';
 80040b4:	3230      	adds	r2, #48	; 0x30
 80040b6:	700a      	strb	r2, [r1, #0]
    path[2] = '/';
 80040b8:	708b      	strb	r3, [r1, #2]
    path[3] = 0;
 80040ba:	70c8      	strb	r0, [r1, #3]
    ret = 0;
  }
  
  return ret;
}
 80040bc:	bd30      	pop	{r4, r5, pc}
  uint8_t ret = 1;
 80040be:	2001      	movs	r0, #1
 80040c0:	e7fc      	b.n	80040bc <FATFS_LinkDriverEx+0x38>
 80040c2:	bf00      	nop
 80040c4:	2000015c 	.word	0x2000015c

080040c8 <FATFS_LinkDriver>:
  * @param  path: pointer to the logical drive path 
  * @retval Returns 0 in case of success, otherwise 1.
  */
uint8_t FATFS_LinkDriver(Diskio_drvTypeDef *drv, char *path)
{
  return FATFS_LinkDriverEx(drv, path, 0);
 80040c8:	2200      	movs	r2, #0
 80040ca:	f7ff bfdb 	b.w	8004084 <FATFS_LinkDriverEx>
	...

080040d0 <ff_convert>:
)
{
	WCHAR c;


	if (chr < 0x80) {	/* ASCII */
 80040d0:	287f      	cmp	r0, #127	; 0x7f
{
 80040d2:	b510      	push	{r4, lr}
	if (chr < 0x80) {	/* ASCII */
 80040d4:	d906      	bls.n	80040e4 <ff_convert+0x14>
		c = chr;

	} else {
		if (dir) {		/* OEMCP to Unicode */
 80040d6:	b131      	cbz	r1, 80040e6 <ff_convert+0x16>
			c = (chr >= 0x100) ? 0 : Tbl[chr - 0x80];
 80040d8:	28ff      	cmp	r0, #255	; 0xff
 80040da:	d812      	bhi.n	8004102 <ff_convert+0x32>
 80040dc:	4b0a      	ldr	r3, [pc, #40]	; (8004108 <ff_convert+0x38>)
 80040de:	3880      	subs	r0, #128	; 0x80
 80040e0:	f833 0010 	ldrh.w	r0, [r3, r0, lsl #1]
			c = (c + 0x80) & 0xFF;
		}
	}

	return c;
}
 80040e4:	bd10      	pop	{r4, pc}
 80040e6:	4a08      	ldr	r2, [pc, #32]	; (8004108 <ff_convert+0x38>)
				if (chr == Tbl[c]) break;
 80040e8:	f832 4b02 	ldrh.w	r4, [r2], #2
 80040ec:	b28b      	uxth	r3, r1
 80040ee:	4284      	cmp	r4, r0
 80040f0:	d003      	beq.n	80040fa <ff_convert+0x2a>
			for (c = 0; c < 0x80; c++) {
 80040f2:	3101      	adds	r1, #1
 80040f4:	2980      	cmp	r1, #128	; 0x80
 80040f6:	d1f7      	bne.n	80040e8 <ff_convert+0x18>
 80040f8:	460b      	mov	r3, r1
			c = (c + 0x80) & 0xFF;
 80040fa:	f103 0080 	add.w	r0, r3, #128	; 0x80
 80040fe:	b2c0      	uxtb	r0, r0
 8004100:	e7f0      	b.n	80040e4 <ff_convert+0x14>
			c = (chr >= 0x100) ? 0 : Tbl[chr - 0x80];
 8004102:	2000      	movs	r0, #0
 8004104:	e7ee      	b.n	80040e4 <ff_convert+0x14>
 8004106:	bf00      	nop
 8004108:	08005888 	.word	0x08005888

0800410c <ff_wtoupper>:
	static const WCHAR tbl_lower[] = { 0x61, 0x62, 0x63, 0x64, 0x65, 0x66, 0x67, 0x68, 0x69, 0x6A, 0x6B, 0x6C, 0x6D, 0x6E, 0x6F, 0x70, 0x71, 0x72, 0x73, 0x74, 0x75, 0x76, 0x77, 0x78, 0x79, 0x7A, 0xA1, 0x00A2, 0x00A3, 0x00A5, 0x00AC, 0x00AF, 0xE0, 0xE1, 0xE2, 0xE3, 0xE4, 0xE5, 0xE6, 0xE7, 0xE8, 0xE9, 0xEA, 0xEB, 0xEC, 0xED, 0xEE, 0xEF, 0xF0, 0xF1, 0xF2, 0xF3, 0xF4, 0xF5, 0xF6, 0xF8, 0xF9, 0xFA, 0xFB, 0xFC, 0xFD, 0xFE, 0x0FF, 0x101, 0x103, 0x105, 0x107, 0x109, 0x10B, 0x10D, 0x10F, 0x111, 0x113, 0x115, 0x117, 0x119, 0x11B, 0x11D, 0x11F, 0x121, 0x123, 0x125, 0x127, 0x129, 0x12B, 0x12D, 0x12F, 0x131, 0x133, 0x135, 0x137, 0x13A, 0x13C, 0x13E, 0x140, 0x142, 0x144, 0x146, 0x148, 0x14B, 0x14D, 0x14F, 0x151, 0x153, 0x155, 0x157, 0x159, 0x15B, 0x15D, 0x15F, 0x161, 0x163, 0x165, 0x167, 0x169, 0x16B, 0x16D, 0x16F, 0x171, 0x173, 0x175, 0x177, 0x17A, 0x17C, 0x17E, 0x192, 0x3B1, 0x3B2, 0x3B3, 0x3B4, 0x3B5, 0x3B6, 0x3B7, 0x3B8, 0x3B9, 0x3BA, 0x3BB, 0x3BC, 0x3BD, 0x3BE, 0x3BF, 0x3C0, 0x3C1, 0x3C3, 0x3C4, 0x3C5, 0x3C6, 0x3C7, 0x3C8, 0x3C9, 0x3CA, 0x430, 0x431, 0x432, 0x433, 0x434, 0x435, 0x436, 0x437, 0x438, 0x439, 0x43A, 0x43B, 0x43C, 0x43D, 0x43E, 0x43F, 0x440, 0x441, 0x442, 0x443, 0x444, 0x445, 0x446, 0x447, 0x448, 0x449, 0x44A, 0x44B, 0x44C, 0x44D, 0x44E, 0x44F, 0x451, 0x452, 0x453, 0x454, 0x455, 0x456, 0x457, 0x458, 0x459, 0x45A, 0x45B, 0x45C, 0x45E, 0x45F, 0x2170, 0x2171, 0x2172, 0x2173, 0x2174, 0x2175, 0x2176, 0x2177, 0x2178, 0x2179, 0x217A, 0x217B, 0x217C, 0x217D, 0x217E, 0x217F, 0xFF41, 0xFF42, 0xFF43, 0xFF44, 0xFF45, 0xFF46, 0xFF47, 0xFF48, 0xFF49, 0xFF4A, 0xFF4B, 0xFF4C, 0xFF4D, 0xFF4E, 0xFF4F, 0xFF50, 0xFF51, 0xFF52, 0xFF53, 0xFF54, 0xFF55, 0xFF56, 0xFF57, 0xFF58, 0xFF59, 0xFF5A, 0 };
	static const WCHAR tbl_upper[] = { 0x41, 0x42, 0x43, 0x44, 0x45, 0x46, 0x47, 0x48, 0x49, 0x4A, 0x4B, 0x4C, 0x4D, 0x4E, 0x4F, 0x50, 0x51, 0x52, 0x53, 0x54, 0x55, 0x56, 0x57, 0x58, 0x59, 0x5A, 0x21, 0xFFE0, 0xFFE1, 0xFFE5, 0xFFE2, 0xFFE3, 0xC0, 0xC1, 0xC2, 0xC3, 0xC4, 0xC5, 0xC6, 0xC7, 0xC8, 0xC9, 0xCA, 0xCB, 0xCC, 0xCD, 0xCE, 0xCF, 0xD0, 0xD1, 0xD2, 0xD3, 0xD4, 0xD5, 0xD6, 0xD8, 0xD9, 0xDA, 0xDB, 0xDC, 0xDD, 0xDE, 0x178, 0x100, 0x102, 0x104, 0x106, 0x108, 0x10A, 0x10C, 0x10E, 0x110, 0x112, 0x114, 0x116, 0x118, 0x11A, 0x11C, 0x11E, 0x120, 0x122, 0x124, 0x126, 0x128, 0x12A, 0x12C, 0x12E, 0x130, 0x132, 0x134, 0x136, 0x139, 0x13B, 0x13D, 0x13F, 0x141, 0x143, 0x145, 0x147, 0x14A, 0x14C, 0x14E, 0x150, 0x152, 0x154, 0x156, 0x158, 0x15A, 0x15C, 0x15E, 0x160, 0x162, 0x164, 0x166, 0x168, 0x16A, 0x16C, 0x16E, 0x170, 0x172, 0x174, 0x176, 0x179, 0x17B, 0x17D, 0x191, 0x391, 0x392, 0x393, 0x394, 0x395, 0x396, 0x397, 0x398, 0x399, 0x39A, 0x39B, 0x39C, 0x39D, 0x39E, 0x39F, 0x3A0, 0x3A1, 0x3A3, 0x3A4, 0x3A5, 0x3A6, 0x3A7, 0x3A8, 0x3A9, 0x3AA, 0x410, 0x411, 0x412, 0x413, 0x414, 0x415, 0x416, 0x417, 0x418, 0x419, 0x41A, 0x41B, 0x41C, 0x41D, 0x41E, 0x41F, 0x420, 0x421, 0x422, 0x423, 0x424, 0x425, 0x426, 0x427, 0x428, 0x429, 0x42A, 0x42B, 0x42C, 0x42D, 0x42E, 0x42F, 0x401, 0x402, 0x403, 0x404, 0x405, 0x406, 0x407, 0x408, 0x409, 0x40A, 0x40B, 0x40C, 0x40E, 0x40F, 0x2160, 0x2161, 0x2162, 0x2163, 0x2164, 0x2165, 0x2166, 0x2167, 0x2168, 0x2169, 0x216A, 0x216B, 0x216C, 0x216D, 0x216E, 0x216F, 0xFF21, 0xFF22, 0xFF23, 0xFF24, 0xFF25, 0xFF26, 0xFF27, 0xFF28, 0xFF29, 0xFF2A, 0xFF2B, 0xFF2C, 0xFF2D, 0xFF2E, 0xFF2F, 0xFF30, 0xFF31, 0xFF32, 0xFF33, 0xFF34, 0xFF35, 0xFF36, 0xFF37, 0xFF38, 0xFF39, 0xFF3A, 0 };
	int i;


	for (i = 0; tbl_lower[i] && chr != tbl_lower[i]; i++) ;
 800410c:	2300      	movs	r3, #0
 800410e:	4906      	ldr	r1, [pc, #24]	; (8004128 <ff_wtoupper+0x1c>)
 8004110:	f831 2b02 	ldrh.w	r2, [r1], #2
 8004114:	b122      	cbz	r2, 8004120 <ff_wtoupper+0x14>
 8004116:	4282      	cmp	r2, r0
 8004118:	d103      	bne.n	8004122 <ff_wtoupper+0x16>

	return tbl_lower[i] ? tbl_upper[i] : chr;
 800411a:	4a04      	ldr	r2, [pc, #16]	; (800412c <ff_wtoupper+0x20>)
 800411c:	f832 0013 	ldrh.w	r0, [r2, r3, lsl #1]
}
 8004120:	4770      	bx	lr
	for (i = 0; tbl_lower[i] && chr != tbl_lower[i]; i++) ;
 8004122:	3301      	adds	r3, #1
 8004124:	e7f4      	b.n	8004110 <ff_wtoupper+0x4>
 8004126:	bf00      	nop
 8004128:	08005988 	.word	0x08005988
 800412c:	08005b68 	.word	0x08005b68

08004130 <AVP_Init>:
	.cfg_Verify =  null_actFunc
};

avr_prog_proto_t *curDrv;

bool AVP_Init(const avp_init_t *avrprog){
 8004130:	b508      	push	{r3, lr}
	if(avrprog == NULL
 8004132:	b1e0      	cbz	r0, 800416e <AVP_Init+0x3e>
	|| avrprog->prog_cb == NULL
 8004134:	6803      	ldr	r3, [r0, #0]
 8004136:	b1d3      	cbz	r3, 800416e <AVP_Init+0x3e>
	|| avrprog->err_cb == NULL
 8004138:	6843      	ldr	r3, [r0, #4]
 800413a:	b1c3      	cbz	r3, 800416e <AVP_Init+0x3e>
	|| avrprog->hspi == NULL
 800413c:	68c3      	ldr	r3, [r0, #12]
 800413e:	b1b3      	cbz	r3, 800416e <AVP_Init+0x3e>
	|| avrprog->CS_Port == NULL
 8004140:	6943      	ldr	r3, [r0, #20]
 8004142:	b1a3      	cbz	r3, 800416e <AVP_Init+0x3e>
	|| !IS_GPIO_PIN(avrprog->CS_Pin)
 8004144:	8a02      	ldrh	r2, [r0, #16]
 8004146:	b192      	cbz	r2, 800416e <AVP_Init+0x3e>
	|| !IS_GPIO_ALL_INSTANCE(avrprog->CS_Port)){
 8004148:	4a10      	ldr	r2, [pc, #64]	; (800418c <AVP_Init+0x5c>)
 800414a:	4293      	cmp	r3, r2
 800414c:	d014      	beq.n	8004178 <AVP_Init+0x48>
 800414e:	f502 6280 	add.w	r2, r2, #1024	; 0x400
 8004152:	4293      	cmp	r3, r2
 8004154:	d010      	beq.n	8004178 <AVP_Init+0x48>
 8004156:	f502 6280 	add.w	r2, r2, #1024	; 0x400
 800415a:	4293      	cmp	r3, r2
 800415c:	d00c      	beq.n	8004178 <AVP_Init+0x48>
 800415e:	f502 6280 	add.w	r2, r2, #1024	; 0x400
 8004162:	4293      	cmp	r3, r2
 8004164:	d008      	beq.n	8004178 <AVP_Init+0x48>
 8004166:	f502 6280 	add.w	r2, r2, #1024	; 0x400
 800416a:	4293      	cmp	r3, r2
 800416c:	d004      	beq.n	8004178 <AVP_Init+0x48>

		DEBUG_PRINTF("AVP INIT: ERR\n");
 800416e:	4808      	ldr	r0, [pc, #32]	; (8004190 <AVP_Init+0x60>)
 8004170:	f7fb fff2 	bl	8000158 <myprintf>
		return 0;
 8004174:	2000      	movs	r0, #0
	avr_prog = avrprog;
	spi_prog_deinit();

	DEBUG_PRINTF("AVP INIT: OK\n");
	return 1;
}
 8004176:	bd08      	pop	{r3, pc}
	avr_prog = avrprog;
 8004178:	4b06      	ldr	r3, [pc, #24]	; (8004194 <AVP_Init+0x64>)
 800417a:	6018      	str	r0, [r3, #0]
	spi_prog_deinit();
 800417c:	f000 fbdc 	bl	8004938 <spi_prog_deinit>
	DEBUG_PRINTF("AVP INIT: OK\n");
 8004180:	4805      	ldr	r0, [pc, #20]	; (8004198 <AVP_Init+0x68>)
 8004182:	f7fb ffe9 	bl	8000158 <myprintf>
	return 1;
 8004186:	2001      	movs	r0, #1
 8004188:	e7f5      	b.n	8004176 <AVP_Init+0x46>
 800418a:	bf00      	nop
 800418c:	40010800 	.word	0x40010800
 8004190:	08005d48 	.word	0x08005d48
 8004194:	20000f48 	.word	0x20000f48
 8004198:	08005d57 	.word	0x08005d57

0800419c <Close_Session>:

void Close_Session(){
 800419c:	b510      	push	{r4, lr}
	// Закрыть пасть либералу!
	f_close(&firmwareFile);
	

	if(AVP_ERROR){
 800419e:	4c0b      	ldr	r4, [pc, #44]	; (80041cc <Close_Session+0x30>)
	f_close(&firmwareFile);
 80041a0:	480b      	ldr	r0, [pc, #44]	; (80041d0 <Close_Session+0x34>)
 80041a2:	f7ff fe15 	bl	8003dd0 <f_close>
	if(AVP_ERROR){
 80041a6:	4b0b      	ldr	r3, [pc, #44]	; (80041d4 <Close_Session+0x38>)
 80041a8:	7822      	ldrb	r2, [r4, #0]
		avr_prog->err_cb(errType, errMessage);
 80041aa:	681b      	ldr	r3, [r3, #0]
	if(AVP_ERROR){
 80041ac:	b15a      	cbz	r2, 80041c6 <Close_Session+0x2a>
		avr_prog->err_cb(errType, errMessage);
 80041ae:	4a0a      	ldr	r2, [pc, #40]	; (80041d8 <Close_Session+0x3c>)
 80041b0:	685b      	ldr	r3, [r3, #4]
 80041b2:	490a      	ldr	r1, [pc, #40]	; (80041dc <Close_Session+0x40>)
 80041b4:	6810      	ldr	r0, [r2, #0]
 80041b6:	4798      	blx	r3
		AVP_ERROR = 0;
 80041b8:	2300      	movs	r3, #0
 80041ba:	7023      	strb	r3, [r4, #0]
	}
	else{
		avr_prog->sucs_cb();
	}

	DEBUG_PRINTF("\n----------------- SESSION CLOSED ----------------- \n");
 80041bc:	4808      	ldr	r0, [pc, #32]	; (80041e0 <Close_Session+0x44>)

}
 80041be:	e8bd 4010 	ldmia.w	sp!, {r4, lr}
	DEBUG_PRINTF("\n----------------- SESSION CLOSED ----------------- \n");
 80041c2:	f7fb bfc9 	b.w	8000158 <myprintf>
		avr_prog->sucs_cb();
 80041c6:	689b      	ldr	r3, [r3, #8]
 80041c8:	4798      	blx	r3
 80041ca:	e7f7      	b.n	80041bc <Close_Session+0x20>
 80041cc:	20000168 	.word	0x20000168
 80041d0:	2000016c 	.word	0x2000016c
 80041d4:	20000f48 	.word	0x20000f48
 80041d8:	20000f94 	.word	0x20000f94
 80041dc:	20000f54 	.word	0x20000f54
 80041e0:	08005d65 	.word	0x08005d65

080041e4 <Init_Session>:

void Init_Session(avp_param_t *_param){

	if(avr_prog == NULL){
 80041e4:	4b2e      	ldr	r3, [pc, #184]	; (80042a0 <Init_Session+0xbc>)
void Init_Session(avp_param_t *_param){
 80041e6:	b570      	push	{r4, r5, r6, lr}
	if(avr_prog == NULL){
 80041e8:	681b      	ldr	r3, [r3, #0]
void Init_Session(avp_param_t *_param){
 80041ea:	4604      	mov	r4, r0
	if(avr_prog == NULL){
 80041ec:	b93b      	cbnz	r3, 80041fe <Init_Session+0x1a>
		FAIL(AVP_ERR_INIT, AVP_ERR_MISSING_INIT);
 80041ee:	4b2d      	ldr	r3, [pc, #180]	; (80042a4 <Init_Session+0xc0>)
		return;
	}
	if(_param->mcu==NULL){
		FAIL(AVP_ERR_INIT, AVP_ERR_NULL_MCU);
 80041f0:	6819      	ldr	r1, [r3, #0]
 80041f2:	4b2d      	ldr	r3, [pc, #180]	; (80042a8 <Init_Session+0xc4>)
 80041f4:	6818      	ldr	r0, [r3, #0]
	memset(errMessage, 0, sizeof(errMessage));

	DEBUG_PRINTF("INIT SESSION: OK\n");
	DEBUG_PRINTF("\n----------------- SESSION OPEN ----------------- \n\n");

}
 80041f6:	e8bd 4070 	ldmia.w	sp!, {r4, r5, r6, lr}
		FAIL(AVP_ERR_INIT, AVP_ERR_NULL_MCU);
 80041fa:	f000 b8d3 	b.w	80043a4 <FAIL>
	if(_param->mcu==NULL){
 80041fe:	6843      	ldr	r3, [r0, #4]
 8004200:	b90b      	cbnz	r3, 8004206 <Init_Session+0x22>
		FAIL(AVP_ERR_INIT, AVP_ERR_NULL_MCU);
 8004202:	4b2a      	ldr	r3, [pc, #168]	; (80042ac <Init_Session+0xc8>)
 8004204:	e7f4      	b.n	80041f0 <Init_Session+0xc>
	if(firmwareFile.fs != NULL){
 8004206:	4d2a      	ldr	r5, [pc, #168]	; (80042b0 <Init_Session+0xcc>)
 8004208:	f8d5 3200 	ldr.w	r3, [r5, #512]	; 0x200
 800420c:	b10b      	cbz	r3, 8004212 <Init_Session+0x2e>
		FAIL(AVP_ERR_INIT, AVP_ERR_FILE_NOT_CLOSED);
 800420e:	4b29      	ldr	r3, [pc, #164]	; (80042b4 <Init_Session+0xd0>)
 8004210:	e7ee      	b.n	80041f0 <Init_Session+0xc>
	if(curDrv == NULL){
 8004212:	4e29      	ldr	r6, [pc, #164]	; (80042b8 <Init_Session+0xd4>)
 8004214:	6832      	ldr	r2, [r6, #0]
 8004216:	b90a      	cbnz	r2, 800421c <Init_Session+0x38>
		FAIL(AVP_ERR_INIT, AVP_ERR_NULL_PROTO);
 8004218:	4b28      	ldr	r3, [pc, #160]	; (80042bc <Init_Session+0xd8>)
 800421a:	e7e9      	b.n	80041f0 <Init_Session+0xc>
	if(curAction == ACT_FB_DEFAULT){
 800421c:	4b28      	ldr	r3, [pc, #160]	; (80042c0 <Init_Session+0xdc>)
 800421e:	781b      	ldrb	r3, [r3, #0]
 8004220:	2b07      	cmp	r3, #7
 8004222:	d11c      	bne.n	800425e <Init_Session+0x7a>
		firmwareFtype = AVP_FTYPE_DEF;
 8004224:	2204      	movs	r2, #4
 8004226:	4b27      	ldr	r3, [pc, #156]	; (80042c4 <Init_Session+0xe0>)
 8004228:	701a      	strb	r2, [r3, #0]
	curDrv->check_conf();
 800422a:	6833      	ldr	r3, [r6, #0]
 800422c:	681b      	ldr	r3, [r3, #0]
 800422e:	4798      	blx	r3
	if(AVP_ERROR) return;
 8004230:	4b25      	ldr	r3, [pc, #148]	; (80042c8 <Init_Session+0xe4>)
 8004232:	7819      	ldrb	r1, [r3, #0]
 8004234:	2900      	cmp	r1, #0
 8004236:	d132      	bne.n	800429e <Init_Session+0xba>
	avp_curParam = _param;
 8004238:	4b24      	ldr	r3, [pc, #144]	; (80042cc <Init_Session+0xe8>)
	f_page_size_b = avp_curParam->mcu->flash_page_size * 2;
 800423a:	4a25      	ldr	r2, [pc, #148]	; (80042d0 <Init_Session+0xec>)
	avp_curParam = _param;
 800423c:	601c      	str	r4, [r3, #0]
	f_page_size_b = avp_curParam->mcu->flash_page_size * 2;
 800423e:	6863      	ldr	r3, [r4, #4]
	memset(errMessage, 0, sizeof(errMessage));
 8004240:	4824      	ldr	r0, [pc, #144]	; (80042d4 <Init_Session+0xf0>)
	f_page_size_b = avp_curParam->mcu->flash_page_size * 2;
 8004242:	79db      	ldrb	r3, [r3, #7]
 8004244:	005b      	lsls	r3, r3, #1
 8004246:	6013      	str	r3, [r2, #0]
	memset(errMessage, 0, sizeof(errMessage));
 8004248:	2240      	movs	r2, #64	; 0x40
 800424a:	f000 fdcf 	bl	8004dec <memset>
	DEBUG_PRINTF("INIT SESSION: OK\n");
 800424e:	4822      	ldr	r0, [pc, #136]	; (80042d8 <Init_Session+0xf4>)
 8004250:	f7fb ff82 	bl	8000158 <myprintf>
}
 8004254:	e8bd 4070 	ldmia.w	sp!, {r4, r5, r6, lr}
	DEBUG_PRINTF("\n----------------- SESSION OPEN ----------------- \n\n");
 8004258:	4820      	ldr	r0, [pc, #128]	; (80042dc <Init_Session+0xf8>)
 800425a:	f7fb bf7d 	b.w	8000158 <myprintf>
		if(_param->path==NULL || strlen(_param->path)==0){
 800425e:	6800      	ldr	r0, [r0, #0]
 8004260:	b108      	cbz	r0, 8004266 <Init_Session+0x82>
 8004262:	7803      	ldrb	r3, [r0, #0]
 8004264:	b90b      	cbnz	r3, 800426a <Init_Session+0x86>
			FAIL(AVP_ERR_INIT, AVP_ERR_NULL_PATH);
 8004266:	4b1e      	ldr	r3, [pc, #120]	; (80042e0 <Init_Session+0xfc>)
 8004268:	e7c2      	b.n	80041f0 <Init_Session+0xc>
		firmwareFtype = get_ftype(_param->path);
 800426a:	f000 f90d 	bl	8004488 <get_ftype>
 800426e:	4a15      	ldr	r2, [pc, #84]	; (80042c4 <Init_Session+0xe0>)
		if(firmwareFtype == AVP_FTYPE_ERR){
 8004270:	2805      	cmp	r0, #5
		firmwareFtype = get_ftype(_param->path);
 8004272:	7010      	strb	r0, [r2, #0]
		if(firmwareFtype == AVP_FTYPE_ERR){
 8004274:	d101      	bne.n	800427a <Init_Session+0x96>
			FAIL(AVP_ERR_INIT, AVP_ERR_INVALID_FTYPE);
 8004276:	4b1b      	ldr	r3, [pc, #108]	; (80042e4 <Init_Session+0x100>)
 8004278:	e7ba      	b.n	80041f0 <Init_Session+0xc>
		SD_SetFunc(firmwareFtype);
 800427a:	f000 f933 	bl	80044e4 <SD_SetFunc>
		if(AVP_ERROR) return;
 800427e:	4b12      	ldr	r3, [pc, #72]	; (80042c8 <Init_Session+0xe4>)
 8004280:	781b      	ldrb	r3, [r3, #0]
 8004282:	b963      	cbnz	r3, 800429e <Init_Session+0xba>
		FRESULT res = f_open(&firmwareFile, _param->path, FA_READ);
 8004284:	2201      	movs	r2, #1
 8004286:	4628      	mov	r0, r5
 8004288:	6821      	ldr	r1, [r4, #0]
 800428a:	f7ff fbb5 	bl	80039f8 <f_open>
		if(res!= FR_OK){
 800428e:	2800      	cmp	r0, #0
 8004290:	d0cb      	beq.n	800422a <Init_Session+0x46>
			FAIL(AVP_ERR_SD, AVP_SD_ERRORS[res - 1]);
 8004292:	4b15      	ldr	r3, [pc, #84]	; (80042e8 <Init_Session+0x104>)
 8004294:	3801      	subs	r0, #1
 8004296:	f853 1020 	ldr.w	r1, [r3, r0, lsl #2]
 800429a:	4b14      	ldr	r3, [pc, #80]	; (80042ec <Init_Session+0x108>)
 800429c:	e7aa      	b.n	80041f4 <Init_Session+0x10>
}
 800429e:	bd70      	pop	{r4, r5, r6, pc}
 80042a0:	20000f48 	.word	0x20000f48
 80042a4:	08005fd0 	.word	0x08005fd0
 80042a8:	08005fc8 	.word	0x08005fc8
 80042ac:	08005fd4 	.word	0x08005fd4
 80042b0:	2000016c 	.word	0x2000016c
 80042b4:	08005fc4 	.word	0x08005fc4
 80042b8:	20000f38 	.word	0x20000f38
 80042bc:	08005fdc 	.word	0x08005fdc
 80042c0:	20000f4c 	.word	0x20000f4c
 80042c4:	20000f44 	.word	0x20000f44
 80042c8:	20000168 	.word	0x20000168
 80042cc:	20000f50 	.word	0x20000f50
 80042d0:	20000f3c 	.word	0x20000f3c
 80042d4:	20000f54 	.word	0x20000f54
 80042d8:	08005d9b 	.word	0x08005d9b
 80042dc:	08005dad 	.word	0x08005dad
 80042e0:	08005fd8 	.word	0x08005fd8
 80042e4:	08005fcc 	.word	0x08005fcc
 80042e8:	08005ff0 	.word	0x08005ff0
 80042ec:	08005fe4 	.word	0x08005fe4

080042f0 <AVP_Execute>:

void AVP_Execute(avp_action action, avp_param_t *_param){
 80042f0:	b570      	push	{r4, r5, r6, lr}

	curAction = action;
 80042f2:	4d22      	ldr	r5, [pc, #136]	; (800437c <AVP_Execute+0x8c>)
	Init_Session(_param);
	if(AVP_ERROR) {
 80042f4:	4e22      	ldr	r6, [pc, #136]	; (8004380 <AVP_Execute+0x90>)
	curAction = action;
 80042f6:	7028      	strb	r0, [r5, #0]
	Init_Session(_param);
 80042f8:	4608      	mov	r0, r1
 80042fa:	f7ff ff73 	bl	80041e4 <Init_Session>
	if(AVP_ERROR) {
 80042fe:	7833      	ldrb	r3, [r6, #0]
 8004300:	b133      	cbz	r3, 8004310 <AVP_Execute+0x20>
		DEBUG_PRINTF("INIT SESSION: ERR");
 8004302:	4820      	ldr	r0, [pc, #128]	; (8004384 <AVP_Execute+0x94>)
 8004304:	f7fb ff28 	bl	8000158 <myprintf>
		}
	}
	// Выключаем режим программирования
	curDrv->prog_deinit();
	Close_Session();
}
 8004308:	e8bd 4070 	ldmia.w	sp!, {r4, r5, r6, lr}
	Close_Session();
 800430c:	f7ff bf46 	b.w	800419c <Close_Session>
	curDrv->prog_init();
 8004310:	4c1d      	ldr	r4, [pc, #116]	; (8004388 <AVP_Execute+0x98>)
 8004312:	6823      	ldr	r3, [r4, #0]
 8004314:	685b      	ldr	r3, [r3, #4]
 8004316:	4798      	blx	r3
	if(!AVP_ERROR){
 8004318:	7833      	ldrb	r3, [r6, #0]
 800431a:	b97b      	cbnz	r3, 800433c <AVP_Execute+0x4c>
		switch(curAction){
 800431c:	782a      	ldrb	r2, [r5, #0]
 800431e:	6823      	ldr	r3, [r4, #0]
 8004320:	2a0f      	cmp	r2, #15
 8004322:	d80b      	bhi.n	800433c <AVP_Execute+0x4c>
 8004324:	e8df f002 	tbb	[pc, r2]
 8004328:	12100e08 	.word	0x12100e08
 800432c:	18181614 	.word	0x18181614
 8004330:	201e1c1a 	.word	0x201e1c1a
 8004334:	28262422 	.word	0x28262422
		case ACT_FL_WRITE:	 curDrv->fl_Write();   break;
 8004338:	68db      	ldr	r3, [r3, #12]
		case ACT_CFG_VERIFY: curDrv->cfg_Verify(); break;
 800433a:	4798      	blx	r3
	curDrv->prog_deinit();
 800433c:	6823      	ldr	r3, [r4, #0]
 800433e:	689b      	ldr	r3, [r3, #8]
 8004340:	4798      	blx	r3
 8004342:	e7e1      	b.n	8004308 <AVP_Execute+0x18>
		case ACT_FL_READ:  	 curDrv->fl_Read();    break;
 8004344:	691b      	ldr	r3, [r3, #16]
 8004346:	e7f8      	b.n	800433a <AVP_Execute+0x4a>
		case ACT_FL_VERIFY:  curDrv->fl_Verify();  break;
 8004348:	695b      	ldr	r3, [r3, #20]
 800434a:	e7f6      	b.n	800433a <AVP_Execute+0x4a>
		case ACT_EE_WRITE:   curDrv->ee_Write();   break;
 800434c:	699b      	ldr	r3, [r3, #24]
 800434e:	e7f4      	b.n	800433a <AVP_Execute+0x4a>
		case ACT_EE_READ:    curDrv->ee_Read();    break;
 8004350:	69db      	ldr	r3, [r3, #28]
 8004352:	e7f2      	b.n	800433a <AVP_Execute+0x4a>
		case ACT_EE_VERIFY:  curDrv->ee_Verify();  break;
 8004354:	6a1b      	ldr	r3, [r3, #32]
 8004356:	e7f0      	b.n	800433a <AVP_Execute+0x4a>
		case ACT_FB_DEFAULT: curDrv->fb_Write();   break;
 8004358:	6a5b      	ldr	r3, [r3, #36]	; 0x24
 800435a:	e7ee      	b.n	800433a <AVP_Execute+0x4a>
		case ACT_FB_READ:    curDrv->fb_Read();    break;
 800435c:	6a9b      	ldr	r3, [r3, #40]	; 0x28
 800435e:	e7ec      	b.n	800433a <AVP_Execute+0x4a>
		case ACT_FB_VERIFY:  curDrv->fb_Verify();  break;
 8004360:	6adb      	ldr	r3, [r3, #44]	; 0x2c
 8004362:	e7ea      	b.n	800433a <AVP_Execute+0x4a>
		case ACT_LB_WRITE:   curDrv->lb_Write();   break;
 8004364:	6b1b      	ldr	r3, [r3, #48]	; 0x30
 8004366:	e7e8      	b.n	800433a <AVP_Execute+0x4a>
		case ACT_LB_READ:    curDrv->lb_Read();    break;
 8004368:	6b5b      	ldr	r3, [r3, #52]	; 0x34
 800436a:	e7e6      	b.n	800433a <AVP_Execute+0x4a>
		case ACT_LB_VERIFY:  curDrv->lb_Verify();  break;
 800436c:	6b9b      	ldr	r3, [r3, #56]	; 0x38
 800436e:	e7e4      	b.n	800433a <AVP_Execute+0x4a>
		case ACT_CFG_WRITE:  curDrv->cfg_Write();  break;
 8004370:	6bdb      	ldr	r3, [r3, #60]	; 0x3c
 8004372:	e7e2      	b.n	800433a <AVP_Execute+0x4a>
		case ACT_CFG_READ:   curDrv->cfg_Read();   break;
 8004374:	6c1b      	ldr	r3, [r3, #64]	; 0x40
 8004376:	e7e0      	b.n	800433a <AVP_Execute+0x4a>
		case ACT_CFG_VERIFY: curDrv->cfg_Verify(); break;
 8004378:	6c5b      	ldr	r3, [r3, #68]	; 0x44
 800437a:	e7de      	b.n	800433a <AVP_Execute+0x4a>
 800437c:	20000f4c 	.word	0x20000f4c
 8004380:	20000168 	.word	0x20000168
 8004384:	08005de2 	.word	0x08005de2
 8004388:	20000f38 	.word	0x20000f38

0800438c <AVP_Set_SPI>:

void AVP_Set_SPI(avp_spi_conf *conf){
	curDrv = &spi_driver;
 800438c:	4b02      	ldr	r3, [pc, #8]	; (8004398 <AVP_Set_SPI+0xc>)
 800438e:	4a03      	ldr	r2, [pc, #12]	; (800439c <AVP_Set_SPI+0x10>)
 8004390:	601a      	str	r2, [r3, #0]
	spiConf = conf;
 8004392:	4b03      	ldr	r3, [pc, #12]	; (80043a0 <AVP_Set_SPI+0x14>)
 8004394:	6018      	str	r0, [r3, #0]
}
 8004396:	4770      	bx	lr
 8004398:	20000f38 	.word	0x20000f38
 800439c:	2000002c 	.word	0x2000002c
 80043a0:	20000000 	.word	0x20000000

080043a4 <FAIL>:
avp_ftype firmwareFtype;

uint8_t flash_buf[MAX_PAGE_SIZE_BYTES];
uint32_t f_page_size_b;

void FAIL(const char* error_type, const char* fmt, ...){
 80043a4:	b40e      	push	{r1, r2, r3}
 80043a6:	b503      	push	{r0, r1, lr}
	errType = error_type;
 80043a8:	4908      	ldr	r1, [pc, #32]	; (80043cc <FAIL+0x28>)
void FAIL(const char* error_type, const char* fmt, ...){
 80043aa:	ab03      	add	r3, sp, #12
 80043ac:	f853 2b04 	ldr.w	r2, [r3], #4
	errType = error_type;
 80043b0:	6008      	str	r0, [r1, #0]
	va_list args;
	va_start(args, fmt);
	vsnprintf(errMessage, sizeof(errMessage), fmt, args);
 80043b2:	2140      	movs	r1, #64	; 0x40
 80043b4:	4806      	ldr	r0, [pc, #24]	; (80043d0 <FAIL+0x2c>)
	va_start(args, fmt);
 80043b6:	9301      	str	r3, [sp, #4]
	vsnprintf(errMessage, sizeof(errMessage), fmt, args);
 80043b8:	f000 fd7c 	bl	8004eb4 <vsniprintf>
	va_end(args);

	AVP_ERROR = 1; // ОЩИБКААААА
 80043bc:	2201      	movs	r2, #1
 80043be:	4b05      	ldr	r3, [pc, #20]	; (80043d4 <FAIL+0x30>)
 80043c0:	701a      	strb	r2, [r3, #0]
}
 80043c2:	b002      	add	sp, #8
 80043c4:	f85d eb04 	ldr.w	lr, [sp], #4
 80043c8:	b003      	add	sp, #12
 80043ca:	4770      	bx	lr
 80043cc:	20000f94 	.word	0x20000f94
 80043d0:	20000f54 	.word	0x20000f54
 80043d4:	20000168 	.word	0x20000168

080043d8 <SD_GetFlHex>:
			flash_buf[i] = 0xFF;
		}
	}
	return 1;
}
bool SD_GetFlHex(){}
 80043d8:	4770      	bx	lr
	...

080043dc <SD_GetFlBin>:
bool SD_GetFlBin(){
 80043dc:	b538      	push	{r3, r4, r5, lr}
	res = f_read(&firmwareFile, flash_buf, f_page_size_b, &br); // TODO
 80043de:	4d12      	ldr	r5, [pc, #72]	; (8004428 <SD_GetFlBin+0x4c>)
 80043e0:	4c12      	ldr	r4, [pc, #72]	; (800442c <SD_GetFlBin+0x50>)
 80043e2:	462b      	mov	r3, r5
 80043e4:	6822      	ldr	r2, [r4, #0]
 80043e6:	4912      	ldr	r1, [pc, #72]	; (8004430 <SD_GetFlBin+0x54>)
 80043e8:	4812      	ldr	r0, [pc, #72]	; (8004434 <SD_GetFlBin+0x58>)
 80043ea:	f7ff fbc9 	bl	8003b80 <f_read>
 80043ee:	4b12      	ldr	r3, [pc, #72]	; (8004438 <SD_GetFlBin+0x5c>)
 80043f0:	7018      	strb	r0, [r3, #0]
	if(res != FR_OK) {
 80043f2:	b148      	cbz	r0, 8004408 <SD_GetFlBin+0x2c>
		FAIL(AVP_ERR_SD, AVP_SD_ERRORS[res - 1]);
 80043f4:	4b11      	ldr	r3, [pc, #68]	; (800443c <SD_GetFlBin+0x60>)
 80043f6:	3801      	subs	r0, #1
 80043f8:	f853 1020 	ldr.w	r1, [r3, r0, lsl #2]
 80043fc:	4b10      	ldr	r3, [pc, #64]	; (8004440 <SD_GetFlBin+0x64>)
 80043fe:	6818      	ldr	r0, [r3, #0]
 8004400:	f7ff ffd0 	bl	80043a4 <FAIL>
		return 0;
 8004404:	2000      	movs	r0, #0
}
 8004406:	bd38      	pop	{r3, r4, r5, pc}
	if(br != f_page_size_b){
 8004408:	6828      	ldr	r0, [r5, #0]
 800440a:	6823      	ldr	r3, [r4, #0]
 800440c:	4298      	cmp	r0, r3
 800440e:	d101      	bne.n	8004414 <SD_GetFlBin+0x38>
	return 1;
 8004410:	2001      	movs	r0, #1
 8004412:	e7f8      	b.n	8004406 <SD_GetFlBin+0x2a>
		if(br == 0) return 0;
 8004414:	2800      	cmp	r0, #0
 8004416:	d0f6      	beq.n	8004406 <SD_GetFlBin+0x2a>
			flash_buf[i] = 0xFF;
 8004418:	21ff      	movs	r1, #255	; 0xff
 800441a:	4a05      	ldr	r2, [pc, #20]	; (8004430 <SD_GetFlBin+0x54>)
		for (UINT i = br; i < f_page_size_b; i++){
 800441c:	4283      	cmp	r3, r0
 800441e:	d9f7      	bls.n	8004410 <SD_GetFlBin+0x34>
			flash_buf[i] = 0xFF;
 8004420:	5481      	strb	r1, [r0, r2]
		for (UINT i = br; i < f_page_size_b; i++){
 8004422:	3001      	adds	r0, #1
 8004424:	e7fa      	b.n	800441c <SD_GetFlBin+0x40>
 8004426:	bf00      	nop
 8004428:	20001198 	.word	0x20001198
 800442c:	20000f3c 	.word	0x20000f3c
 8004430:	20000f98 	.word	0x20000f98
 8004434:	2000016c 	.word	0x2000016c
 8004438:	2000119c 	.word	0x2000119c
 800443c:	08005ff0 	.word	0x08005ff0
 8004440:	08005fe4 	.word	0x08005fe4

08004444 <SD_SetCfg>:
 8004444:	2000      	movs	r0, #0
 8004446:	4770      	bx	lr

08004448 <SD_GetEeBin>:
 8004448:	2000      	movs	r0, #0
 800444a:	4770      	bx	lr

0800444c <SD_GetEeHex>:
 800444c:	2000      	movs	r0, #0
 800444e:	4770      	bx	lr

08004450 <SD_GetFbTxt>:
 8004450:	2000      	movs	r0, #0
 8004452:	4770      	bx	lr

08004454 <SD_GetFbBin>:
 8004454:	2000      	movs	r0, #0
 8004456:	4770      	bx	lr

08004458 <SD_GetFbDef>:
 8004458:	2000      	movs	r0, #0
 800445a:	4770      	bx	lr

0800445c <SD_GetLbTxt>:
 800445c:	2000      	movs	r0, #0
 800445e:	4770      	bx	lr

08004460 <SD_GetLbBin>:
 8004460:	2000      	movs	r0, #0
 8004462:	4770      	bx	lr

08004464 <SD_GetCfg>:
 8004464:	2000      	movs	r0, #0
 8004466:	4770      	bx	lr

08004468 <SD_SetFlBin>:
 8004468:	2000      	movs	r0, #0
 800446a:	4770      	bx	lr

0800446c <SD_SetFlHex>:
 800446c:	2000      	movs	r0, #0
 800446e:	4770      	bx	lr

08004470 <SD_SetEeBin>:
 8004470:	2000      	movs	r0, #0
 8004472:	4770      	bx	lr

08004474 <SD_SetEeHex>:
 8004474:	2000      	movs	r0, #0
 8004476:	4770      	bx	lr

08004478 <SD_SetFbTxt>:
 8004478:	2000      	movs	r0, #0
 800447a:	4770      	bx	lr

0800447c <SD_SetFbBin>:
 800447c:	2000      	movs	r0, #0
 800447e:	4770      	bx	lr

08004480 <SD_SetLbTxt>:
 8004480:	2000      	movs	r0, #0
 8004482:	4770      	bx	lr

08004484 <SD_SetLbBin>:
 8004484:	2000      	movs	r0, #0
 8004486:	4770      	bx	lr

08004488 <get_ftype>:

bool SD_SetCfg(){}



avp_ftype get_ftype(char *fpath){
 8004488:	b538      	push	{r3, r4, r5, lr}
	 char *dot = strrchr(fpath, '.');
 800448a:	212e      	movs	r1, #46	; 0x2e
avp_ftype get_ftype(char *fpath){
 800448c:	4605      	mov	r5, r0
	 char *dot = strrchr(fpath, '.');
 800448e:	f000 fcd1 	bl	8004e34 <strrchr>
	 if(!dot || dot == fpath) {
 8004492:	4604      	mov	r4, r0
 8004494:	b1c0      	cbz	r0, 80044c8 <get_ftype+0x40>
 8004496:	4285      	cmp	r5, r0
 8004498:	d016      	beq.n	80044c8 <get_ftype+0x40>
	         return AVP_FTYPE_ERR;
	     }
	 if(strcasecmp(dot, ".bin") == 0){
 800449a:	490e      	ldr	r1, [pc, #56]	; (80044d4 <get_ftype+0x4c>)
 800449c:	f000 fcae 	bl	8004dfc <strcasecmp>
 80044a0:	b188      	cbz	r0, 80044c6 <get_ftype+0x3e>
		 return AVP_FTYPE_BIN;
	 }
	 else if(strcasecmp(dot, ".hex") == 0){
 80044a2:	4620      	mov	r0, r4
 80044a4:	490c      	ldr	r1, [pc, #48]	; (80044d8 <get_ftype+0x50>)
 80044a6:	f000 fca9 	bl	8004dfc <strcasecmp>
 80044aa:	b178      	cbz	r0, 80044cc <get_ftype+0x44>
		 return AVP_FTYPE_HEX;
	 }
	 else if(strcasecmp(dot, ".txt") == 0){
 80044ac:	4620      	mov	r0, r4
 80044ae:	490b      	ldr	r1, [pc, #44]	; (80044dc <get_ftype+0x54>)
 80044b0:	f000 fca4 	bl	8004dfc <strcasecmp>
 80044b4:	b160      	cbz	r0, 80044d0 <get_ftype+0x48>
		 return AVP_FTYPE_TXT;
	 }
	 else if(strcasecmp(dot, ".cfg") == 0){
 80044b6:	4620      	mov	r0, r4
 80044b8:	4909      	ldr	r1, [pc, #36]	; (80044e0 <get_ftype+0x58>)
 80044ba:	f000 fc9f 	bl	8004dfc <strcasecmp>
 80044be:	2800      	cmp	r0, #0
		 return AVP_FTYPE_CFG;
 80044c0:	bf14      	ite	ne
 80044c2:	2005      	movne	r0, #5
 80044c4:	2003      	moveq	r0, #3
	 }
	 else{
		 return AVP_FTYPE_ERR;
	 }
}
 80044c6:	bd38      	pop	{r3, r4, r5, pc}
		 return AVP_FTYPE_ERR;
 80044c8:	2005      	movs	r0, #5
 80044ca:	e7fc      	b.n	80044c6 <get_ftype+0x3e>
		 return AVP_FTYPE_HEX;
 80044cc:	2001      	movs	r0, #1
 80044ce:	e7fa      	b.n	80044c6 <get_ftype+0x3e>
		 return AVP_FTYPE_TXT;
 80044d0:	2002      	movs	r0, #2
 80044d2:	e7f8      	b.n	80044c6 <get_ftype+0x3e>
 80044d4:	0800603c 	.word	0x0800603c
 80044d8:	08006041 	.word	0x08006041
 80044dc:	08006046 	.word	0x08006046
 80044e0:	0800604b 	.word	0x0800604b

080044e4 <SD_SetFunc>:

void SD_SetFunc(avp_ftype ftype){
	SD_transferFunc = NULL;
 80044e4:	2200      	movs	r2, #0
 80044e6:	4b2f      	ldr	r3, [pc, #188]	; (80045a4 <SD_SetFunc+0xc0>)
 80044e8:	601a      	str	r2, [r3, #0]

	 switch(curAction){
 80044ea:	4a2f      	ldr	r2, [pc, #188]	; (80045a8 <SD_SetFunc+0xc4>)
 80044ec:	7812      	ldrb	r2, [r2, #0]
 80044ee:	2a0f      	cmp	r2, #15
 80044f0:	d80c      	bhi.n	800450c <SD_SetFunc+0x28>
 80044f2:	e8df f002 	tbb	[pc, r2]
 80044f6:	1808      	.short	0x1808
 80044f8:	1f261f08 	.word	0x1f261f08
 80044fc:	2d38342d 	.word	0x2d38342d
 8004500:	4d3f463f 	.word	0x4d3f463f
 8004504:	4d51      	.short	0x4d51
	 // FLASH
	 case ACT_FL_WRITE:
	 case ACT_FL_VERIFY:
	 	if(ftype == AVP_FTYPE_BIN) SD_transferFunc = SD_GetFlBin;
 8004506:	b950      	cbnz	r0, 800451e <SD_SetFunc+0x3a>
 8004508:	4a28      	ldr	r2, [pc, #160]	; (80045ac <SD_SetFunc+0xc8>)
	 case ACT_CFG_VERIFY:
	 	if(ftype == AVP_FTYPE_CFG) SD_transferFunc = SD_GetCfg;
	 	break;

	 case ACT_CFG_READ:
	 	if(ftype == AVP_FTYPE_CFG) SD_transferFunc = SD_SetCfg;
 800450a:	601a      	str	r2, [r3, #0]
	 	break;
	 }

	if(SD_transferFunc == NULL) FAIL(AVP_ERR_INIT, AVP_ERR_INVALID_FTYPE);
 800450c:	681b      	ldr	r3, [r3, #0]
 800450e:	2b00      	cmp	r3, #0
 8004510:	d146      	bne.n	80045a0 <SD_SetFunc+0xbc>
 8004512:	4b27      	ldr	r3, [pc, #156]	; (80045b0 <SD_SetFunc+0xcc>)
 8004514:	6819      	ldr	r1, [r3, #0]
 8004516:	4b27      	ldr	r3, [pc, #156]	; (80045b4 <SD_SetFunc+0xd0>)
 8004518:	6818      	ldr	r0, [r3, #0]
 800451a:	f7ff bf43 	b.w	80043a4 <FAIL>
	 	else if(ftype == AVP_FTYPE_HEX) SD_transferFunc = SD_GetFlHex;
 800451e:	2801      	cmp	r0, #1
 8004520:	d1f4      	bne.n	800450c <SD_SetFunc+0x28>
 8004522:	4a25      	ldr	r2, [pc, #148]	; (80045b8 <SD_SetFunc+0xd4>)
 8004524:	e7f1      	b.n	800450a <SD_SetFunc+0x26>
	 	if(ftype == AVP_FTYPE_BIN) SD_transferFunc = SD_SetFlBin;
 8004526:	b908      	cbnz	r0, 800452c <SD_SetFunc+0x48>
 8004528:	4a24      	ldr	r2, [pc, #144]	; (80045bc <SD_SetFunc+0xd8>)
 800452a:	e7ee      	b.n	800450a <SD_SetFunc+0x26>
	 	else if(ftype == AVP_FTYPE_HEX) SD_transferFunc = SD_SetFlHex;
 800452c:	2801      	cmp	r0, #1
 800452e:	d1ed      	bne.n	800450c <SD_SetFunc+0x28>
 8004530:	4a23      	ldr	r2, [pc, #140]	; (80045c0 <SD_SetFunc+0xdc>)
 8004532:	e7ea      	b.n	800450a <SD_SetFunc+0x26>
	 	if(ftype == AVP_FTYPE_BIN) SD_transferFunc = SD_GetEeBin;
 8004534:	b908      	cbnz	r0, 800453a <SD_SetFunc+0x56>
 8004536:	4a23      	ldr	r2, [pc, #140]	; (80045c4 <SD_SetFunc+0xe0>)
 8004538:	e7e7      	b.n	800450a <SD_SetFunc+0x26>
	 	else if(ftype == AVP_FTYPE_HEX) SD_transferFunc = SD_GetEeHex;
 800453a:	2801      	cmp	r0, #1
 800453c:	d1e6      	bne.n	800450c <SD_SetFunc+0x28>
 800453e:	4a22      	ldr	r2, [pc, #136]	; (80045c8 <SD_SetFunc+0xe4>)
 8004540:	e7e3      	b.n	800450a <SD_SetFunc+0x26>
	 	if(ftype == AVP_FTYPE_BIN) SD_transferFunc = SD_SetEeBin;
 8004542:	b908      	cbnz	r0, 8004548 <SD_SetFunc+0x64>
 8004544:	4a21      	ldr	r2, [pc, #132]	; (80045cc <SD_SetFunc+0xe8>)
 8004546:	e7e0      	b.n	800450a <SD_SetFunc+0x26>
	 	else if(ftype == AVP_FTYPE_HEX) SD_transferFunc = SD_SetEeHex;
 8004548:	2801      	cmp	r0, #1
 800454a:	d1df      	bne.n	800450c <SD_SetFunc+0x28>
 800454c:	4a20      	ldr	r2, [pc, #128]	; (80045d0 <SD_SetFunc+0xec>)
 800454e:	e7dc      	b.n	800450a <SD_SetFunc+0x26>
	 	if(ftype == AVP_FTYPE_BIN) SD_transferFunc = SD_GetFbBin;
 8004550:	b908      	cbnz	r0, 8004556 <SD_SetFunc+0x72>
 8004552:	4a20      	ldr	r2, [pc, #128]	; (80045d4 <SD_SetFunc+0xf0>)
 8004554:	e7d9      	b.n	800450a <SD_SetFunc+0x26>
	 	else if(ftype == AVP_FTYPE_TXT) SD_transferFunc = SD_GetFbTxt;
 8004556:	2802      	cmp	r0, #2
 8004558:	d1d8      	bne.n	800450c <SD_SetFunc+0x28>
 800455a:	4a1f      	ldr	r2, [pc, #124]	; (80045d8 <SD_SetFunc+0xf4>)
 800455c:	e7d5      	b.n	800450a <SD_SetFunc+0x26>
	 	if(ftype == AVP_FTYPE_DEF) SD_transferFunc = SD_GetFbDef;
 800455e:	2804      	cmp	r0, #4
 8004560:	d1d4      	bne.n	800450c <SD_SetFunc+0x28>
 8004562:	4a1e      	ldr	r2, [pc, #120]	; (80045dc <SD_SetFunc+0xf8>)
 8004564:	e7d1      	b.n	800450a <SD_SetFunc+0x26>
	 	if(ftype == AVP_FTYPE_BIN) SD_transferFunc = SD_SetFbBin;
 8004566:	b908      	cbnz	r0, 800456c <SD_SetFunc+0x88>
 8004568:	4a1d      	ldr	r2, [pc, #116]	; (80045e0 <SD_SetFunc+0xfc>)
 800456a:	e7ce      	b.n	800450a <SD_SetFunc+0x26>
	 	else if(ftype == AVP_FTYPE_TXT) SD_transferFunc = SD_SetFbTxt;
 800456c:	2802      	cmp	r0, #2
 800456e:	d1cd      	bne.n	800450c <SD_SetFunc+0x28>
 8004570:	4a1c      	ldr	r2, [pc, #112]	; (80045e4 <SD_SetFunc+0x100>)
 8004572:	e7ca      	b.n	800450a <SD_SetFunc+0x26>
	 	if(ftype == AVP_FTYPE_BIN) SD_transferFunc = SD_GetLbBin;
 8004574:	b908      	cbnz	r0, 800457a <SD_SetFunc+0x96>
 8004576:	4a1c      	ldr	r2, [pc, #112]	; (80045e8 <SD_SetFunc+0x104>)
 8004578:	e7c7      	b.n	800450a <SD_SetFunc+0x26>
	 	else if(ftype == AVP_FTYPE_TXT) SD_transferFunc = SD_GetLbTxt;
 800457a:	2802      	cmp	r0, #2
 800457c:	d1c6      	bne.n	800450c <SD_SetFunc+0x28>
 800457e:	4a1b      	ldr	r2, [pc, #108]	; (80045ec <SD_SetFunc+0x108>)
 8004580:	e7c3      	b.n	800450a <SD_SetFunc+0x26>
	 	if(ftype == AVP_FTYPE_BIN) SD_transferFunc = SD_SetLbBin;
 8004582:	b908      	cbnz	r0, 8004588 <SD_SetFunc+0xa4>
 8004584:	4a1a      	ldr	r2, [pc, #104]	; (80045f0 <SD_SetFunc+0x10c>)
 8004586:	e7c0      	b.n	800450a <SD_SetFunc+0x26>
	 	else if(ftype == AVP_FTYPE_TXT) SD_transferFunc = SD_SetLbTxt;
 8004588:	2802      	cmp	r0, #2
 800458a:	d1bf      	bne.n	800450c <SD_SetFunc+0x28>
 800458c:	4a19      	ldr	r2, [pc, #100]	; (80045f4 <SD_SetFunc+0x110>)
 800458e:	e7bc      	b.n	800450a <SD_SetFunc+0x26>
	 	if(ftype == AVP_FTYPE_CFG) SD_transferFunc = SD_GetCfg;
 8004590:	2803      	cmp	r0, #3
 8004592:	d1bb      	bne.n	800450c <SD_SetFunc+0x28>
 8004594:	4a18      	ldr	r2, [pc, #96]	; (80045f8 <SD_SetFunc+0x114>)
 8004596:	e7b8      	b.n	800450a <SD_SetFunc+0x26>
	 	if(ftype == AVP_FTYPE_CFG) SD_transferFunc = SD_SetCfg;
 8004598:	2803      	cmp	r0, #3
 800459a:	d1b7      	bne.n	800450c <SD_SetFunc+0x28>
 800459c:	4a17      	ldr	r2, [pc, #92]	; (80045fc <SD_SetFunc+0x118>)
 800459e:	e7b4      	b.n	800450a <SD_SetFunc+0x26>
}
 80045a0:	4770      	bx	lr
 80045a2:	bf00      	nop
 80045a4:	200011a0 	.word	0x200011a0
 80045a8:	20000f4c 	.word	0x20000f4c
 80045ac:	080043dd 	.word	0x080043dd
 80045b0:	08005fcc 	.word	0x08005fcc
 80045b4:	08005fc8 	.word	0x08005fc8
 80045b8:	080043d9 	.word	0x080043d9
 80045bc:	08004469 	.word	0x08004469
 80045c0:	0800446d 	.word	0x0800446d
 80045c4:	08004449 	.word	0x08004449
 80045c8:	0800444d 	.word	0x0800444d
 80045cc:	08004471 	.word	0x08004471
 80045d0:	08004475 	.word	0x08004475
 80045d4:	08004455 	.word	0x08004455
 80045d8:	08004451 	.word	0x08004451
 80045dc:	08004459 	.word	0x08004459
 80045e0:	0800447d 	.word	0x0800447d
 80045e4:	08004479 	.word	0x08004479
 80045e8:	08004461 	.word	0x08004461
 80045ec:	0800445d 	.word	0x0800445d
 80045f0:	08004485 	.word	0x08004485
 80045f4:	08004481 	.word	0x08004481
 80045f8:	08004465 	.word	0x08004465
 80045fc:	08004445 	.word	0x08004445

08004600 <spi_enable>:
#define LOCK_PARAM 0xE0
#define WRITE_FUSE 0xAC
#define WRITE_FUSE_HIGH 0xA8
#define WRITE_EXT_FUSE 0xA4

void spi_enable(){
 8004600:	b530      	push	{r4, r5, lr}
	avr_prog->hspi->Init.Mode = SPI_MODE_MASTER;
 8004602:	4d28      	ldr	r5, [pc, #160]	; (80046a4 <spi_enable+0xa4>)
	avr_prog->hspi->Init.Direction = SPI_DIRECTION_2LINES;
 8004604:	2400      	movs	r4, #0
	avr_prog->hspi->Init.Mode = SPI_MODE_MASTER;
 8004606:	682b      	ldr	r3, [r5, #0]
void spi_enable(){
 8004608:	b089      	sub	sp, #36	; 0x24
	avr_prog->hspi->Init.Mode = SPI_MODE_MASTER;
 800460a:	68d8      	ldr	r0, [r3, #12]
	avr_prog->hspi->Init.Direction = SPI_DIRECTION_2LINES;
 800460c:	f44f 7382 	mov.w	r3, #260	; 0x104
 8004610:	e9c0 3401 	strd	r3, r4, [r0, #4]
	avr_prog->hspi->Init.DataSize = SPI_DATASIZE_8BIT;
	avr_prog->hspi->Init.CLKPolarity = SPI_POLARITY_LOW;
	avr_prog->hspi->Init.CLKPhase = SPI_PHASE_1EDGE;
	avr_prog->hspi->Init.NSS = SPI_NSS_SOFT;
 8004614:	f44f 7300 	mov.w	r3, #512	; 0x200
 8004618:	6183      	str	r3, [r0, #24]
	avr_prog->hspi->Init.BaudRatePrescaler = spiConf->sck_div;
 800461a:	4b23      	ldr	r3, [pc, #140]	; (80046a8 <spi_enable+0xa8>)
	avr_prog->hspi->Init.CLKPolarity = SPI_POLARITY_LOW;
 800461c:	e9c0 4403 	strd	r4, r4, [r0, #12]
	avr_prog->hspi->Init.BaudRatePrescaler = spiConf->sck_div;
 8004620:	681b      	ldr	r3, [r3, #0]
	avr_prog->hspi->Init.CLKPhase = SPI_PHASE_1EDGE;
 8004622:	6144      	str	r4, [r0, #20]
	avr_prog->hspi->Init.BaudRatePrescaler = spiConf->sck_div;
 8004624:	685b      	ldr	r3, [r3, #4]
	avr_prog->hspi->Init.FirstBit = SPI_FIRSTBIT_MSB;
	avr_prog->hspi->Init.TIMode = SPI_TIMODE_DISABLE;
	avr_prog->hspi->Init.CRCCalculation = SPI_CRCCALCULATION_DISABLE;
 8004626:	e9c0 4409 	strd	r4, r4, [r0, #36]	; 0x24
	avr_prog->hspi->Init.FirstBit = SPI_FIRSTBIT_MSB;
 800462a:	e9c0 3407 	strd	r3, r4, [r0, #28]
	avr_prog->hspi->Init.CRCPolynomial = 10;
 800462e:	230a      	movs	r3, #10
 8004630:	62c3      	str	r3, [r0, #44]	; 0x2c

	HAL_SPI_Init(avr_prog->hspi);
 8004632:	f7fd f841 	bl	80016b8 <HAL_SPI_Init>

	GPIO_InitTypeDef GPIO_InitStruct = {0};
 8004636:	2210      	movs	r2, #16
 8004638:	4621      	mov	r1, r4
 800463a:	eb0d 0002 	add.w	r0, sp, r2
 800463e:	f000 fbd5 	bl	8004dec <memset>

	__HAL_RCC_GPIOD_CLK_ENABLE();
 8004642:	4b1a      	ldr	r3, [pc, #104]	; (80046ac <spi_enable+0xac>)
 8004644:	699a      	ldr	r2, [r3, #24]
 8004646:	f042 0220 	orr.w	r2, r2, #32
 800464a:	619a      	str	r2, [r3, #24]
 800464c:	699a      	ldr	r2, [r3, #24]
 800464e:	f002 0220 	and.w	r2, r2, #32
 8004652:	9201      	str	r2, [sp, #4]
 8004654:	9a01      	ldr	r2, [sp, #4]
	__HAL_RCC_GPIOA_CLK_ENABLE();
 8004656:	699a      	ldr	r2, [r3, #24]
 8004658:	f042 0204 	orr.w	r2, r2, #4
 800465c:	619a      	str	r2, [r3, #24]
 800465e:	699a      	ldr	r2, [r3, #24]
 8004660:	f002 0204 	and.w	r2, r2, #4
 8004664:	9202      	str	r2, [sp, #8]
 8004666:	9a02      	ldr	r2, [sp, #8]
	__HAL_RCC_GPIOB_CLK_ENABLE();
 8004668:	699a      	ldr	r2, [r3, #24]
 800466a:	f042 0208 	orr.w	r2, r2, #8
 800466e:	619a      	str	r2, [r3, #24]
 8004670:	699b      	ldr	r3, [r3, #24]

	HAL_GPIO_WritePin(avr_prog->CS_Port, avr_prog->CS_Pin, GPIO_PIN_SET);
 8004672:	2201      	movs	r2, #1
	__HAL_RCC_GPIOB_CLK_ENABLE();
 8004674:	f003 0308 	and.w	r3, r3, #8
 8004678:	9303      	str	r3, [sp, #12]
 800467a:	9b03      	ldr	r3, [sp, #12]
	HAL_GPIO_WritePin(avr_prog->CS_Port, avr_prog->CS_Pin, GPIO_PIN_SET);
 800467c:	682b      	ldr	r3, [r5, #0]
 800467e:	8a19      	ldrh	r1, [r3, #16]
 8004680:	6958      	ldr	r0, [r3, #20]
 8004682:	f7fc fc75 	bl	8000f70 <HAL_GPIO_WritePin>

	GPIO_InitStruct.Pin = avr_prog->CS_Pin;
 8004686:	682b      	ldr	r3, [r5, #0]
	GPIO_InitStruct.Mode = GPIO_MODE_OUTPUT_PP;
	GPIO_InitStruct.Pull = GPIO_NOPULL;
	GPIO_InitStruct.Speed = GPIO_SPEED_FREQ_HIGH;
	HAL_GPIO_Init(avr_prog->CS_Port, &GPIO_InitStruct);
 8004688:	a904      	add	r1, sp, #16
	GPIO_InitStruct.Pin = avr_prog->CS_Pin;
 800468a:	8a1a      	ldrh	r2, [r3, #16]
	HAL_GPIO_Init(avr_prog->CS_Port, &GPIO_InitStruct);
 800468c:	6958      	ldr	r0, [r3, #20]
	GPIO_InitStruct.Pin = avr_prog->CS_Pin;
 800468e:	9204      	str	r2, [sp, #16]
	GPIO_InitStruct.Mode = GPIO_MODE_OUTPUT_PP;
 8004690:	2201      	movs	r2, #1
	GPIO_InitStruct.Pull = GPIO_NOPULL;
 8004692:	e9cd 2405 	strd	r2, r4, [sp, #20]
	GPIO_InitStruct.Speed = GPIO_SPEED_FREQ_HIGH;
 8004696:	2203      	movs	r2, #3
 8004698:	9207      	str	r2, [sp, #28]
	HAL_GPIO_Init(avr_prog->CS_Port, &GPIO_InitStruct);
 800469a:	f7fc fb19 	bl	8000cd0 <HAL_GPIO_Init>

}
 800469e:	b009      	add	sp, #36	; 0x24
 80046a0:	bd30      	pop	{r4, r5, pc}
 80046a2:	bf00      	nop
 80046a4:	20000f48 	.word	0x20000f48
 80046a8:	20000000 	.word	0x20000000
 80046ac:	40021000 	.word	0x40021000

080046b0 <spi_disable>:
void spi_disable(){
 80046b0:	b510      	push	{r4, lr}
	// Отключаем SPI
	HAL_SPI_DeInit(avr_prog->hspi);
 80046b2:	4c18      	ldr	r4, [pc, #96]	; (8004714 <spi_disable+0x64>)
void spi_disable(){
 80046b4:	b088      	sub	sp, #32
	HAL_SPI_DeInit(avr_prog->hspi);
 80046b6:	6823      	ldr	r3, [r4, #0]
 80046b8:	68d8      	ldr	r0, [r3, #12]
 80046ba:	f7fd f855 	bl	8001768 <HAL_SPI_DeInit>

	// Отключаем CS
	GPIO_InitTypeDef GPIO_InitStruct = {0};
 80046be:	2100      	movs	r1, #0

	__HAL_RCC_GPIOD_CLK_ENABLE();
 80046c0:	4b15      	ldr	r3, [pc, #84]	; (8004718 <spi_disable+0x68>)
	GPIO_InitTypeDef GPIO_InitStruct = {0};
 80046c2:	9107      	str	r1, [sp, #28]
	__HAL_RCC_GPIOD_CLK_ENABLE();
 80046c4:	699a      	ldr	r2, [r3, #24]
 80046c6:	f042 0220 	orr.w	r2, r2, #32
 80046ca:	619a      	str	r2, [r3, #24]
 80046cc:	699a      	ldr	r2, [r3, #24]
 80046ce:	f002 0220 	and.w	r2, r2, #32
 80046d2:	9201      	str	r2, [sp, #4]
 80046d4:	9a01      	ldr	r2, [sp, #4]
	__HAL_RCC_GPIOA_CLK_ENABLE();
 80046d6:	699a      	ldr	r2, [r3, #24]
 80046d8:	f042 0204 	orr.w	r2, r2, #4
 80046dc:	619a      	str	r2, [r3, #24]
 80046de:	699a      	ldr	r2, [r3, #24]
 80046e0:	f002 0204 	and.w	r2, r2, #4
 80046e4:	9202      	str	r2, [sp, #8]
 80046e6:	9a02      	ldr	r2, [sp, #8]
	__HAL_RCC_GPIOB_CLK_ENABLE();
 80046e8:	699a      	ldr	r2, [r3, #24]
 80046ea:	f042 0208 	orr.w	r2, r2, #8
 80046ee:	619a      	str	r2, [r3, #24]
 80046f0:	699b      	ldr	r3, [r3, #24]
 80046f2:	f003 0308 	and.w	r3, r3, #8
 80046f6:	9303      	str	r3, [sp, #12]
 80046f8:	9b03      	ldr	r3, [sp, #12]

	GPIO_InitStruct.Pin = avr_prog->CS_Pin;
 80046fa:	6823      	ldr	r3, [r4, #0]
 80046fc:	8a1a      	ldrh	r2, [r3, #16]
	GPIO_InitStruct.Mode = GPIO_MODE_ANALOG;
	GPIO_InitStruct.Pull = GPIO_NOPULL;
	HAL_GPIO_Init(avr_prog->CS_Port, &GPIO_InitStruct);
 80046fe:	6958      	ldr	r0, [r3, #20]
	GPIO_InitStruct.Pin = avr_prog->CS_Pin;
 8004700:	9204      	str	r2, [sp, #16]
	GPIO_InitStruct.Mode = GPIO_MODE_ANALOG;
 8004702:	2203      	movs	r2, #3
	GPIO_InitStruct.Pull = GPIO_NOPULL;
 8004704:	e9cd 2105 	strd	r2, r1, [sp, #20]
	HAL_GPIO_Init(avr_prog->CS_Port, &GPIO_InitStruct);
 8004708:	a904      	add	r1, sp, #16
 800470a:	f7fc fae1 	bl	8000cd0 <HAL_GPIO_Init>
}
 800470e:	b008      	add	sp, #32
 8004710:	bd10      	pop	{r4, pc}
 8004712:	bf00      	nop
 8004714:	20000f48 	.word	0x20000f48
 8004718:	40021000 	.word	0x40021000

0800471c <spi_send_cmd>:

uint8_t spi_send_cmd(uint8_t a, uint8_t b, uint8_t c, uint8_t d){
 800471c:	b51f      	push	{r0, r1, r2, r3, r4, lr}
    uint8_t tx_buf[4] = {a, b, c, d};
 800471e:	f88d 300b 	strb.w	r3, [sp, #11]
    uint8_t rx_buf[4] = {0};
 8004722:	2300      	movs	r3, #0
 8004724:	9303      	str	r3, [sp, #12]

    HAL_SPI_TransmitReceive(avr_prog->hspi, tx_buf, rx_buf, 4, 100);
 8004726:	4b0a      	ldr	r3, [pc, #40]	; (8004750 <spi_send_cmd+0x34>)
    uint8_t tx_buf[4] = {a, b, c, d};
 8004728:	f88d 0008 	strb.w	r0, [sp, #8]
    HAL_SPI_TransmitReceive(avr_prog->hspi, tx_buf, rx_buf, 4, 100);
 800472c:	6818      	ldr	r0, [r3, #0]
 800472e:	2364      	movs	r3, #100	; 0x64
 8004730:	9300      	str	r3, [sp, #0]
    uint8_t tx_buf[4] = {a, b, c, d};
 8004732:	f88d 1009 	strb.w	r1, [sp, #9]
 8004736:	f88d 200a 	strb.w	r2, [sp, #10]
    HAL_SPI_TransmitReceive(avr_prog->hspi, tx_buf, rx_buf, 4, 100);
 800473a:	2304      	movs	r3, #4
 800473c:	aa03      	add	r2, sp, #12
 800473e:	a902      	add	r1, sp, #8
 8004740:	68c0      	ldr	r0, [r0, #12]
 8004742:	f7fd f8d8 	bl	80018f6 <HAL_SPI_TransmitReceive>
	return rx_buf[3];
}
 8004746:	f89d 000f 	ldrb.w	r0, [sp, #15]
 800474a:	b005      	add	sp, #20
 800474c:	f85d fb04 	ldr.w	pc, [sp], #4
 8004750:	20000f48 	.word	0x20000f48

08004754 <spi_send_byte>:

uint8_t spi_send_byte(uint8_t byte){
 8004754:	b57f      	push	{r0, r1, r2, r3, r4, r5, r6, lr}
	uint8_t res;
	HAL_SPI_TransmitReceive(avr_prog->hspi, &byte, &res, 1, 100);
 8004756:	4b09      	ldr	r3, [pc, #36]	; (800477c <spi_send_byte+0x28>)
uint8_t spi_send_byte(uint8_t byte){
 8004758:	f88d 000f 	strb.w	r0, [sp, #15]
	HAL_SPI_TransmitReceive(avr_prog->hspi, &byte, &res, 1, 100);
 800475c:	6818      	ldr	r0, [r3, #0]
 800475e:	2364      	movs	r3, #100	; 0x64
 8004760:	9300      	str	r3, [sp, #0]
 8004762:	f10d 0217 	add.w	r2, sp, #23
 8004766:	2301      	movs	r3, #1
 8004768:	f10d 010f 	add.w	r1, sp, #15
 800476c:	68c0      	ldr	r0, [r0, #12]
 800476e:	f7fd f8c2 	bl	80018f6 <HAL_SPI_TransmitReceive>
	return res;
}
 8004772:	f89d 0017 	ldrb.w	r0, [sp, #23]
 8004776:	b007      	add	sp, #28
 8004778:	f85d fb04 	ldr.w	pc, [sp], #4
 800477c:	20000f48 	.word	0x20000f48

08004780 <flWriteWord>:

void flWriteWord(uint8_t hilo, uint32_t word, uint8_t data){
	spi_send_cmd(WRITE_LOW_BYTE + 8 * hilo, word >> 8, word & 0xFF, data);
 8004780:	3008      	adds	r0, #8
 8004782:	00c0      	lsls	r0, r0, #3
void flWriteWord(uint8_t hilo, uint32_t word, uint8_t data){
 8004784:	4613      	mov	r3, r2
	spi_send_cmd(WRITE_LOW_BYTE + 8 * hilo, word >> 8, word & 0xFF, data);
 8004786:	f000 00f8 	and.w	r0, r0, #248	; 0xf8
 800478a:	b2ca      	uxtb	r2, r1
 800478c:	f3c1 2107 	ubfx	r1, r1, #8, #8
 8004790:	f7ff bfc4 	b.w	800471c <spi_send_cmd>

08004794 <flPageCommit>:
}
void flPageCommit(uint32_t addr){
	spi_send_cmd(COMMIT_PAGE, addr >> 8, addr & 0xFF, 0);
 8004794:	b2c2      	uxtb	r2, r0
 8004796:	f3c0 2107 	ubfx	r1, r0, #8, #8
 800479a:	2300      	movs	r3, #0
 800479c:	204c      	movs	r0, #76	; 0x4c
 800479e:	f7ff bfbd 	b.w	800471c <spi_send_cmd>

080047a2 <flReadByte>:
}

uint8_t flReadByte(uint8_t hilo, uint32_t word)
{
  return spi_send_cmd(READ_FLASH + hilo * 8, word >> 8, word & 0xFF, 0);
 80047a2:	3004      	adds	r0, #4
 80047a4:	00c0      	lsls	r0, r0, #3
 80047a6:	b2ca      	uxtb	r2, r1
 80047a8:	2300      	movs	r3, #0
 80047aa:	f3c1 2107 	ubfx	r1, r1, #8, #8
 80047ae:	f000 00f8 	and.w	r0, r0, #248	; 0xf8
 80047b2:	f7ff bfb3 	b.w	800471c <spi_send_cmd>
	...

080047b8 <enterPMode>:
}

void enterPMode(){
 80047b8:	b510      	push	{r4, lr}

	if(spiConf->sck_auto){

	}

	spi_enable();
 80047ba:	f7ff ff21 	bl	8004600 <spi_enable>
	spi_send_byte(0X00);
 80047be:	2000      	movs	r0, #0
 80047c0:	f7ff ffc8 	bl	8004754 <spi_send_byte>
	HAL_Delay(5);
 80047c4:	2005      	movs	r0, #5
 80047c6:	f7fc f919 	bl	80009fc <HAL_Delay>

	HAL_GPIO_WritePin(avr_prog->CS_Port, avr_prog->CS_Pin, GPIO_PIN_RESET);
 80047ca:	4b13      	ldr	r3, [pc, #76]	; (8004818 <enterPMode+0x60>)
 80047cc:	2200      	movs	r2, #0
 80047ce:	681b      	ldr	r3, [r3, #0]
 80047d0:	6958      	ldr	r0, [r3, #20]
 80047d2:	8a19      	ldrh	r1, [r3, #16]
 80047d4:	f7fc fbcc 	bl	8000f70 <HAL_GPIO_WritePin>
	HAL_Delay(25);
 80047d8:	2019      	movs	r0, #25
 80047da:	f7fc f90f 	bl	80009fc <HAL_Delay>


	spi_send_byte(PGM_ENABLE_1);
 80047de:	20ac      	movs	r0, #172	; 0xac
 80047e0:	f7ff ffb8 	bl	8004754 <spi_send_byte>
	spi_send_byte(PGM_ENABLE_2);
 80047e4:	2053      	movs	r0, #83	; 0x53
 80047e6:	f7ff ffb5 	bl	8004754 <spi_send_byte>
	uint8_t response = spi_send_byte(0x00);
 80047ea:	2000      	movs	r0, #0
 80047ec:	f7ff ffb2 	bl	8004754 <spi_send_byte>
 80047f0:	4604      	mov	r4, r0
	spi_send_byte(0X00);
 80047f2:	2000      	movs	r0, #0
 80047f4:	f7ff ffae 	bl	8004754 <spi_send_byte>

	if (response != 0x53)
 80047f8:	2c53      	cmp	r4, #83	; 0x53
 80047fa:	d007      	beq.n	800480c <enterPMode+0x54>
		FAIL(AVP_ERR_PROG, AVP_ERR_ENTER_PMODE);
	    return;
	  }

	DEBUG_PRINTF("ENTER_PMODE\n");
}
 80047fc:	e8bd 4010 	ldmia.w	sp!, {r4, lr}
		FAIL(AVP_ERR_PROG, AVP_ERR_ENTER_PMODE);
 8004800:	4b06      	ldr	r3, [pc, #24]	; (800481c <enterPMode+0x64>)
 8004802:	6819      	ldr	r1, [r3, #0]
 8004804:	4b06      	ldr	r3, [pc, #24]	; (8004820 <enterPMode+0x68>)
 8004806:	6818      	ldr	r0, [r3, #0]
 8004808:	f7ff bdcc 	b.w	80043a4 <FAIL>
	DEBUG_PRINTF("ENTER_PMODE\n");
 800480c:	4805      	ldr	r0, [pc, #20]	; (8004824 <enterPMode+0x6c>)
}
 800480e:	e8bd 4010 	ldmia.w	sp!, {r4, lr}
	DEBUG_PRINTF("ENTER_PMODE\n");
 8004812:	f7fb bca1 	b.w	8000158 <myprintf>
 8004816:	bf00      	nop
 8004818:	20000f48 	.word	0x20000f48
 800481c:	08005fc0 	.word	0x08005fc0
 8004820:	08005fe0 	.word	0x08005fe0
 8004824:	08006050 	.word	0x08006050

08004828 <checkSignature>:

void checkSignature(){

	uint8_t sig1 = spi_send_cmd(SIGNATURE_READ, 0x00, 0x00, 0x00);
 8004828:	2300      	movs	r3, #0
void checkSignature(){
 800482a:	e92d 41f3 	stmdb	sp!, {r0, r1, r4, r5, r6, r7, r8, lr}
	uint8_t sig1 = spi_send_cmd(SIGNATURE_READ, 0x00, 0x00, 0x00);
 800482e:	461a      	mov	r2, r3
 8004830:	4619      	mov	r1, r3
 8004832:	2030      	movs	r0, #48	; 0x30
 8004834:	f7ff ff72 	bl	800471c <spi_send_cmd>
	uint8_t sig2 = spi_send_cmd(SIGNATURE_READ, 0x00, 0x01, 0x00);
 8004838:	2300      	movs	r3, #0
	uint8_t sig1 = spi_send_cmd(SIGNATURE_READ, 0x00, 0x00, 0x00);
 800483a:	4604      	mov	r4, r0
	uint8_t sig2 = spi_send_cmd(SIGNATURE_READ, 0x00, 0x01, 0x00);
 800483c:	4619      	mov	r1, r3
 800483e:	2201      	movs	r2, #1
 8004840:	2030      	movs	r0, #48	; 0x30
 8004842:	f7ff ff6b 	bl	800471c <spi_send_cmd>
	uint8_t sig3 = spi_send_cmd(SIGNATURE_READ, 0x00, 0x02, 0x00);
 8004846:	2300      	movs	r3, #0
	uint8_t sig2 = spi_send_cmd(SIGNATURE_READ, 0x00, 0x01, 0x00);
 8004848:	4605      	mov	r5, r0
	uint8_t sig3 = spi_send_cmd(SIGNATURE_READ, 0x00, 0x02, 0x00);
 800484a:	4619      	mov	r1, r3
 800484c:	2202      	movs	r2, #2
 800484e:	2030      	movs	r0, #48	; 0x30
 8004850:	f7ff ff64 	bl	800471c <spi_send_cmd>

	if (sig1 == avp_curParam->mcu->sig[0]
 8004854:	4b13      	ldr	r3, [pc, #76]	; (80048a4 <checkSignature+0x7c>)
 8004856:	681b      	ldr	r3, [r3, #0]
 8004858:	685b      	ldr	r3, [r3, #4]
 800485a:	781e      	ldrb	r6, [r3, #0]
 800485c:	42a6      	cmp	r6, r4
 800485e:	d115      	bne.n	800488c <checkSignature+0x64>
		&& sig2 == avp_curParam->mcu->sig[1]
 8004860:	785f      	ldrb	r7, [r3, #1]
 8004862:	42af      	cmp	r7, r5
 8004864:	d112      	bne.n	800488c <checkSignature+0x64>
		&& sig3 == avp_curParam->mcu->sig[2]){
 8004866:	f893 8002 	ldrb.w	r8, [r3, #2]
 800486a:	4580      	cmp	r8, r0
 800486c:	d10e      	bne.n	800488c <checkSignature+0x64>
		DEBUG_PRINTF("CHECK SIGNATURE OK: ");
 800486e:	480e      	ldr	r0, [pc, #56]	; (80048a8 <checkSignature+0x80>)
 8004870:	f7fb fc72 	bl	8000158 <myprintf>
		DEBUG_PRINTF("0x%02X 0x%02X 0x%02X", sig1, sig2, sig3);
 8004874:	4643      	mov	r3, r8
 8004876:	463a      	mov	r2, r7
 8004878:	4631      	mov	r1, r6
 800487a:	480c      	ldr	r0, [pc, #48]	; (80048ac <checkSignature+0x84>)
 800487c:	f7fb fc6c 	bl	8000158 <myprintf>
		DEBUG_PRINTF("\n");
 8004880:	480b      	ldr	r0, [pc, #44]	; (80048b0 <checkSignature+0x88>)
		return;
	}

	FAIL(AVP_ERR_PROG, AVP_ERR_CHECK_SIG, sig1, sig2, sig3);
}
 8004882:	b002      	add	sp, #8
 8004884:	e8bd 41f0 	ldmia.w	sp!, {r4, r5, r6, r7, r8, lr}
		DEBUG_PRINTF("\n");
 8004888:	f7fb bc66 	b.w	8000158 <myprintf>
	FAIL(AVP_ERR_PROG, AVP_ERR_CHECK_SIG, sig1, sig2, sig3);
 800488c:	9000      	str	r0, [sp, #0]
 800488e:	4909      	ldr	r1, [pc, #36]	; (80048b4 <checkSignature+0x8c>)
 8004890:	4809      	ldr	r0, [pc, #36]	; (80048b8 <checkSignature+0x90>)
 8004892:	462b      	mov	r3, r5
 8004894:	4622      	mov	r2, r4
 8004896:	6809      	ldr	r1, [r1, #0]
 8004898:	6800      	ldr	r0, [r0, #0]
 800489a:	f7ff fd83 	bl	80043a4 <FAIL>
}
 800489e:	b002      	add	sp, #8
 80048a0:	e8bd 81f0 	ldmia.w	sp!, {r4, r5, r6, r7, r8, pc}
 80048a4:	20000f50 	.word	0x20000f50
 80048a8:	0800605d 	.word	0x0800605d
 80048ac:	08005e31 	.word	0x08005e31
 80048b0:	08005de0 	.word	0x08005de0
 80048b4:	08005fbc 	.word	0x08005fbc
 80048b8:	08005fe0 	.word	0x08005fe0

080048bc <chipErase>:

void chipErase(){
 80048bc:	b508      	push	{r3, lr}
	spi_send_cmd(CHIP_ERASE, ERASE_PARAM, 0x00, 0x00);
 80048be:	2300      	movs	r3, #0
 80048c0:	2180      	movs	r1, #128	; 0x80
 80048c2:	461a      	mov	r2, r3
 80048c4:	20ac      	movs	r0, #172	; 0xac
 80048c6:	f7ff ff29 	bl	800471c <spi_send_cmd>
	HAL_Delay(avp_curParam->mcu->chip_erase_delay); // Время стирания
 80048ca:	4b04      	ldr	r3, [pc, #16]	; (80048dc <chipErase+0x20>)
 80048cc:	681b      	ldr	r3, [r3, #0]
 80048ce:	685b      	ldr	r3, [r3, #4]
 80048d0:	7c58      	ldrb	r0, [r3, #17]
}
 80048d2:	e8bd 4008 	ldmia.w	sp!, {r3, lr}
	HAL_Delay(avp_curParam->mcu->chip_erase_delay); // Время стирания
 80048d6:	f7fc b891 	b.w	80009fc <HAL_Delay>
 80048da:	bf00      	nop
 80048dc:	20000f50 	.word	0x20000f50

080048e0 <spi_check_conf>:

// INIT
void spi_check_conf(){
	if(!spiConf->sck_auto
 80048e0:	4b08      	ldr	r3, [pc, #32]	; (8004904 <spi_check_conf+0x24>)
 80048e2:	681b      	ldr	r3, [r3, #0]
 80048e4:	781a      	ldrb	r2, [r3, #0]
 80048e6:	b95a      	cbnz	r2, 8004900 <spi_check_conf+0x20>
	&& !IS_SPI_BAUDRATE_PRESCALER(spiConf->sck_div)){
 80048e8:	685b      	ldr	r3, [r3, #4]
 80048ea:	f033 0318 	bics.w	r3, r3, #24
 80048ee:	d007      	beq.n	8004900 <spi_check_conf+0x20>
 80048f0:	2b20      	cmp	r3, #32
 80048f2:	d005      	beq.n	8004900 <spi_check_conf+0x20>
		FAIL(AVP_ERR_PROG, AVP_ERR_SPI_BOUDRATE);
 80048f4:	4b04      	ldr	r3, [pc, #16]	; (8004908 <spi_check_conf+0x28>)
 80048f6:	6819      	ldr	r1, [r3, #0]
 80048f8:	4b04      	ldr	r3, [pc, #16]	; (800490c <spi_check_conf+0x2c>)
 80048fa:	6818      	ldr	r0, [r3, #0]
 80048fc:	f7ff bd52 	b.w	80043a4 <FAIL>
	}
}
 8004900:	4770      	bx	lr
 8004902:	bf00      	nop
 8004904:	20000000 	.word	0x20000000
 8004908:	08005fe8 	.word	0x08005fe8
 800490c:	08005fe0 	.word	0x08005fe0

08004910 <spi_prog_init>:

void spi_prog_init(){
 8004910:	b510      	push	{r4, lr}

	enterPMode(); // Режим программирования
	if(AVP_ERROR) return;
 8004912:	4c07      	ldr	r4, [pc, #28]	; (8004930 <spi_prog_init+0x20>)
	enterPMode(); // Режим программирования
 8004914:	f7ff ff50 	bl	80047b8 <enterPMode>
	if(AVP_ERROR) return;
 8004918:	7823      	ldrb	r3, [r4, #0]
 800491a:	b943      	cbnz	r3, 800492e <spi_prog_init+0x1e>

	checkSignature(); // Проверяем сигнатуру
 800491c:	f7ff ff84 	bl	8004828 <checkSignature>
	if(AVP_ERROR) return;
 8004920:	7823      	ldrb	r3, [r4, #0]
 8004922:	b923      	cbnz	r3, 800492e <spi_prog_init+0x1e>

	DEBUG_PRINTF("PROGRAM MODE INIT\n");

}
 8004924:	e8bd 4010 	ldmia.w	sp!, {r4, lr}
	DEBUG_PRINTF("PROGRAM MODE INIT\n");
 8004928:	4802      	ldr	r0, [pc, #8]	; (8004934 <spi_prog_init+0x24>)
 800492a:	f7fb bc15 	b.w	8000158 <myprintf>
}
 800492e:	bd10      	pop	{r4, pc}
 8004930:	20000168 	.word	0x20000168
 8004934:	08006072 	.word	0x08006072

08004938 <spi_prog_deinit>:

void spi_prog_deinit(){
 8004938:	b508      	push	{r3, lr}
	HAL_GPIO_WritePin(avr_prog->CS_Port, avr_prog->CS_Pin, GPIO_PIN_SET);
 800493a:	4b07      	ldr	r3, [pc, #28]	; (8004958 <spi_prog_deinit+0x20>)
 800493c:	2201      	movs	r2, #1
 800493e:	681b      	ldr	r3, [r3, #0]
 8004940:	6958      	ldr	r0, [r3, #20]
 8004942:	8a19      	ldrh	r1, [r3, #16]
 8004944:	f7fc fb14 	bl	8000f70 <HAL_GPIO_WritePin>
	spi_disable();
 8004948:	f7ff feb2 	bl	80046b0 <spi_disable>
	DEBUG_PRINTF("PROGRAM MODE DEINIT\n");
}
 800494c:	e8bd 4008 	ldmia.w	sp!, {r3, lr}
	DEBUG_PRINTF("PROGRAM MODE DEINIT\n");
 8004950:	4802      	ldr	r0, [pc, #8]	; (800495c <spi_prog_deinit+0x24>)
 8004952:	f7fb bc01 	b.w	8000158 <myprintf>
 8004956:	bf00      	nop
 8004958:	20000f48 	.word	0x20000f48
 800495c:	08006085 	.word	0x08006085

08004960 <spi_fl_Write>:

// FLASH
void spi_fl_Write(){
 8004960:	e92d 4ff8 	stmdb	sp!, {r3, r4, r5, r6, r7, r8, r9, sl, fp, lr}
	uint16_t curPage;
	uint32_t page_word_addr;
  	uint16_t word;

	DEBUG_PRINTF("CHIP ERASE\n");
 8004964:	4829      	ldr	r0, [pc, #164]	; (8004a0c <spi_fl_Write+0xac>)
	chipErase(); // Стираем чип

	DEBUG_PRINTF("START WRITE FLASH\n");
	for(curPage = 0; curPage < avp_curParam->mcu->number_of_flash_pages; curPage++){
 8004966:	4f2a      	ldr	r7, [pc, #168]	; (8004a10 <spi_fl_Write+0xb0>)
	DEBUG_PRINTF("CHIP ERASE\n");
 8004968:	f7fb fbf6 	bl	8000158 <myprintf>
	chipErase(); // Стираем чип
 800496c:	f7ff ffa6 	bl	80048bc <chipErase>
	DEBUG_PRINTF("START WRITE FLASH\n");
 8004970:	4828      	ldr	r0, [pc, #160]	; (8004a14 <spi_fl_Write+0xb4>)
 8004972:	f7fb fbf1 	bl	8000158 <myprintf>
	for(curPage = 0; curPage < avp_curParam->mcu->number_of_flash_pages; curPage++){
 8004976:	2500      	movs	r5, #0
 8004978:	46b9      	mov	r9, r7
		// Читаем в буфер и проверяем доступность файла
		if(!SD_transferFunc()) {
 800497a:	f8df b0b0 	ldr.w	fp, [pc, #176]	; 8004a2c <spi_fl_Write+0xcc>
	for(curPage = 0; curPage < avp_curParam->mcu->number_of_flash_pages; curPage++){
 800497e:	683b      	ldr	r3, [r7, #0]
 8004980:	685b      	ldr	r3, [r3, #4]
 8004982:	891a      	ldrh	r2, [r3, #8]
 8004984:	b2ab      	uxth	r3, r5
 8004986:	429a      	cmp	r2, r3
 8004988:	d909      	bls.n	800499e <spi_fl_Write+0x3e>
		if(!SD_transferFunc()) {
 800498a:	f8db 3000 	ldr.w	r3, [fp]
 800498e:	4798      	blx	r3
 8004990:	b950      	cbnz	r0, 80049a8 <spi_fl_Write+0x48>
			if(AVP_ERROR) break;
 8004992:	4b21      	ldr	r3, [pc, #132]	; (8004a18 <spi_fl_Write+0xb8>)
 8004994:	781b      	ldrb	r3, [r3, #0]
 8004996:	b913      	cbnz	r3, 800499e <spi_fl_Write+0x3e>

			DEBUG_PRINTF("FILE ENDED\n");
 8004998:	4820      	ldr	r0, [pc, #128]	; (8004a1c <spi_fl_Write+0xbc>)
 800499a:	f7fb fbdd 	bl	8000158 <myprintf>
		// ProgressBar
		avr_prog->prog_cb(avp_curParam->mcu->number_of_flash_pages, curPage);
	}
	DEBUG_PRINTF("END WRITE FLASH\n");
	
}
 800499e:	e8bd 4ff8 	ldmia.w	sp!, {r3, r4, r5, r6, r7, r8, r9, sl, fp, lr}
	DEBUG_PRINTF("END WRITE FLASH\n");
 80049a2:	481f      	ldr	r0, [pc, #124]	; (8004a20 <spi_fl_Write+0xc0>)
 80049a4:	f7fb bbd8 	b.w	8000158 <myprintf>
		for(word = 0; word < avp_curParam->mcu->flash_page_size; word++){
 80049a8:	2400      	movs	r4, #0
		page_word_addr = curPage * avp_curParam->mcu->flash_page_size;
 80049aa:	683b      	ldr	r3, [r7, #0]
 80049ac:	fa1f fa85 	uxth.w	sl, r5
 80049b0:	685b      	ldr	r3, [r3, #4]
 80049b2:	4e1c      	ldr	r6, [pc, #112]	; (8004a24 <spi_fl_Write+0xc4>)
 80049b4:	f893 8007 	ldrb.w	r8, [r3, #7]
 80049b8:	fb0a f808 	mul.w	r8, sl, r8
		for(word = 0; word < avp_curParam->mcu->flash_page_size; word++){
 80049bc:	f8d9 3000 	ldr.w	r3, [r9]
 80049c0:	3602      	adds	r6, #2
 80049c2:	685b      	ldr	r3, [r3, #4]
 80049c4:	79da      	ldrb	r2, [r3, #7]
 80049c6:	b2a3      	uxth	r3, r4
 80049c8:	429a      	cmp	r2, r3
 80049ca:	d810      	bhi.n	80049ee <spi_fl_Write+0x8e>
		flPageCommit(page_word_addr);
 80049cc:	4640      	mov	r0, r8
 80049ce:	f7ff fee1 	bl	8004794 <flPageCommit>
		HAL_Delay(10); // ЭТО ОЧЕНЬ ВАЖНО ПОСЛЕ ЗАПИСИ, ПОДОЖДИ
 80049d2:	200a      	movs	r0, #10
 80049d4:	f7fc f812 	bl	80009fc <HAL_Delay>
		avr_prog->prog_cb(avp_curParam->mcu->number_of_flash_pages, curPage);
 80049d8:	f8d9 3000 	ldr.w	r3, [r9]
 80049dc:	4651      	mov	r1, sl
 80049de:	685a      	ldr	r2, [r3, #4]
 80049e0:	4b11      	ldr	r3, [pc, #68]	; (8004a28 <spi_fl_Write+0xc8>)
 80049e2:	8910      	ldrh	r0, [r2, #8]
 80049e4:	681b      	ldr	r3, [r3, #0]
 80049e6:	3501      	adds	r5, #1
 80049e8:	681b      	ldr	r3, [r3, #0]
 80049ea:	4798      	blx	r3
	for(curPage = 0; curPage < avp_curParam->mcu->number_of_flash_pages; curPage++){
 80049ec:	e7c7      	b.n	800497e <spi_fl_Write+0x1e>
			flWriteWord(0, word, flash_buf[word * 2]);
 80049ee:	4621      	mov	r1, r4
 80049f0:	2000      	movs	r0, #0
 80049f2:	f816 2c02 	ldrb.w	r2, [r6, #-2]
 80049f6:	f7ff fec3 	bl	8004780 <flWriteWord>
			flWriteWord(1, word, flash_buf[word * 2 + 1]);
 80049fa:	4621      	mov	r1, r4
 80049fc:	2001      	movs	r0, #1
 80049fe:	f816 2c01 	ldrb.w	r2, [r6, #-1]
 8004a02:	f7ff febd 	bl	8004780 <flWriteWord>
		for(word = 0; word < avp_curParam->mcu->flash_page_size; word++){
 8004a06:	3401      	adds	r4, #1
 8004a08:	e7d8      	b.n	80049bc <spi_fl_Write+0x5c>
 8004a0a:	bf00      	nop
 8004a0c:	0800609a 	.word	0x0800609a
 8004a10:	20000f50 	.word	0x20000f50
 8004a14:	080060a6 	.word	0x080060a6
 8004a18:	20000168 	.word	0x20000168
 8004a1c:	080060b9 	.word	0x080060b9
 8004a20:	080060c5 	.word	0x080060c5
 8004a24:	20000f98 	.word	0x20000f98
 8004a28:	20000f48 	.word	0x20000f48
 8004a2c:	200011a0 	.word	0x200011a0

08004a30 <spi_fl_Read>:
void spi_fl_Read(){
}
 8004a30:	4770      	bx	lr
	...

08004a34 <spi_fl_Verify>:
void spi_fl_Verify(){
 8004a34:	e92d 4ff0 	stmdb	sp!, {r4, r5, r6, r7, r8, r9, sl, fp, lr}

	uint8_t verify_buf[4];

	DEBUG_PRINTF("START VERIFY FLASH\n");
	
	while(word_addr < avp_curParam->mcu->flash_page_size * avp_curParam->mcu->number_of_flash_pages){
 8004a38:	f8df 90d4 	ldr.w	r9, [pc, #212]	; 8004b10 <spi_fl_Verify+0xdc>
	DEBUG_PRINTF("START VERIFY FLASH\n");
 8004a3c:	482e      	ldr	r0, [pc, #184]	; (8004af8 <spi_fl_Verify+0xc4>)
void spi_fl_Verify(){
 8004a3e:	b085      	sub	sp, #20
	DEBUG_PRINTF("START VERIFY FLASH\n");
 8004a40:	f7fb fb8a 	bl	8000158 <myprintf>
	uint32_t word_addr = 0;
 8004a44:	2500      	movs	r5, #0
 8004a46:	46ca      	mov	sl, r9
		// Читаем в буфер и проверяем доступность файла
		if(!SD_transferFunc()) {
 8004a48:	f8df b0c8 	ldr.w	fp, [pc, #200]	; 8004b14 <spi_fl_Verify+0xe0>
	while(word_addr < avp_curParam->mcu->flash_page_size * avp_curParam->mcu->number_of_flash_pages){
 8004a4c:	f8d9 3000 	ldr.w	r3, [r9]
 8004a50:	685a      	ldr	r2, [r3, #4]
 8004a52:	79d1      	ldrb	r1, [r2, #7]
 8004a54:	8913      	ldrh	r3, [r2, #8]
 8004a56:	434b      	muls	r3, r1
 8004a58:	42ab      	cmp	r3, r5
 8004a5a:	d93f      	bls.n	8004adc <spi_fl_Verify+0xa8>
		if(!SD_transferFunc()) {
 8004a5c:	f8db 3000 	ldr.w	r3, [fp]
 8004a60:	4798      	blx	r3
 8004a62:	b158      	cbz	r0, 8004a7c <spi_fl_Verify+0x48>
 8004a64:	2600      	movs	r6, #0
 8004a66:	4f25      	ldr	r7, [pc, #148]	; (8004afc <spi_fl_Verify+0xc8>)

			FAIL(AVP_ERR_PROG, AVP_ERR_VERIFY, word_addr * 2, 0xFF, flReadByte(0, word_addr));
			DEBUG_PRINTF("FILE ENDED BEFORE FLASH!\n");
			return;
		}
		for(page_word = 0; page_word < avp_curParam->mcu->flash_page_size; word_addr++, page_word++){
 8004a68:	f8da 3000 	ldr.w	r3, [sl]
 8004a6c:	19ac      	adds	r4, r5, r6
 8004a6e:	685b      	ldr	r3, [r3, #4]
 8004a70:	79da      	ldrb	r2, [r3, #7]
 8004a72:	b2b3      	uxth	r3, r6
 8004a74:	429a      	cmp	r2, r3
 8004a76:	d816      	bhi.n	8004aa6 <spi_fl_Verify+0x72>
 8004a78:	4625      	mov	r5, r4
 8004a7a:	e7e7      	b.n	8004a4c <spi_fl_Verify+0x18>
			if(AVP_ERROR) return;
 8004a7c:	4b20      	ldr	r3, [pc, #128]	; (8004b00 <spi_fl_Verify+0xcc>)
 8004a7e:	781b      	ldrb	r3, [r3, #0]
 8004a80:	bb63      	cbnz	r3, 8004adc <spi_fl_Verify+0xa8>
			FAIL(AVP_ERR_PROG, AVP_ERR_VERIFY, word_addr * 2, 0xFF, flReadByte(0, word_addr));
 8004a82:	4629      	mov	r1, r5
 8004a84:	f7ff fe8d 	bl	80047a2 <flReadByte>
 8004a88:	4c1e      	ldr	r4, [pc, #120]	; (8004b04 <spi_fl_Verify+0xd0>)
 8004a8a:	4e1f      	ldr	r6, [pc, #124]	; (8004b08 <spi_fl_Verify+0xd4>)
 8004a8c:	9000      	str	r0, [sp, #0]
 8004a8e:	23ff      	movs	r3, #255	; 0xff
 8004a90:	6820      	ldr	r0, [r4, #0]
 8004a92:	6831      	ldr	r1, [r6, #0]
 8004a94:	006a      	lsls	r2, r5, #1
 8004a96:	f7ff fc85 	bl	80043a4 <FAIL>
			DEBUG_PRINTF("FILE ENDED BEFORE FLASH!\n");
 8004a9a:	481c      	ldr	r0, [pc, #112]	; (8004b0c <spi_fl_Verify+0xd8>)
				return;
			}

		}
	}
}
 8004a9c:	b005      	add	sp, #20
 8004a9e:	e8bd 4ff0 	ldmia.w	sp!, {r4, r5, r6, r7, r8, r9, sl, fp, lr}
			DEBUG_PRINTF("FILE ENDED BEFORE FLASH!\n");
 8004aa2:	f7fb bb59 	b.w	8000158 <myprintf>
			verify_buf[0] = flash_buf[page_word *2];		// low orig
 8004aa6:	783a      	ldrb	r2, [r7, #0]
			verify_buf[1] = flash_buf[page_word *2 + 1];	// high orig
 8004aa8:	787b      	ldrb	r3, [r7, #1]
			verify_buf[2] = flReadByte(0, word_addr);		// low read
 8004aaa:	4621      	mov	r1, r4
 8004aac:	2000      	movs	r0, #0
			verify_buf[0] = flash_buf[page_word *2];		// low orig
 8004aae:	9203      	str	r2, [sp, #12]
			verify_buf[1] = flash_buf[page_word *2 + 1];	// high orig
 8004ab0:	9302      	str	r3, [sp, #8]
			verify_buf[2] = flReadByte(0, word_addr);		// low read
 8004ab2:	f7ff fe76 	bl	80047a2 <flReadByte>
 8004ab6:	4680      	mov	r8, r0
			verify_buf[3] = flReadByte(1, word_addr);		// high read
 8004ab8:	4621      	mov	r1, r4
 8004aba:	2001      	movs	r0, #1
 8004abc:	f7ff fe71 	bl	80047a2 <flReadByte>
			if(verify_buf[0] != verify_buf[2]){
 8004ac0:	9a03      	ldr	r2, [sp, #12]
 8004ac2:	9b02      	ldr	r3, [sp, #8]
 8004ac4:	4542      	cmp	r2, r8
 8004ac6:	d00c      	beq.n	8004ae2 <spi_fl_Verify+0xae>
				FAIL(AVP_ERR_PROG, AVP_ERR_VERIFY, word_addr * 2, verify_buf[0], verify_buf[2]);
 8004ac8:	4613      	mov	r3, r2
 8004aca:	f8cd 8000 	str.w	r8, [sp]
 8004ace:	0062      	lsls	r2, r4, #1
				FAIL(AVP_ERR_PROG, AVP_ERR_VERIFY, word_addr * 2 + 1, verify_buf[1], verify_buf[3]);
 8004ad0:	490d      	ldr	r1, [pc, #52]	; (8004b08 <spi_fl_Verify+0xd4>)
 8004ad2:	480c      	ldr	r0, [pc, #48]	; (8004b04 <spi_fl_Verify+0xd0>)
 8004ad4:	6809      	ldr	r1, [r1, #0]
 8004ad6:	6800      	ldr	r0, [r0, #0]
 8004ad8:	f7ff fc64 	bl	80043a4 <FAIL>
}
 8004adc:	b005      	add	sp, #20
 8004ade:	e8bd 8ff0 	ldmia.w	sp!, {r4, r5, r6, r7, r8, r9, sl, fp, pc}
			if(verify_buf[1] != verify_buf[3]){
 8004ae2:	4283      	cmp	r3, r0
 8004ae4:	f106 0601 	add.w	r6, r6, #1
 8004ae8:	f107 0702 	add.w	r7, r7, #2
 8004aec:	d0bc      	beq.n	8004a68 <spi_fl_Verify+0x34>
				FAIL(AVP_ERR_PROG, AVP_ERR_VERIFY, word_addr * 2 + 1, verify_buf[1], verify_buf[3]);
 8004aee:	0062      	lsls	r2, r4, #1
 8004af0:	9000      	str	r0, [sp, #0]
 8004af2:	3201      	adds	r2, #1
 8004af4:	e7ec      	b.n	8004ad0 <spi_fl_Verify+0x9c>
 8004af6:	bf00      	nop
 8004af8:	080060d6 	.word	0x080060d6
 8004afc:	20000f98 	.word	0x20000f98
 8004b00:	20000168 	.word	0x20000168
 8004b04:	08005fe0 	.word	0x08005fe0
 8004b08:	08005fec 	.word	0x08005fec
 8004b0c:	080060ea 	.word	0x080060ea
 8004b10:	20000f50 	.word	0x20000f50
 8004b14:	200011a0 	.word	0x200011a0

08004b18 <spi_ee_Write>:
 8004b18:	4770      	bx	lr

08004b1a <spi_ee_Verify>:
 8004b1a:	4770      	bx	lr

08004b1c <spi_fb_Write>:
 8004b1c:	4770      	bx	lr

08004b1e <spi_fb_Read>:
 8004b1e:	4770      	bx	lr

08004b20 <spi_lb_Write>:
 8004b20:	4770      	bx	lr

08004b22 <spi_lb_Read>:
 8004b22:	4770      	bx	lr

08004b24 <spi_lb_Verify>:
 8004b24:	4770      	bx	lr

08004b26 <spi_cfg_Write>:
 8004b26:	4770      	bx	lr

08004b28 <spi_cfg_Read>:
 8004b28:	4770      	bx	lr

08004b2a <spi_cfg_Verify>:
 8004b2a:	4770      	bx	lr

08004b2c <init_btn>:
#include "encBtn.h"


// ----------------- КНОПКА -----------------

void init_btn(button_t *btn,GPIO_TypeDef *potr,uint32_t pin,bool pull_up, bool invser) {
 8004b2c:	b510      	push	{r4, lr}


	if (pin != BTN_NO_PIN) {
 8004b2e:	1c54      	adds	r4, r2, #1
 8004b30:	7844      	ldrb	r4, [r0, #1]
        btn->_PIN = pin;
        btn->_PORT = potr;
 8004b32:	bf18      	it	ne
 8004b34:	e9c0 2101 	strdne	r2, r1, [r0, #4]
    }

    btnSetType(btn,pull_up);
    btn->flags.mode = false;
    btn->flags.tickMode = false;
    btn->flags.inv_state = invser;
 8004b38:	f89d 2008 	ldrb.w	r2, [sp, #8]
        btn->flags.noPin = false;
 8004b3c:	bf14      	ite	ne
 8004b3e:	f36f 1445 	bfcne	r4, #5, #1
        btn->flags.noPin = true;
 8004b42:	f044 0420 	orreq.w	r4, r4, #32
 8004b46:	7044      	strb	r4, [r0, #1]
    btn->flags.inv_state = invser;
 8004b48:	0052      	lsls	r2, r2, #1
 8004b4a:	ea42 03c3 	orr.w	r3, r2, r3, lsl #3
 8004b4e:	7842      	ldrb	r2, [r0, #1]
 8004b50:	f003 031e 	and.w	r3, r3, #30
 8004b54:	f022 021e 	bic.w	r2, r2, #30
 8004b58:	4313      	orrs	r3, r2
 8004b5a:	7043      	strb	r3, [r0, #1]


    btn->_debounce = 60;
    btn->_timeout = 500;
    btn->_click_timeout = 500;
 8004b5c:	4a04      	ldr	r2, [pc, #16]	; (8004b70 <init_btn+0x44>)
 8004b5e:	4b05      	ldr	r3, [pc, #20]	; (8004b74 <init_btn+0x48>)
 8004b60:	e9c0 2303 	strd	r2, r3, [r0, #12]
    btn->_step_timeout = 400;
    btn->btn_counter = 0;
 8004b64:	2300      	movs	r3, #0
 8004b66:	8283      	strh	r3, [r0, #20]
	btn->last_counter = 0;
	btn->last_hold_counter = 0;
 8004b68:	7583      	strb	r3, [r0, #22]
	btn->btn_timer = 0;
 8004b6a:	6183      	str	r3, [r0, #24]
	btn->btn_state = false;
 8004b6c:	8383      	strh	r3, [r0, #28]
	btn->btn_flag = false;
}
 8004b6e:	bd10      	pop	{r4, pc}
 8004b70:	01f4003c 	.word	0x01f4003c
 8004b74:	019001f4 	.word	0x019001f4

08004b78 <btnTick>:
    btn->btn_state = state ^ btn->flags.inv_state;
    btnTick(btn);
    btn->flags.mode = false;
}

void btnTick(button_t *btn) {
 8004b78:	b538      	push	{r3, r4, r5, lr}
    // читаем пин
    if (!btn->flags.mode && !btn->flags.noPin) btn->btn_state = !_buttonRead() ^ (btn->flags.inv_state ^ btn->flags.type);
 8004b7a:	7843      	ldrb	r3, [r0, #1]
void btnTick(button_t *btn) {
 8004b7c:	4604      	mov	r4, r0
    if (!btn->flags.mode && !btn->flags.noPin) btn->btn_state = !_buttonRead() ^ (btn->flags.inv_state ^ btn->flags.type);
 8004b7e:	075d      	lsls	r5, r3, #29
 8004b80:	d410      	bmi.n	8004ba4 <btnTick+0x2c>
 8004b82:	0698      	lsls	r0, r3, #26
 8004b84:	d40e      	bmi.n	8004ba4 <btnTick+0x2c>
 8004b86:	88a1      	ldrh	r1, [r4, #4]
 8004b88:	68a0      	ldr	r0, [r4, #8]
 8004b8a:	f7fc f9eb 	bl	8000f64 <HAL_GPIO_ReadPin>
 8004b8e:	7862      	ldrb	r2, [r4, #1]
 8004b90:	f3c2 0340 	ubfx	r3, r2, #1, #1
 8004b94:	f3c2 02c0 	ubfx	r2, r2, #3, #1
 8004b98:	4053      	eors	r3, r2
 8004b9a:	2800      	cmp	r0, #0
 8004b9c:	bf08      	it	eq
 8004b9e:	f083 0301 	eoreq.w	r3, r3, #1
 8004ba2:	7723      	strb	r3, [r4, #28]

    uint32_t thisMls = _getTickMS();
 8004ba4:	f7fb ff24 	bl	80009f0 <HAL_GetTick>

    // нажатие
    if (btn->btn_state && !btn->btn_flag) {
 8004ba8:	7f22      	ldrb	r2, [r4, #28]
 8004baa:	7f63      	ldrb	r3, [r4, #29]
 8004bac:	b30a      	cbz	r2, 8004bf2 <btnTick+0x7a>
 8004bae:	bb03      	cbnz	r3, 8004bf2 <btnTick+0x7a>
        if (!btn->flags.btn_deb) {
 8004bb0:	7823      	ldrb	r3, [r4, #0]
 8004bb2:	07d9      	lsls	r1, r3, #31
 8004bb4:	d404      	bmi.n	8004bc0 <btnTick+0x48>
            btn->flags.btn_deb = true;
 8004bb6:	f043 0301 	orr.w	r3, r3, #1
        }
    }

    // кнопка удерживается
    if (btn->btn_flag && btn->btn_state && (thisMls - btn->btn_timer >= btn->_timeout) && !btn->flags.hold_flag) {
        btn->flags.hold_flag = true;
 8004bba:	7023      	strb	r3, [r4, #0]
        //btn_counter = 0;
        //last_counter = 0;
        btn->flags.isHolded_f = true;
        btn->flags.step_flag = true;
        btn->flags.oneClick_f = false;
        btn->btn_timer = thisMls;
 8004bbc:	61a0      	str	r0, [r4, #24]
 8004bbe:	e041      	b.n	8004c44 <btnTick+0xcc>
            if (thisMls - btn->btn_timer >= btn->_debounce) {
 8004bc0:	69a1      	ldr	r1, [r4, #24]
 8004bc2:	89a5      	ldrh	r5, [r4, #12]
 8004bc4:	1a41      	subs	r1, r0, r1
 8004bc6:	42a9      	cmp	r1, r5
 8004bc8:	d33c      	bcc.n	8004c44 <btnTick+0xcc>
                btn->btn_flag = true;
 8004bca:	2101      	movs	r1, #1
                btn->flags.isPress_f = true;
 8004bcc:	f063 035f 	orn	r3, r3, #95	; 0x5f
                btn->btn_flag = true;
 8004bd0:	7761      	strb	r1, [r4, #29]
                btn->flags.isPress_f = true;
 8004bd2:	7023      	strb	r3, [r4, #0]
    if (btn->btn_flag && btn->btn_state && (thisMls - btn->btn_timer >= btn->_timeout) && !btn->flags.hold_flag) {
 8004bd4:	69a3      	ldr	r3, [r4, #24]
 8004bd6:	89e1      	ldrh	r1, [r4, #14]
 8004bd8:	1ac3      	subs	r3, r0, r3
 8004bda:	428b      	cmp	r3, r1
 8004bdc:	d332      	bcc.n	8004c44 <btnTick+0xcc>
 8004bde:	7823      	ldrb	r3, [r4, #0]
 8004be0:	0799      	lsls	r1, r3, #30
 8004be2:	d42f      	bmi.n	8004c44 <btnTick+0xcc>
        btn->last_hold_counter = btn->btn_counter;
 8004be4:	7d21      	ldrb	r1, [r4, #20]
        btn->flags.hold_flag = true;
 8004be6:	f003 0335 	and.w	r3, r3, #53	; 0x35
        btn->last_hold_counter = btn->btn_counter;
 8004bea:	75a1      	strb	r1, [r4, #22]
        btn->flags.hold_flag = true;
 8004bec:	f043 034a 	orr.w	r3, r3, #74	; 0x4a
 8004bf0:	e7e3      	b.n	8004bba <btnTick+0x42>
        btn->flags.btn_deb = false;
 8004bf2:	7821      	ldrb	r1, [r4, #0]
 8004bf4:	f36f 0100 	bfc	r1, #0, #1
 8004bf8:	7021      	strb	r1, [r4, #0]
    if (!btn->btn_state && btn->btn_flag) {
 8004bfa:	2a00      	cmp	r2, #0
 8004bfc:	d13c      	bne.n	8004c78 <btnTick+0x100>
 8004bfe:	b30b      	cbz	r3, 8004c44 <btnTick+0xcc>
        if (!btn->flags.hold_flag) btn->btn_counter++;
 8004c00:	b2cb      	uxtb	r3, r1
 8004c02:	079b      	lsls	r3, r3, #30
 8004c04:	bf58      	it	pl
 8004c06:	7d23      	ldrbpl	r3, [r4, #20]
        btn->btn_flag = false;
 8004c08:	7762      	strb	r2, [r4, #29]
        if (!btn->flags.hold_flag) btn->btn_counter++;
 8004c0a:	bf5c      	itt	pl
 8004c0c:	3301      	addpl	r3, #1
 8004c0e:	7523      	strbpl	r3, [r4, #20]
        btn->flags.hold_flag = false;
 8004c10:	7823      	ldrb	r3, [r4, #0]
        btn->btn_timer = thisMls;
 8004c12:	61a0      	str	r0, [r4, #24]
        btn->flags.hold_flag = false;
 8004c14:	f023 0312 	bic.w	r3, r3, #18
 8004c18:	f043 0310 	orr.w	r3, r3, #16
        if (btn->flags.step_flag) {
 8004c1c:	065d      	lsls	r5, r3, #25
            btn->btn_counter = 0;
 8004c1e:	bf48      	it	mi
 8004c20:	2100      	movmi	r1, #0
        btn->flags.hold_flag = false;
 8004c22:	7023      	strb	r3, [r4, #0]
            btn->flags.step_flag = false;
 8004c24:	bf44      	itt	mi
 8004c26:	f361 1386 	bfimi	r3, r1, #6, #1
 8004c2a:	7023      	strbmi	r3, [r4, #0]
        if (btn->flags.oneClick_f) {
 8004c2c:	f994 3000 	ldrsb.w	r3, [r4]
            btn->btn_counter = 0;
 8004c30:	bf48      	it	mi
 8004c32:	82a1      	strhmi	r1, [r4, #20]
        if (btn->flags.oneClick_f) {
 8004c34:	2b00      	cmp	r3, #0
 8004c36:	da05      	bge.n	8004c44 <btnTick+0xcc>
            btn->flags.oneClick_f = false;
 8004c38:	8823      	ldrh	r3, [r4, #0]
 8004c3a:	f423 73c0 	bic.w	r3, r3, #384	; 0x180
 8004c3e:	f443 7380 	orr.w	r3, r3, #256	; 0x100
 8004c42:	8023      	strh	r3, [r4, #0]
    }

    // обработка накликивания
    if ((thisMls - btn->btn_timer >= btn->_click_timeout) && (btn->btn_counter != 0) &&  !btn->btn_state) {    //И здесь еще добавлен !btn_state
 8004c44:	69a3      	ldr	r3, [r4, #24]
 8004c46:	1ac0      	subs	r0, r0, r3
 8004c48:	8a23      	ldrh	r3, [r4, #16]
 8004c4a:	4298      	cmp	r0, r3
 8004c4c:	d308      	bcc.n	8004c60 <btnTick+0xe8>
 8004c4e:	7d23      	ldrb	r3, [r4, #20]
 8004c50:	b133      	cbz	r3, 8004c60 <btnTick+0xe8>
 8004c52:	b92a      	cbnz	r2, 8004c60 <btnTick+0xe8>
        btn->last_counter = btn->btn_counter;
 8004c54:	7563      	strb	r3, [r4, #21]
        btn->btn_counter = 0;
        btn->flags.counter_flag = true;
 8004c56:	7823      	ldrb	r3, [r4, #0]
        btn->btn_counter = 0;
 8004c58:	7522      	strb	r2, [r4, #20]
        btn->flags.counter_flag = true;
 8004c5a:	f043 0304 	orr.w	r3, r3, #4
 8004c5e:	7023      	strb	r3, [r4, #0]
    }

    // сброс накликивания                        //Добавлено
    if (btn->flags.counter_reset) {
 8004c60:	7863      	ldrb	r3, [r4, #1]
 8004c62:	065b      	lsls	r3, r3, #25
 8004c64:	d507      	bpl.n	8004c76 <btnTick+0xfe>
        btn->last_counter = 0;
 8004c66:	2300      	movs	r3, #0
 8004c68:	7563      	strb	r3, [r4, #21]
        btn->flags.counter_flag = false;
 8004c6a:	8823      	ldrh	r3, [r4, #0]
 8004c6c:	f423 4380 	bic.w	r3, r3, #16384	; 0x4000
 8004c70:	f023 0304 	bic.w	r3, r3, #4
 8004c74:	8023      	strh	r3, [r4, #0]
        btn->flags.counter_reset = false;
    }
}
 8004c76:	bd38      	pop	{r3, r4, r5, pc}
    if (btn->btn_flag && btn->btn_state && (thisMls - btn->btn_timer >= btn->_timeout) && !btn->flags.hold_flag) {
 8004c78:	2b00      	cmp	r3, #0
 8004c7a:	d1ab      	bne.n	8004bd4 <btnTick+0x5c>
 8004c7c:	e7e2      	b.n	8004c44 <btnTick+0xcc>

08004c7e <charToNum>:
void closeChipList(){
	f_close(&chipFile);
}

uint8_t charToNum(char c){
	if(c>='0' && c<='9'){
 8004c7e:	f1a0 0330 	sub.w	r3, r0, #48	; 0x30
uint8_t charToNum(char c){
 8004c82:	4602      	mov	r2, r0
	if(c>='0' && c<='9'){
 8004c84:	b2d8      	uxtb	r0, r3
 8004c86:	2809      	cmp	r0, #9
 8004c88:	d917      	bls.n	8004cba <charToNum+0x3c>
		return c-'0';
	}else if(c=='A'){
 8004c8a:	2a41      	cmp	r2, #65	; 0x41
 8004c8c:	d00c      	beq.n	8004ca8 <charToNum+0x2a>
		return 10;
	}else if(c=='B'){
 8004c8e:	2a42      	cmp	r2, #66	; 0x42
 8004c90:	d00c      	beq.n	8004cac <charToNum+0x2e>
		return 11;
	}else if(c=='C'){
 8004c92:	2a43      	cmp	r2, #67	; 0x43
 8004c94:	d00c      	beq.n	8004cb0 <charToNum+0x32>
		return 12;
	}else if(c=='D'){
 8004c96:	2a44      	cmp	r2, #68	; 0x44
 8004c98:	d00c      	beq.n	8004cb4 <charToNum+0x36>
		return 13;
	}else if(c=='E'){
 8004c9a:	2a45      	cmp	r2, #69	; 0x45
 8004c9c:	d00c      	beq.n	8004cb8 <charToNum+0x3a>
		return 14;
	}else if(c=='F'){
 8004c9e:	2a46      	cmp	r2, #70	; 0x46
		return 15;
 8004ca0:	bf14      	ite	ne
 8004ca2:	2000      	movne	r0, #0
 8004ca4:	200f      	moveq	r0, #15
 8004ca6:	4770      	bx	lr
		return 10;
 8004ca8:	200a      	movs	r0, #10
 8004caa:	4770      	bx	lr
		return 11;
 8004cac:	200b      	movs	r0, #11
 8004cae:	4770      	bx	lr
		return 12;
 8004cb0:	200c      	movs	r0, #12
 8004cb2:	4770      	bx	lr
		return 13;
 8004cb4:	200d      	movs	r0, #13
 8004cb6:	4770      	bx	lr
		return 14;
 8004cb8:	200e      	movs	r0, #14
	}
	return 0;
}
 8004cba:	4770      	bx	lr

08004cbc <readChip>:

void readChip(){
 8004cbc:	b5f0      	push	{r4, r5, r6, r7, lr}
	f_lseek(&chipFile, chip_index*CHIP_LINE_SIZE);
 8004cbe:	2434      	movs	r4, #52	; 0x34
 8004cc0:	4b18      	ldr	r3, [pc, #96]	; (8004d24 <readChip+0x68>)
void readChip(){
 8004cc2:	b08f      	sub	sp, #60	; 0x3c
	f_lseek(&chipFile, chip_index*CHIP_LINE_SIZE);
 8004cc4:	7819      	ldrb	r1, [r3, #0]
 8004cc6:	4818      	ldr	r0, [pc, #96]	; (8004d28 <readChip+0x6c>)
 8004cc8:	4361      	muls	r1, r4
 8004cca:	f7ff f892 	bl	8003df2 <f_lseek>
	uint8_t buf[CHIP_LINE_SIZE];
	UINT readByte;
	FRESULT res;

	res = f_read(&chipFile, buf, CHIP_LINE_SIZE, &readByte);
 8004cce:	466b      	mov	r3, sp
 8004cd0:	4622      	mov	r2, r4
 8004cd2:	4815      	ldr	r0, [pc, #84]	; (8004d28 <readChip+0x6c>)
 8004cd4:	a901      	add	r1, sp, #4
 8004cd6:	f7fe ff53 	bl	8003b80 <f_read>
	if(res!=FR_OK){
 8004cda:	b110      	cbz	r0, 8004ce2 <readChip+0x26>
		DEBUG_PRINTF("NOT READ CHIP ON MCU LIST! \n");
 8004cdc:	4813      	ldr	r0, [pc, #76]	; (8004d2c <readChip+0x70>)
 8004cde:	f7fb fa3b 	bl	8000158 <myprintf>
 8004ce2:	4d13      	ldr	r5, [pc, #76]	; (8004d30 <readChip+0x74>)
void readChip(){
 8004ce4:	2100      	movs	r1, #0
 8004ce6:	462f      	mov	r7, r5
 8004ce8:	ac01      	add	r4, sp, #4
	}
	int ptr = 0;
	for(uint8_t i =0; i < (CHIP_LINE_SIZE-CHIP_NANE_LEN)/2 ;i++){
		current.buf[ptr]=charToNum(buf[i*2])<<4 | charToNum(buf[i*2+1]);
 8004cea:	7820      	ldrb	r0, [r4, #0]
 8004cec:	f7ff ffc7 	bl	8004c7e <charToNum>
 8004cf0:	4606      	mov	r6, r0
 8004cf2:	7860      	ldrb	r0, [r4, #1]
 8004cf4:	f7ff ffc3 	bl	8004c7e <charToNum>
		ptr++;
 8004cf8:	3101      	adds	r1, #1
		current.buf[ptr]=charToNum(buf[i*2])<<4 | charToNum(buf[i*2+1]);
 8004cfa:	ea40 1006 	orr.w	r0, r0, r6, lsl #4
	for(uint8_t i =0; i < (CHIP_LINE_SIZE-CHIP_NANE_LEN)/2 ;i++){
 8004cfe:	2913      	cmp	r1, #19
		current.buf[ptr]=charToNum(buf[i*2])<<4 | charToNum(buf[i*2+1]);
 8004d00:	f805 0b01 	strb.w	r0, [r5], #1
	for(uint8_t i =0; i < (CHIP_LINE_SIZE-CHIP_NANE_LEN)/2 ;i++){
 8004d04:	f104 0402 	add.w	r4, r4, #2
 8004d08:	d1ef      	bne.n	8004cea <readChip+0x2e>
 8004d0a:	ab0a      	add	r3, sp, #40	; 0x28
	}
	for(uint8_t i =(CHIP_LINE_SIZE-CHIP_NANE_LEN)-2; i < CHIP_LINE_SIZE ;i++){
			current.buf[ptr]=buf[i];
 8004d0c:	f813 2b01 	ldrb.w	r2, [r3], #1
 8004d10:	547a      	strb	r2, [r7, r1]
			ptr++;
 8004d12:	3101      	adds	r1, #1
	for(uint8_t i =(CHIP_LINE_SIZE-CHIP_NANE_LEN)-2; i < CHIP_LINE_SIZE ;i++){
 8004d14:	2923      	cmp	r1, #35	; 0x23
 8004d16:	d1f9      	bne.n	8004d0c <readChip+0x50>
	}
	DEBUG_PRINTF("Chip Read! \n");
 8004d18:	4806      	ldr	r0, [pc, #24]	; (8004d34 <readChip+0x78>)
 8004d1a:	f7fb fa1d 	bl	8000158 <myprintf>
}
 8004d1e:	b00f      	add	sp, #60	; 0x3c
 8004d20:	bdf0      	pop	{r4, r5, r6, r7, pc}
 8004d22:	bf00      	nop
 8004d24:	200013d0 	.word	0x200013d0
 8004d28:	200011a4 	.word	0x200011a4
 8004d2c:	08006104 	.word	0x08006104
 8004d30:	200013d2 	.word	0x200013d2
 8004d34:	08006121 	.word	0x08006121

08004d38 <openChipList>:
void openChipList(){
 8004d38:	b508      	push	{r3, lr}
	res = f_open(&chipFile, (char*) "system/LIST.TXT", FA_READ);
 8004d3a:	2201      	movs	r2, #1
 8004d3c:	4908      	ldr	r1, [pc, #32]	; (8004d60 <openChipList+0x28>)
 8004d3e:	4809      	ldr	r0, [pc, #36]	; (8004d64 <openChipList+0x2c>)
 8004d40:	f7fe fe5a 	bl	80039f8 <f_open>
	if(res!=FR_OK){
 8004d44:	b110      	cbz	r0, 8004d4c <openChipList+0x14>
		DEBUG_PRINTF("NOT OPEN FILE MCU LIST! \n");
 8004d46:	4808      	ldr	r0, [pc, #32]	; (8004d68 <openChipList+0x30>)
 8004d48:	f7fb fa06 	bl	8000158 <myprintf>
	DEBUG_PRINTF("Open file mcu list! \n");
 8004d4c:	4807      	ldr	r0, [pc, #28]	; (8004d6c <openChipList+0x34>)
 8004d4e:	f7fb fa03 	bl	8000158 <myprintf>
	chip_index=0;
 8004d52:	2200      	movs	r2, #0
 8004d54:	4b06      	ldr	r3, [pc, #24]	; (8004d70 <openChipList+0x38>)
 8004d56:	701a      	strb	r2, [r3, #0]
}
 8004d58:	e8bd 4008 	ldmia.w	sp!, {r3, lr}
	readChip();
 8004d5c:	f7ff bfae 	b.w	8004cbc <readChip>
 8004d60:	0800612e 	.word	0x0800612e
 8004d64:	200011a4 	.word	0x200011a4
 8004d68:	0800613e 	.word	0x0800613e
 8004d6c:	08006158 	.word	0x08006158
 8004d70:	200013d0 	.word	0x200013d0

08004d74 <getChip>:

mcu_t *getChip(){
	return &current.mcu;
}
 8004d74:	4800      	ldr	r0, [pc, #0]	; (8004d78 <getChip+0x4>)
 8004d76:	4770      	bx	lr
 8004d78:	200013d2 	.word	0x200013d2

08004d7c <__errno>:
 8004d7c:	4b01      	ldr	r3, [pc, #4]	; (8004d84 <__errno+0x8>)
 8004d7e:	6818      	ldr	r0, [r3, #0]
 8004d80:	4770      	bx	lr
 8004d82:	bf00      	nop
 8004d84:	20000074 	.word	0x20000074

08004d88 <__libc_init_array>:
 8004d88:	b570      	push	{r4, r5, r6, lr}
 8004d8a:	2600      	movs	r6, #0
 8004d8c:	4d0c      	ldr	r5, [pc, #48]	; (8004dc0 <__libc_init_array+0x38>)
 8004d8e:	4c0d      	ldr	r4, [pc, #52]	; (8004dc4 <__libc_init_array+0x3c>)
 8004d90:	1b64      	subs	r4, r4, r5
 8004d92:	10a4      	asrs	r4, r4, #2
 8004d94:	42a6      	cmp	r6, r4
 8004d96:	d109      	bne.n	8004dac <__libc_init_array+0x24>
 8004d98:	f000 fcb4 	bl	8005704 <_init>
 8004d9c:	2600      	movs	r6, #0
 8004d9e:	4d0a      	ldr	r5, [pc, #40]	; (8004dc8 <__libc_init_array+0x40>)
 8004da0:	4c0a      	ldr	r4, [pc, #40]	; (8004dcc <__libc_init_array+0x44>)
 8004da2:	1b64      	subs	r4, r4, r5
 8004da4:	10a4      	asrs	r4, r4, #2
 8004da6:	42a6      	cmp	r6, r4
 8004da8:	d105      	bne.n	8004db6 <__libc_init_array+0x2e>
 8004daa:	bd70      	pop	{r4, r5, r6, pc}
 8004dac:	f855 3b04 	ldr.w	r3, [r5], #4
 8004db0:	4798      	blx	r3
 8004db2:	3601      	adds	r6, #1
 8004db4:	e7ee      	b.n	8004d94 <__libc_init_array+0xc>
 8004db6:	f855 3b04 	ldr.w	r3, [r5], #4
 8004dba:	4798      	blx	r3
 8004dbc:	3601      	adds	r6, #1
 8004dbe:	e7f2      	b.n	8004da6 <__libc_init_array+0x1e>
 8004dc0:	080062a4 	.word	0x080062a4
 8004dc4:	080062a4 	.word	0x080062a4
 8004dc8:	080062a4 	.word	0x080062a4
 8004dcc:	080062a8 	.word	0x080062a8

08004dd0 <memcpy>:
 8004dd0:	440a      	add	r2, r1
 8004dd2:	4291      	cmp	r1, r2
 8004dd4:	f100 33ff 	add.w	r3, r0, #4294967295
 8004dd8:	d100      	bne.n	8004ddc <memcpy+0xc>
 8004dda:	4770      	bx	lr
 8004ddc:	b510      	push	{r4, lr}
 8004dde:	f811 4b01 	ldrb.w	r4, [r1], #1
 8004de2:	4291      	cmp	r1, r2
 8004de4:	f803 4f01 	strb.w	r4, [r3, #1]!
 8004de8:	d1f9      	bne.n	8004dde <memcpy+0xe>
 8004dea:	bd10      	pop	{r4, pc}

08004dec <memset>:
 8004dec:	4603      	mov	r3, r0
 8004dee:	4402      	add	r2, r0
 8004df0:	4293      	cmp	r3, r2
 8004df2:	d100      	bne.n	8004df6 <memset+0xa>
 8004df4:	4770      	bx	lr
 8004df6:	f803 1b01 	strb.w	r1, [r3], #1
 8004dfa:	e7f9      	b.n	8004df0 <memset+0x4>

08004dfc <strcasecmp>:
 8004dfc:	b570      	push	{r4, r5, r6, lr}
 8004dfe:	4d0c      	ldr	r5, [pc, #48]	; (8004e30 <strcasecmp+0x34>)
 8004e00:	4604      	mov	r4, r0
 8004e02:	462e      	mov	r6, r5
 8004e04:	f814 3b01 	ldrb.w	r3, [r4], #1
 8004e08:	5d5a      	ldrb	r2, [r3, r5]
 8004e0a:	f002 0203 	and.w	r2, r2, #3
 8004e0e:	2a01      	cmp	r2, #1
 8004e10:	f811 2b01 	ldrb.w	r2, [r1], #1
 8004e14:	bf08      	it	eq
 8004e16:	3320      	addeq	r3, #32
 8004e18:	5cb0      	ldrb	r0, [r6, r2]
 8004e1a:	f000 0003 	and.w	r0, r0, #3
 8004e1e:	2801      	cmp	r0, #1
 8004e20:	bf08      	it	eq
 8004e22:	3220      	addeq	r2, #32
 8004e24:	1a98      	subs	r0, r3, r2
 8004e26:	d101      	bne.n	8004e2c <strcasecmp+0x30>
 8004e28:	2a00      	cmp	r2, #0
 8004e2a:	d1eb      	bne.n	8004e04 <strcasecmp+0x8>
 8004e2c:	bd70      	pop	{r4, r5, r6, pc}
 8004e2e:	bf00      	nop
 8004e30:	0800616f 	.word	0x0800616f

08004e34 <strrchr>:
 8004e34:	b538      	push	{r3, r4, r5, lr}
 8004e36:	4603      	mov	r3, r0
 8004e38:	460c      	mov	r4, r1
 8004e3a:	b969      	cbnz	r1, 8004e58 <strrchr+0x24>
 8004e3c:	e8bd 4038 	ldmia.w	sp!, {r3, r4, r5, lr}
 8004e40:	f000 bb38 	b.w	80054b4 <strchr>
 8004e44:	4605      	mov	r5, r0
 8004e46:	1c43      	adds	r3, r0, #1
 8004e48:	4621      	mov	r1, r4
 8004e4a:	4618      	mov	r0, r3
 8004e4c:	f000 fb32 	bl	80054b4 <strchr>
 8004e50:	2800      	cmp	r0, #0
 8004e52:	d1f7      	bne.n	8004e44 <strrchr+0x10>
 8004e54:	4628      	mov	r0, r5
 8004e56:	bd38      	pop	{r3, r4, r5, pc}
 8004e58:	2500      	movs	r5, #0
 8004e5a:	e7f5      	b.n	8004e48 <strrchr+0x14>

08004e5c <_vsniprintf_r>:
 8004e5c:	b530      	push	{r4, r5, lr}
 8004e5e:	1e14      	subs	r4, r2, #0
 8004e60:	4605      	mov	r5, r0
 8004e62:	b09b      	sub	sp, #108	; 0x6c
 8004e64:	4618      	mov	r0, r3
 8004e66:	da05      	bge.n	8004e74 <_vsniprintf_r+0x18>
 8004e68:	238b      	movs	r3, #139	; 0x8b
 8004e6a:	f04f 30ff 	mov.w	r0, #4294967295
 8004e6e:	602b      	str	r3, [r5, #0]
 8004e70:	b01b      	add	sp, #108	; 0x6c
 8004e72:	bd30      	pop	{r4, r5, pc}
 8004e74:	f44f 7302 	mov.w	r3, #520	; 0x208
 8004e78:	f8ad 300c 	strh.w	r3, [sp, #12]
 8004e7c:	bf0c      	ite	eq
 8004e7e:	4623      	moveq	r3, r4
 8004e80:	f104 33ff 	addne.w	r3, r4, #4294967295
 8004e84:	9302      	str	r3, [sp, #8]
 8004e86:	9305      	str	r3, [sp, #20]
 8004e88:	f64f 73ff 	movw	r3, #65535	; 0xffff
 8004e8c:	4602      	mov	r2, r0
 8004e8e:	9100      	str	r1, [sp, #0]
 8004e90:	9104      	str	r1, [sp, #16]
 8004e92:	f8ad 300e 	strh.w	r3, [sp, #14]
 8004e96:	4669      	mov	r1, sp
 8004e98:	9b1e      	ldr	r3, [sp, #120]	; 0x78
 8004e9a:	4628      	mov	r0, r5
 8004e9c:	f000 f874 	bl	8004f88 <_svfiprintf_r>
 8004ea0:	1c43      	adds	r3, r0, #1
 8004ea2:	bfbc      	itt	lt
 8004ea4:	238b      	movlt	r3, #139	; 0x8b
 8004ea6:	602b      	strlt	r3, [r5, #0]
 8004ea8:	2c00      	cmp	r4, #0
 8004eaa:	d0e1      	beq.n	8004e70 <_vsniprintf_r+0x14>
 8004eac:	2200      	movs	r2, #0
 8004eae:	9b00      	ldr	r3, [sp, #0]
 8004eb0:	701a      	strb	r2, [r3, #0]
 8004eb2:	e7dd      	b.n	8004e70 <_vsniprintf_r+0x14>

08004eb4 <vsniprintf>:
 8004eb4:	b507      	push	{r0, r1, r2, lr}
 8004eb6:	9300      	str	r3, [sp, #0]
 8004eb8:	4613      	mov	r3, r2
 8004eba:	460a      	mov	r2, r1
 8004ebc:	4601      	mov	r1, r0
 8004ebe:	4803      	ldr	r0, [pc, #12]	; (8004ecc <vsniprintf+0x18>)
 8004ec0:	6800      	ldr	r0, [r0, #0]
 8004ec2:	f7ff ffcb 	bl	8004e5c <_vsniprintf_r>
 8004ec6:	b003      	add	sp, #12
 8004ec8:	f85d fb04 	ldr.w	pc, [sp], #4
 8004ecc:	20000074 	.word	0x20000074

08004ed0 <__ssputs_r>:
 8004ed0:	e92d 47f0 	stmdb	sp!, {r4, r5, r6, r7, r8, r9, sl, lr}
 8004ed4:	688e      	ldr	r6, [r1, #8]
 8004ed6:	4682      	mov	sl, r0
 8004ed8:	429e      	cmp	r6, r3
 8004eda:	460c      	mov	r4, r1
 8004edc:	4690      	mov	r8, r2
 8004ede:	461f      	mov	r7, r3
 8004ee0:	d838      	bhi.n	8004f54 <__ssputs_r+0x84>
 8004ee2:	898a      	ldrh	r2, [r1, #12]
 8004ee4:	f412 6f90 	tst.w	r2, #1152	; 0x480
 8004ee8:	d032      	beq.n	8004f50 <__ssputs_r+0x80>
 8004eea:	6825      	ldr	r5, [r4, #0]
 8004eec:	6909      	ldr	r1, [r1, #16]
 8004eee:	3301      	adds	r3, #1
 8004ef0:	eba5 0901 	sub.w	r9, r5, r1
 8004ef4:	6965      	ldr	r5, [r4, #20]
 8004ef6:	444b      	add	r3, r9
 8004ef8:	eb05 0545 	add.w	r5, r5, r5, lsl #1
 8004efc:	eb05 75d5 	add.w	r5, r5, r5, lsr #31
 8004f00:	106d      	asrs	r5, r5, #1
 8004f02:	429d      	cmp	r5, r3
 8004f04:	bf38      	it	cc
 8004f06:	461d      	movcc	r5, r3
 8004f08:	0553      	lsls	r3, r2, #21
 8004f0a:	d531      	bpl.n	8004f70 <__ssputs_r+0xa0>
 8004f0c:	4629      	mov	r1, r5
 8004f0e:	f000 fb53 	bl	80055b8 <_malloc_r>
 8004f12:	4606      	mov	r6, r0
 8004f14:	b950      	cbnz	r0, 8004f2c <__ssputs_r+0x5c>
 8004f16:	230c      	movs	r3, #12
 8004f18:	f04f 30ff 	mov.w	r0, #4294967295
 8004f1c:	f8ca 3000 	str.w	r3, [sl]
 8004f20:	89a3      	ldrh	r3, [r4, #12]
 8004f22:	f043 0340 	orr.w	r3, r3, #64	; 0x40
 8004f26:	81a3      	strh	r3, [r4, #12]
 8004f28:	e8bd 87f0 	ldmia.w	sp!, {r4, r5, r6, r7, r8, r9, sl, pc}
 8004f2c:	464a      	mov	r2, r9
 8004f2e:	6921      	ldr	r1, [r4, #16]
 8004f30:	f7ff ff4e 	bl	8004dd0 <memcpy>
 8004f34:	89a3      	ldrh	r3, [r4, #12]
 8004f36:	f423 6390 	bic.w	r3, r3, #1152	; 0x480
 8004f3a:	f043 0380 	orr.w	r3, r3, #128	; 0x80
 8004f3e:	81a3      	strh	r3, [r4, #12]
 8004f40:	6126      	str	r6, [r4, #16]
 8004f42:	444e      	add	r6, r9
 8004f44:	6026      	str	r6, [r4, #0]
 8004f46:	463e      	mov	r6, r7
 8004f48:	6165      	str	r5, [r4, #20]
 8004f4a:	eba5 0509 	sub.w	r5, r5, r9
 8004f4e:	60a5      	str	r5, [r4, #8]
 8004f50:	42be      	cmp	r6, r7
 8004f52:	d900      	bls.n	8004f56 <__ssputs_r+0x86>
 8004f54:	463e      	mov	r6, r7
 8004f56:	4632      	mov	r2, r6
 8004f58:	4641      	mov	r1, r8
 8004f5a:	6820      	ldr	r0, [r4, #0]
 8004f5c:	f000 fac5 	bl	80054ea <memmove>
 8004f60:	68a3      	ldr	r3, [r4, #8]
 8004f62:	6822      	ldr	r2, [r4, #0]
 8004f64:	1b9b      	subs	r3, r3, r6
 8004f66:	4432      	add	r2, r6
 8004f68:	2000      	movs	r0, #0
 8004f6a:	60a3      	str	r3, [r4, #8]
 8004f6c:	6022      	str	r2, [r4, #0]
 8004f6e:	e7db      	b.n	8004f28 <__ssputs_r+0x58>
 8004f70:	462a      	mov	r2, r5
 8004f72:	f000 fb7b 	bl	800566c <_realloc_r>
 8004f76:	4606      	mov	r6, r0
 8004f78:	2800      	cmp	r0, #0
 8004f7a:	d1e1      	bne.n	8004f40 <__ssputs_r+0x70>
 8004f7c:	4650      	mov	r0, sl
 8004f7e:	6921      	ldr	r1, [r4, #16]
 8004f80:	f000 face 	bl	8005520 <_free_r>
 8004f84:	e7c7      	b.n	8004f16 <__ssputs_r+0x46>
	...

08004f88 <_svfiprintf_r>:
 8004f88:	e92d 4ff0 	stmdb	sp!, {r4, r5, r6, r7, r8, r9, sl, fp, lr}
 8004f8c:	4698      	mov	r8, r3
 8004f8e:	898b      	ldrh	r3, [r1, #12]
 8004f90:	4607      	mov	r7, r0
 8004f92:	061b      	lsls	r3, r3, #24
 8004f94:	460d      	mov	r5, r1
 8004f96:	4614      	mov	r4, r2
 8004f98:	b09d      	sub	sp, #116	; 0x74
 8004f9a:	d50e      	bpl.n	8004fba <_svfiprintf_r+0x32>
 8004f9c:	690b      	ldr	r3, [r1, #16]
 8004f9e:	b963      	cbnz	r3, 8004fba <_svfiprintf_r+0x32>
 8004fa0:	2140      	movs	r1, #64	; 0x40
 8004fa2:	f000 fb09 	bl	80055b8 <_malloc_r>
 8004fa6:	6028      	str	r0, [r5, #0]
 8004fa8:	6128      	str	r0, [r5, #16]
 8004faa:	b920      	cbnz	r0, 8004fb6 <_svfiprintf_r+0x2e>
 8004fac:	230c      	movs	r3, #12
 8004fae:	603b      	str	r3, [r7, #0]
 8004fb0:	f04f 30ff 	mov.w	r0, #4294967295
 8004fb4:	e0d1      	b.n	800515a <_svfiprintf_r+0x1d2>
 8004fb6:	2340      	movs	r3, #64	; 0x40
 8004fb8:	616b      	str	r3, [r5, #20]
 8004fba:	2300      	movs	r3, #0
 8004fbc:	9309      	str	r3, [sp, #36]	; 0x24
 8004fbe:	2320      	movs	r3, #32
 8004fc0:	f88d 3029 	strb.w	r3, [sp, #41]	; 0x29
 8004fc4:	2330      	movs	r3, #48	; 0x30
 8004fc6:	f04f 0901 	mov.w	r9, #1
 8004fca:	f8cd 800c 	str.w	r8, [sp, #12]
 8004fce:	f8df 81a4 	ldr.w	r8, [pc, #420]	; 8005174 <_svfiprintf_r+0x1ec>
 8004fd2:	f88d 302a 	strb.w	r3, [sp, #42]	; 0x2a
 8004fd6:	4623      	mov	r3, r4
 8004fd8:	469a      	mov	sl, r3
 8004fda:	f813 2b01 	ldrb.w	r2, [r3], #1
 8004fde:	b10a      	cbz	r2, 8004fe4 <_svfiprintf_r+0x5c>
 8004fe0:	2a25      	cmp	r2, #37	; 0x25
 8004fe2:	d1f9      	bne.n	8004fd8 <_svfiprintf_r+0x50>
 8004fe4:	ebba 0b04 	subs.w	fp, sl, r4
 8004fe8:	d00b      	beq.n	8005002 <_svfiprintf_r+0x7a>
 8004fea:	465b      	mov	r3, fp
 8004fec:	4622      	mov	r2, r4
 8004fee:	4629      	mov	r1, r5
 8004ff0:	4638      	mov	r0, r7
 8004ff2:	f7ff ff6d 	bl	8004ed0 <__ssputs_r>
 8004ff6:	3001      	adds	r0, #1
 8004ff8:	f000 80aa 	beq.w	8005150 <_svfiprintf_r+0x1c8>
 8004ffc:	9a09      	ldr	r2, [sp, #36]	; 0x24
 8004ffe:	445a      	add	r2, fp
 8005000:	9209      	str	r2, [sp, #36]	; 0x24
 8005002:	f89a 3000 	ldrb.w	r3, [sl]
 8005006:	2b00      	cmp	r3, #0
 8005008:	f000 80a2 	beq.w	8005150 <_svfiprintf_r+0x1c8>
 800500c:	2300      	movs	r3, #0
 800500e:	f04f 32ff 	mov.w	r2, #4294967295
 8005012:	e9cd 2305 	strd	r2, r3, [sp, #20]
 8005016:	f10a 0a01 	add.w	sl, sl, #1
 800501a:	9304      	str	r3, [sp, #16]
 800501c:	9307      	str	r3, [sp, #28]
 800501e:	f88d 3053 	strb.w	r3, [sp, #83]	; 0x53
 8005022:	931a      	str	r3, [sp, #104]	; 0x68
 8005024:	4654      	mov	r4, sl
 8005026:	2205      	movs	r2, #5
 8005028:	f814 1b01 	ldrb.w	r1, [r4], #1
 800502c:	4851      	ldr	r0, [pc, #324]	; (8005174 <_svfiprintf_r+0x1ec>)
 800502e:	f000 fa4e 	bl	80054ce <memchr>
 8005032:	9a04      	ldr	r2, [sp, #16]
 8005034:	b9d8      	cbnz	r0, 800506e <_svfiprintf_r+0xe6>
 8005036:	06d0      	lsls	r0, r2, #27
 8005038:	bf44      	itt	mi
 800503a:	2320      	movmi	r3, #32
 800503c:	f88d 3053 	strbmi.w	r3, [sp, #83]	; 0x53
 8005040:	0711      	lsls	r1, r2, #28
 8005042:	bf44      	itt	mi
 8005044:	232b      	movmi	r3, #43	; 0x2b
 8005046:	f88d 3053 	strbmi.w	r3, [sp, #83]	; 0x53
 800504a:	f89a 3000 	ldrb.w	r3, [sl]
 800504e:	2b2a      	cmp	r3, #42	; 0x2a
 8005050:	d015      	beq.n	800507e <_svfiprintf_r+0xf6>
 8005052:	4654      	mov	r4, sl
 8005054:	2000      	movs	r0, #0
 8005056:	f04f 0c0a 	mov.w	ip, #10
 800505a:	9a07      	ldr	r2, [sp, #28]
 800505c:	4621      	mov	r1, r4
 800505e:	f811 3b01 	ldrb.w	r3, [r1], #1
 8005062:	3b30      	subs	r3, #48	; 0x30
 8005064:	2b09      	cmp	r3, #9
 8005066:	d94e      	bls.n	8005106 <_svfiprintf_r+0x17e>
 8005068:	b1b0      	cbz	r0, 8005098 <_svfiprintf_r+0x110>
 800506a:	9207      	str	r2, [sp, #28]
 800506c:	e014      	b.n	8005098 <_svfiprintf_r+0x110>
 800506e:	eba0 0308 	sub.w	r3, r0, r8
 8005072:	fa09 f303 	lsl.w	r3, r9, r3
 8005076:	4313      	orrs	r3, r2
 8005078:	46a2      	mov	sl, r4
 800507a:	9304      	str	r3, [sp, #16]
 800507c:	e7d2      	b.n	8005024 <_svfiprintf_r+0x9c>
 800507e:	9b03      	ldr	r3, [sp, #12]
 8005080:	1d19      	adds	r1, r3, #4
 8005082:	681b      	ldr	r3, [r3, #0]
 8005084:	9103      	str	r1, [sp, #12]
 8005086:	2b00      	cmp	r3, #0
 8005088:	bfbb      	ittet	lt
 800508a:	425b      	neglt	r3, r3
 800508c:	f042 0202 	orrlt.w	r2, r2, #2
 8005090:	9307      	strge	r3, [sp, #28]
 8005092:	9307      	strlt	r3, [sp, #28]
 8005094:	bfb8      	it	lt
 8005096:	9204      	strlt	r2, [sp, #16]
 8005098:	7823      	ldrb	r3, [r4, #0]
 800509a:	2b2e      	cmp	r3, #46	; 0x2e
 800509c:	d10c      	bne.n	80050b8 <_svfiprintf_r+0x130>
 800509e:	7863      	ldrb	r3, [r4, #1]
 80050a0:	2b2a      	cmp	r3, #42	; 0x2a
 80050a2:	d135      	bne.n	8005110 <_svfiprintf_r+0x188>
 80050a4:	9b03      	ldr	r3, [sp, #12]
 80050a6:	3402      	adds	r4, #2
 80050a8:	1d1a      	adds	r2, r3, #4
 80050aa:	681b      	ldr	r3, [r3, #0]
 80050ac:	9203      	str	r2, [sp, #12]
 80050ae:	2b00      	cmp	r3, #0
 80050b0:	bfb8      	it	lt
 80050b2:	f04f 33ff 	movlt.w	r3, #4294967295
 80050b6:	9305      	str	r3, [sp, #20]
 80050b8:	f8df a0c8 	ldr.w	sl, [pc, #200]	; 8005184 <_svfiprintf_r+0x1fc>
 80050bc:	2203      	movs	r2, #3
 80050be:	4650      	mov	r0, sl
 80050c0:	7821      	ldrb	r1, [r4, #0]
 80050c2:	f000 fa04 	bl	80054ce <memchr>
 80050c6:	b140      	cbz	r0, 80050da <_svfiprintf_r+0x152>
 80050c8:	2340      	movs	r3, #64	; 0x40
 80050ca:	eba0 000a 	sub.w	r0, r0, sl
 80050ce:	fa03 f000 	lsl.w	r0, r3, r0
 80050d2:	9b04      	ldr	r3, [sp, #16]
 80050d4:	3401      	adds	r4, #1
 80050d6:	4303      	orrs	r3, r0
 80050d8:	9304      	str	r3, [sp, #16]
 80050da:	f814 1b01 	ldrb.w	r1, [r4], #1
 80050de:	2206      	movs	r2, #6
 80050e0:	4825      	ldr	r0, [pc, #148]	; (8005178 <_svfiprintf_r+0x1f0>)
 80050e2:	f88d 1028 	strb.w	r1, [sp, #40]	; 0x28
 80050e6:	f000 f9f2 	bl	80054ce <memchr>
 80050ea:	2800      	cmp	r0, #0
 80050ec:	d038      	beq.n	8005160 <_svfiprintf_r+0x1d8>
 80050ee:	4b23      	ldr	r3, [pc, #140]	; (800517c <_svfiprintf_r+0x1f4>)
 80050f0:	bb1b      	cbnz	r3, 800513a <_svfiprintf_r+0x1b2>
 80050f2:	9b03      	ldr	r3, [sp, #12]
 80050f4:	3307      	adds	r3, #7
 80050f6:	f023 0307 	bic.w	r3, r3, #7
 80050fa:	3308      	adds	r3, #8
 80050fc:	9303      	str	r3, [sp, #12]
 80050fe:	9b09      	ldr	r3, [sp, #36]	; 0x24
 8005100:	4433      	add	r3, r6
 8005102:	9309      	str	r3, [sp, #36]	; 0x24
 8005104:	e767      	b.n	8004fd6 <_svfiprintf_r+0x4e>
 8005106:	460c      	mov	r4, r1
 8005108:	2001      	movs	r0, #1
 800510a:	fb0c 3202 	mla	r2, ip, r2, r3
 800510e:	e7a5      	b.n	800505c <_svfiprintf_r+0xd4>
 8005110:	2300      	movs	r3, #0
 8005112:	f04f 0c0a 	mov.w	ip, #10
 8005116:	4619      	mov	r1, r3
 8005118:	3401      	adds	r4, #1
 800511a:	9305      	str	r3, [sp, #20]
 800511c:	4620      	mov	r0, r4
 800511e:	f810 2b01 	ldrb.w	r2, [r0], #1
 8005122:	3a30      	subs	r2, #48	; 0x30
 8005124:	2a09      	cmp	r2, #9
 8005126:	d903      	bls.n	8005130 <_svfiprintf_r+0x1a8>
 8005128:	2b00      	cmp	r3, #0
 800512a:	d0c5      	beq.n	80050b8 <_svfiprintf_r+0x130>
 800512c:	9105      	str	r1, [sp, #20]
 800512e:	e7c3      	b.n	80050b8 <_svfiprintf_r+0x130>
 8005130:	4604      	mov	r4, r0
 8005132:	2301      	movs	r3, #1
 8005134:	fb0c 2101 	mla	r1, ip, r1, r2
 8005138:	e7f0      	b.n	800511c <_svfiprintf_r+0x194>
 800513a:	ab03      	add	r3, sp, #12
 800513c:	9300      	str	r3, [sp, #0]
 800513e:	462a      	mov	r2, r5
 8005140:	4638      	mov	r0, r7
 8005142:	4b0f      	ldr	r3, [pc, #60]	; (8005180 <_svfiprintf_r+0x1f8>)
 8005144:	a904      	add	r1, sp, #16
 8005146:	f3af 8000 	nop.w
 800514a:	1c42      	adds	r2, r0, #1
 800514c:	4606      	mov	r6, r0
 800514e:	d1d6      	bne.n	80050fe <_svfiprintf_r+0x176>
 8005150:	89ab      	ldrh	r3, [r5, #12]
 8005152:	065b      	lsls	r3, r3, #25
 8005154:	f53f af2c 	bmi.w	8004fb0 <_svfiprintf_r+0x28>
 8005158:	9809      	ldr	r0, [sp, #36]	; 0x24
 800515a:	b01d      	add	sp, #116	; 0x74
 800515c:	e8bd 8ff0 	ldmia.w	sp!, {r4, r5, r6, r7, r8, r9, sl, fp, pc}
 8005160:	ab03      	add	r3, sp, #12
 8005162:	9300      	str	r3, [sp, #0]
 8005164:	462a      	mov	r2, r5
 8005166:	4638      	mov	r0, r7
 8005168:	4b05      	ldr	r3, [pc, #20]	; (8005180 <_svfiprintf_r+0x1f8>)
 800516a:	a904      	add	r1, sp, #16
 800516c:	f000 f87c 	bl	8005268 <_printf_i>
 8005170:	e7eb      	b.n	800514a <_svfiprintf_r+0x1c2>
 8005172:	bf00      	nop
 8005174:	0800626f 	.word	0x0800626f
 8005178:	08006279 	.word	0x08006279
 800517c:	00000000 	.word	0x00000000
 8005180:	08004ed1 	.word	0x08004ed1
 8005184:	08006275 	.word	0x08006275

08005188 <_printf_common>:
 8005188:	e92d 47f0 	stmdb	sp!, {r4, r5, r6, r7, r8, r9, sl, lr}
 800518c:	4616      	mov	r6, r2
 800518e:	4699      	mov	r9, r3
 8005190:	688a      	ldr	r2, [r1, #8]
 8005192:	690b      	ldr	r3, [r1, #16]
 8005194:	4607      	mov	r7, r0
 8005196:	4293      	cmp	r3, r2
 8005198:	bfb8      	it	lt
 800519a:	4613      	movlt	r3, r2
 800519c:	6033      	str	r3, [r6, #0]
 800519e:	f891 2043 	ldrb.w	r2, [r1, #67]	; 0x43
 80051a2:	460c      	mov	r4, r1
 80051a4:	f8dd 8020 	ldr.w	r8, [sp, #32]
 80051a8:	b10a      	cbz	r2, 80051ae <_printf_common+0x26>
 80051aa:	3301      	adds	r3, #1
 80051ac:	6033      	str	r3, [r6, #0]
 80051ae:	6823      	ldr	r3, [r4, #0]
 80051b0:	0699      	lsls	r1, r3, #26
 80051b2:	bf42      	ittt	mi
 80051b4:	6833      	ldrmi	r3, [r6, #0]
 80051b6:	3302      	addmi	r3, #2
 80051b8:	6033      	strmi	r3, [r6, #0]
 80051ba:	6825      	ldr	r5, [r4, #0]
 80051bc:	f015 0506 	ands.w	r5, r5, #6
 80051c0:	d106      	bne.n	80051d0 <_printf_common+0x48>
 80051c2:	f104 0a19 	add.w	sl, r4, #25
 80051c6:	68e3      	ldr	r3, [r4, #12]
 80051c8:	6832      	ldr	r2, [r6, #0]
 80051ca:	1a9b      	subs	r3, r3, r2
 80051cc:	42ab      	cmp	r3, r5
 80051ce:	dc28      	bgt.n	8005222 <_printf_common+0x9a>
 80051d0:	f894 2043 	ldrb.w	r2, [r4, #67]	; 0x43
 80051d4:	1e13      	subs	r3, r2, #0
 80051d6:	6822      	ldr	r2, [r4, #0]
 80051d8:	bf18      	it	ne
 80051da:	2301      	movne	r3, #1
 80051dc:	0692      	lsls	r2, r2, #26
 80051de:	d42d      	bmi.n	800523c <_printf_common+0xb4>
 80051e0:	4649      	mov	r1, r9
 80051e2:	4638      	mov	r0, r7
 80051e4:	f104 0243 	add.w	r2, r4, #67	; 0x43
 80051e8:	47c0      	blx	r8
 80051ea:	3001      	adds	r0, #1
 80051ec:	d020      	beq.n	8005230 <_printf_common+0xa8>
 80051ee:	6823      	ldr	r3, [r4, #0]
 80051f0:	68e5      	ldr	r5, [r4, #12]
 80051f2:	f003 0306 	and.w	r3, r3, #6
 80051f6:	2b04      	cmp	r3, #4
 80051f8:	bf18      	it	ne
 80051fa:	2500      	movne	r5, #0
 80051fc:	6832      	ldr	r2, [r6, #0]
 80051fe:	f04f 0600 	mov.w	r6, #0
 8005202:	68a3      	ldr	r3, [r4, #8]
 8005204:	bf08      	it	eq
 8005206:	1aad      	subeq	r5, r5, r2
 8005208:	6922      	ldr	r2, [r4, #16]
 800520a:	bf08      	it	eq
 800520c:	ea25 75e5 	biceq.w	r5, r5, r5, asr #31
 8005210:	4293      	cmp	r3, r2
 8005212:	bfc4      	itt	gt
 8005214:	1a9b      	subgt	r3, r3, r2
 8005216:	18ed      	addgt	r5, r5, r3
 8005218:	341a      	adds	r4, #26
 800521a:	42b5      	cmp	r5, r6
 800521c:	d11a      	bne.n	8005254 <_printf_common+0xcc>
 800521e:	2000      	movs	r0, #0
 8005220:	e008      	b.n	8005234 <_printf_common+0xac>
 8005222:	2301      	movs	r3, #1
 8005224:	4652      	mov	r2, sl
 8005226:	4649      	mov	r1, r9
 8005228:	4638      	mov	r0, r7
 800522a:	47c0      	blx	r8
 800522c:	3001      	adds	r0, #1
 800522e:	d103      	bne.n	8005238 <_printf_common+0xb0>
 8005230:	f04f 30ff 	mov.w	r0, #4294967295
 8005234:	e8bd 87f0 	ldmia.w	sp!, {r4, r5, r6, r7, r8, r9, sl, pc}
 8005238:	3501      	adds	r5, #1
 800523a:	e7c4      	b.n	80051c6 <_printf_common+0x3e>
 800523c:	2030      	movs	r0, #48	; 0x30
 800523e:	18e1      	adds	r1, r4, r3
 8005240:	f881 0043 	strb.w	r0, [r1, #67]	; 0x43
 8005244:	1c5a      	adds	r2, r3, #1
 8005246:	f894 1045 	ldrb.w	r1, [r4, #69]	; 0x45
 800524a:	4422      	add	r2, r4
 800524c:	3302      	adds	r3, #2
 800524e:	f882 1043 	strb.w	r1, [r2, #67]	; 0x43
 8005252:	e7c5      	b.n	80051e0 <_printf_common+0x58>
 8005254:	2301      	movs	r3, #1
 8005256:	4622      	mov	r2, r4
 8005258:	4649      	mov	r1, r9
 800525a:	4638      	mov	r0, r7
 800525c:	47c0      	blx	r8
 800525e:	3001      	adds	r0, #1
 8005260:	d0e6      	beq.n	8005230 <_printf_common+0xa8>
 8005262:	3601      	adds	r6, #1
 8005264:	e7d9      	b.n	800521a <_printf_common+0x92>
	...

08005268 <_printf_i>:
 8005268:	e92d 47ff 	stmdb	sp!, {r0, r1, r2, r3, r4, r5, r6, r7, r8, r9, sl, lr}
 800526c:	460c      	mov	r4, r1
 800526e:	7e27      	ldrb	r7, [r4, #24]
 8005270:	4691      	mov	r9, r2
 8005272:	2f78      	cmp	r7, #120	; 0x78
 8005274:	4680      	mov	r8, r0
 8005276:	469a      	mov	sl, r3
 8005278:	990c      	ldr	r1, [sp, #48]	; 0x30
 800527a:	f104 0243 	add.w	r2, r4, #67	; 0x43
 800527e:	d807      	bhi.n	8005290 <_printf_i+0x28>
 8005280:	2f62      	cmp	r7, #98	; 0x62
 8005282:	d80a      	bhi.n	800529a <_printf_i+0x32>
 8005284:	2f00      	cmp	r7, #0
 8005286:	f000 80d9 	beq.w	800543c <_printf_i+0x1d4>
 800528a:	2f58      	cmp	r7, #88	; 0x58
 800528c:	f000 80a4 	beq.w	80053d8 <_printf_i+0x170>
 8005290:	f104 0642 	add.w	r6, r4, #66	; 0x42
 8005294:	f884 7042 	strb.w	r7, [r4, #66]	; 0x42
 8005298:	e03a      	b.n	8005310 <_printf_i+0xa8>
 800529a:	f1a7 0363 	sub.w	r3, r7, #99	; 0x63
 800529e:	2b15      	cmp	r3, #21
 80052a0:	d8f6      	bhi.n	8005290 <_printf_i+0x28>
 80052a2:	a001      	add	r0, pc, #4	; (adr r0, 80052a8 <_printf_i+0x40>)
 80052a4:	f850 f023 	ldr.w	pc, [r0, r3, lsl #2]
 80052a8:	08005301 	.word	0x08005301
 80052ac:	08005315 	.word	0x08005315
 80052b0:	08005291 	.word	0x08005291
 80052b4:	08005291 	.word	0x08005291
 80052b8:	08005291 	.word	0x08005291
 80052bc:	08005291 	.word	0x08005291
 80052c0:	08005315 	.word	0x08005315
 80052c4:	08005291 	.word	0x08005291
 80052c8:	08005291 	.word	0x08005291
 80052cc:	08005291 	.word	0x08005291
 80052d0:	08005291 	.word	0x08005291
 80052d4:	08005423 	.word	0x08005423
 80052d8:	08005345 	.word	0x08005345
 80052dc:	08005405 	.word	0x08005405
 80052e0:	08005291 	.word	0x08005291
 80052e4:	08005291 	.word	0x08005291
 80052e8:	08005445 	.word	0x08005445
 80052ec:	08005291 	.word	0x08005291
 80052f0:	08005345 	.word	0x08005345
 80052f4:	08005291 	.word	0x08005291
 80052f8:	08005291 	.word	0x08005291
 80052fc:	0800540d 	.word	0x0800540d
 8005300:	680b      	ldr	r3, [r1, #0]
 8005302:	f104 0642 	add.w	r6, r4, #66	; 0x42
 8005306:	1d1a      	adds	r2, r3, #4
 8005308:	681b      	ldr	r3, [r3, #0]
 800530a:	600a      	str	r2, [r1, #0]
 800530c:	f884 3042 	strb.w	r3, [r4, #66]	; 0x42
 8005310:	2301      	movs	r3, #1
 8005312:	e0a4      	b.n	800545e <_printf_i+0x1f6>
 8005314:	6825      	ldr	r5, [r4, #0]
 8005316:	6808      	ldr	r0, [r1, #0]
 8005318:	062e      	lsls	r6, r5, #24
 800531a:	f100 0304 	add.w	r3, r0, #4
 800531e:	d50a      	bpl.n	8005336 <_printf_i+0xce>
 8005320:	6805      	ldr	r5, [r0, #0]
 8005322:	600b      	str	r3, [r1, #0]
 8005324:	2d00      	cmp	r5, #0
 8005326:	da03      	bge.n	8005330 <_printf_i+0xc8>
 8005328:	232d      	movs	r3, #45	; 0x2d
 800532a:	426d      	negs	r5, r5
 800532c:	f884 3043 	strb.w	r3, [r4, #67]	; 0x43
 8005330:	230a      	movs	r3, #10
 8005332:	485e      	ldr	r0, [pc, #376]	; (80054ac <_printf_i+0x244>)
 8005334:	e019      	b.n	800536a <_printf_i+0x102>
 8005336:	f015 0f40 	tst.w	r5, #64	; 0x40
 800533a:	6805      	ldr	r5, [r0, #0]
 800533c:	600b      	str	r3, [r1, #0]
 800533e:	bf18      	it	ne
 8005340:	b22d      	sxthne	r5, r5
 8005342:	e7ef      	b.n	8005324 <_printf_i+0xbc>
 8005344:	680b      	ldr	r3, [r1, #0]
 8005346:	6825      	ldr	r5, [r4, #0]
 8005348:	1d18      	adds	r0, r3, #4
 800534a:	6008      	str	r0, [r1, #0]
 800534c:	0628      	lsls	r0, r5, #24
 800534e:	d501      	bpl.n	8005354 <_printf_i+0xec>
 8005350:	681d      	ldr	r5, [r3, #0]
 8005352:	e002      	b.n	800535a <_printf_i+0xf2>
 8005354:	0669      	lsls	r1, r5, #25
 8005356:	d5fb      	bpl.n	8005350 <_printf_i+0xe8>
 8005358:	881d      	ldrh	r5, [r3, #0]
 800535a:	2f6f      	cmp	r7, #111	; 0x6f
 800535c:	bf0c      	ite	eq
 800535e:	2308      	moveq	r3, #8
 8005360:	230a      	movne	r3, #10
 8005362:	4852      	ldr	r0, [pc, #328]	; (80054ac <_printf_i+0x244>)
 8005364:	2100      	movs	r1, #0
 8005366:	f884 1043 	strb.w	r1, [r4, #67]	; 0x43
 800536a:	6866      	ldr	r6, [r4, #4]
 800536c:	2e00      	cmp	r6, #0
 800536e:	bfa8      	it	ge
 8005370:	6821      	ldrge	r1, [r4, #0]
 8005372:	60a6      	str	r6, [r4, #8]
 8005374:	bfa4      	itt	ge
 8005376:	f021 0104 	bicge.w	r1, r1, #4
 800537a:	6021      	strge	r1, [r4, #0]
 800537c:	b90d      	cbnz	r5, 8005382 <_printf_i+0x11a>
 800537e:	2e00      	cmp	r6, #0
 8005380:	d04d      	beq.n	800541e <_printf_i+0x1b6>
 8005382:	4616      	mov	r6, r2
 8005384:	fbb5 f1f3 	udiv	r1, r5, r3
 8005388:	fb03 5711 	mls	r7, r3, r1, r5
 800538c:	5dc7      	ldrb	r7, [r0, r7]
 800538e:	f806 7d01 	strb.w	r7, [r6, #-1]!
 8005392:	462f      	mov	r7, r5
 8005394:	42bb      	cmp	r3, r7
 8005396:	460d      	mov	r5, r1
 8005398:	d9f4      	bls.n	8005384 <_printf_i+0x11c>
 800539a:	2b08      	cmp	r3, #8
 800539c:	d10b      	bne.n	80053b6 <_printf_i+0x14e>
 800539e:	6823      	ldr	r3, [r4, #0]
 80053a0:	07df      	lsls	r7, r3, #31
 80053a2:	d508      	bpl.n	80053b6 <_printf_i+0x14e>
 80053a4:	6923      	ldr	r3, [r4, #16]
 80053a6:	6861      	ldr	r1, [r4, #4]
 80053a8:	4299      	cmp	r1, r3
 80053aa:	bfde      	ittt	le
 80053ac:	2330      	movle	r3, #48	; 0x30
 80053ae:	f806 3c01 	strble.w	r3, [r6, #-1]
 80053b2:	f106 36ff 	addle.w	r6, r6, #4294967295
 80053b6:	1b92      	subs	r2, r2, r6
 80053b8:	6122      	str	r2, [r4, #16]
 80053ba:	464b      	mov	r3, r9
 80053bc:	4621      	mov	r1, r4
 80053be:	4640      	mov	r0, r8
 80053c0:	f8cd a000 	str.w	sl, [sp]
 80053c4:	aa03      	add	r2, sp, #12
 80053c6:	f7ff fedf 	bl	8005188 <_printf_common>
 80053ca:	3001      	adds	r0, #1
 80053cc:	d14c      	bne.n	8005468 <_printf_i+0x200>
 80053ce:	f04f 30ff 	mov.w	r0, #4294967295
 80053d2:	b004      	add	sp, #16
 80053d4:	e8bd 87f0 	ldmia.w	sp!, {r4, r5, r6, r7, r8, r9, sl, pc}
 80053d8:	4834      	ldr	r0, [pc, #208]	; (80054ac <_printf_i+0x244>)
 80053da:	f884 7045 	strb.w	r7, [r4, #69]	; 0x45
 80053de:	680e      	ldr	r6, [r1, #0]
 80053e0:	6823      	ldr	r3, [r4, #0]
 80053e2:	f856 5b04 	ldr.w	r5, [r6], #4
 80053e6:	061f      	lsls	r7, r3, #24
 80053e8:	600e      	str	r6, [r1, #0]
 80053ea:	d514      	bpl.n	8005416 <_printf_i+0x1ae>
 80053ec:	07d9      	lsls	r1, r3, #31
 80053ee:	bf44      	itt	mi
 80053f0:	f043 0320 	orrmi.w	r3, r3, #32
 80053f4:	6023      	strmi	r3, [r4, #0]
 80053f6:	b91d      	cbnz	r5, 8005400 <_printf_i+0x198>
 80053f8:	6823      	ldr	r3, [r4, #0]
 80053fa:	f023 0320 	bic.w	r3, r3, #32
 80053fe:	6023      	str	r3, [r4, #0]
 8005400:	2310      	movs	r3, #16
 8005402:	e7af      	b.n	8005364 <_printf_i+0xfc>
 8005404:	6823      	ldr	r3, [r4, #0]
 8005406:	f043 0320 	orr.w	r3, r3, #32
 800540a:	6023      	str	r3, [r4, #0]
 800540c:	2378      	movs	r3, #120	; 0x78
 800540e:	4828      	ldr	r0, [pc, #160]	; (80054b0 <_printf_i+0x248>)
 8005410:	f884 3045 	strb.w	r3, [r4, #69]	; 0x45
 8005414:	e7e3      	b.n	80053de <_printf_i+0x176>
 8005416:	065e      	lsls	r6, r3, #25
 8005418:	bf48      	it	mi
 800541a:	b2ad      	uxthmi	r5, r5
 800541c:	e7e6      	b.n	80053ec <_printf_i+0x184>
 800541e:	4616      	mov	r6, r2
 8005420:	e7bb      	b.n	800539a <_printf_i+0x132>
 8005422:	680b      	ldr	r3, [r1, #0]
 8005424:	6826      	ldr	r6, [r4, #0]
 8005426:	1d1d      	adds	r5, r3, #4
 8005428:	6960      	ldr	r0, [r4, #20]
 800542a:	600d      	str	r5, [r1, #0]
 800542c:	0635      	lsls	r5, r6, #24
 800542e:	681b      	ldr	r3, [r3, #0]
 8005430:	d501      	bpl.n	8005436 <_printf_i+0x1ce>
 8005432:	6018      	str	r0, [r3, #0]
 8005434:	e002      	b.n	800543c <_printf_i+0x1d4>
 8005436:	0671      	lsls	r1, r6, #25
 8005438:	d5fb      	bpl.n	8005432 <_printf_i+0x1ca>
 800543a:	8018      	strh	r0, [r3, #0]
 800543c:	2300      	movs	r3, #0
 800543e:	4616      	mov	r6, r2
 8005440:	6123      	str	r3, [r4, #16]
 8005442:	e7ba      	b.n	80053ba <_printf_i+0x152>
 8005444:	680b      	ldr	r3, [r1, #0]
 8005446:	1d1a      	adds	r2, r3, #4
 8005448:	600a      	str	r2, [r1, #0]
 800544a:	681e      	ldr	r6, [r3, #0]
 800544c:	2100      	movs	r1, #0
 800544e:	4630      	mov	r0, r6
 8005450:	6862      	ldr	r2, [r4, #4]
 8005452:	f000 f83c 	bl	80054ce <memchr>
 8005456:	b108      	cbz	r0, 800545c <_printf_i+0x1f4>
 8005458:	1b80      	subs	r0, r0, r6
 800545a:	6060      	str	r0, [r4, #4]
 800545c:	6863      	ldr	r3, [r4, #4]
 800545e:	6123      	str	r3, [r4, #16]
 8005460:	2300      	movs	r3, #0
 8005462:	f884 3043 	strb.w	r3, [r4, #67]	; 0x43
 8005466:	e7a8      	b.n	80053ba <_printf_i+0x152>
 8005468:	4632      	mov	r2, r6
 800546a:	4649      	mov	r1, r9
 800546c:	4640      	mov	r0, r8
 800546e:	6923      	ldr	r3, [r4, #16]
 8005470:	47d0      	blx	sl
 8005472:	3001      	adds	r0, #1
 8005474:	d0ab      	beq.n	80053ce <_printf_i+0x166>
 8005476:	6823      	ldr	r3, [r4, #0]
 8005478:	079b      	lsls	r3, r3, #30
 800547a:	d413      	bmi.n	80054a4 <_printf_i+0x23c>
 800547c:	68e0      	ldr	r0, [r4, #12]
 800547e:	9b03      	ldr	r3, [sp, #12]
 8005480:	4298      	cmp	r0, r3
 8005482:	bfb8      	it	lt
 8005484:	4618      	movlt	r0, r3
 8005486:	e7a4      	b.n	80053d2 <_printf_i+0x16a>
 8005488:	2301      	movs	r3, #1
 800548a:	4632      	mov	r2, r6
 800548c:	4649      	mov	r1, r9
 800548e:	4640      	mov	r0, r8
 8005490:	47d0      	blx	sl
 8005492:	3001      	adds	r0, #1
 8005494:	d09b      	beq.n	80053ce <_printf_i+0x166>
 8005496:	3501      	adds	r5, #1
 8005498:	68e3      	ldr	r3, [r4, #12]
 800549a:	9903      	ldr	r1, [sp, #12]
 800549c:	1a5b      	subs	r3, r3, r1
 800549e:	42ab      	cmp	r3, r5
 80054a0:	dcf2      	bgt.n	8005488 <_printf_i+0x220>
 80054a2:	e7eb      	b.n	800547c <_printf_i+0x214>
 80054a4:	2500      	movs	r5, #0
 80054a6:	f104 0619 	add.w	r6, r4, #25
 80054aa:	e7f5      	b.n	8005498 <_printf_i+0x230>
 80054ac:	08006280 	.word	0x08006280
 80054b0:	08006291 	.word	0x08006291

080054b4 <strchr>:
 80054b4:	4603      	mov	r3, r0
 80054b6:	b2c9      	uxtb	r1, r1
 80054b8:	4618      	mov	r0, r3
 80054ba:	f813 2b01 	ldrb.w	r2, [r3], #1
 80054be:	b112      	cbz	r2, 80054c6 <strchr+0x12>
 80054c0:	428a      	cmp	r2, r1
 80054c2:	d1f9      	bne.n	80054b8 <strchr+0x4>
 80054c4:	4770      	bx	lr
 80054c6:	2900      	cmp	r1, #0
 80054c8:	bf18      	it	ne
 80054ca:	2000      	movne	r0, #0
 80054cc:	4770      	bx	lr

080054ce <memchr>:
 80054ce:	4603      	mov	r3, r0
 80054d0:	b510      	push	{r4, lr}
 80054d2:	b2c9      	uxtb	r1, r1
 80054d4:	4402      	add	r2, r0
 80054d6:	4293      	cmp	r3, r2
 80054d8:	4618      	mov	r0, r3
 80054da:	d101      	bne.n	80054e0 <memchr+0x12>
 80054dc:	2000      	movs	r0, #0
 80054de:	e003      	b.n	80054e8 <memchr+0x1a>
 80054e0:	7804      	ldrb	r4, [r0, #0]
 80054e2:	3301      	adds	r3, #1
 80054e4:	428c      	cmp	r4, r1
 80054e6:	d1f6      	bne.n	80054d6 <memchr+0x8>
 80054e8:	bd10      	pop	{r4, pc}

080054ea <memmove>:
 80054ea:	4288      	cmp	r0, r1
 80054ec:	b510      	push	{r4, lr}
 80054ee:	eb01 0402 	add.w	r4, r1, r2
 80054f2:	d902      	bls.n	80054fa <memmove+0x10>
 80054f4:	4284      	cmp	r4, r0
 80054f6:	4623      	mov	r3, r4
 80054f8:	d807      	bhi.n	800550a <memmove+0x20>
 80054fa:	1e43      	subs	r3, r0, #1
 80054fc:	42a1      	cmp	r1, r4
 80054fe:	d008      	beq.n	8005512 <memmove+0x28>
 8005500:	f811 2b01 	ldrb.w	r2, [r1], #1
 8005504:	f803 2f01 	strb.w	r2, [r3, #1]!
 8005508:	e7f8      	b.n	80054fc <memmove+0x12>
 800550a:	4601      	mov	r1, r0
 800550c:	4402      	add	r2, r0
 800550e:	428a      	cmp	r2, r1
 8005510:	d100      	bne.n	8005514 <memmove+0x2a>
 8005512:	bd10      	pop	{r4, pc}
 8005514:	f813 4d01 	ldrb.w	r4, [r3, #-1]!
 8005518:	f802 4d01 	strb.w	r4, [r2, #-1]!
 800551c:	e7f7      	b.n	800550e <memmove+0x24>
	...

08005520 <_free_r>:
 8005520:	b538      	push	{r3, r4, r5, lr}
 8005522:	4605      	mov	r5, r0
 8005524:	2900      	cmp	r1, #0
 8005526:	d043      	beq.n	80055b0 <_free_r+0x90>
 8005528:	f851 3c04 	ldr.w	r3, [r1, #-4]
 800552c:	1f0c      	subs	r4, r1, #4
 800552e:	2b00      	cmp	r3, #0
 8005530:	bfb8      	it	lt
 8005532:	18e4      	addlt	r4, r4, r3
 8005534:	f000 f8d0 	bl	80056d8 <__malloc_lock>
 8005538:	4a1e      	ldr	r2, [pc, #120]	; (80055b4 <_free_r+0x94>)
 800553a:	6813      	ldr	r3, [r2, #0]
 800553c:	4610      	mov	r0, r2
 800553e:	b933      	cbnz	r3, 800554e <_free_r+0x2e>
 8005540:	6063      	str	r3, [r4, #4]
 8005542:	6014      	str	r4, [r2, #0]
 8005544:	4628      	mov	r0, r5
 8005546:	e8bd 4038 	ldmia.w	sp!, {r3, r4, r5, lr}
 800554a:	f000 b8cb 	b.w	80056e4 <__malloc_unlock>
 800554e:	42a3      	cmp	r3, r4
 8005550:	d90a      	bls.n	8005568 <_free_r+0x48>
 8005552:	6821      	ldr	r1, [r4, #0]
 8005554:	1862      	adds	r2, r4, r1
 8005556:	4293      	cmp	r3, r2
 8005558:	bf01      	itttt	eq
 800555a:	681a      	ldreq	r2, [r3, #0]
 800555c:	685b      	ldreq	r3, [r3, #4]
 800555e:	1852      	addeq	r2, r2, r1
 8005560:	6022      	streq	r2, [r4, #0]
 8005562:	6063      	str	r3, [r4, #4]
 8005564:	6004      	str	r4, [r0, #0]
 8005566:	e7ed      	b.n	8005544 <_free_r+0x24>
 8005568:	461a      	mov	r2, r3
 800556a:	685b      	ldr	r3, [r3, #4]
 800556c:	b10b      	cbz	r3, 8005572 <_free_r+0x52>
 800556e:	42a3      	cmp	r3, r4
 8005570:	d9fa      	bls.n	8005568 <_free_r+0x48>
 8005572:	6811      	ldr	r1, [r2, #0]
 8005574:	1850      	adds	r0, r2, r1
 8005576:	42a0      	cmp	r0, r4
 8005578:	d10b      	bne.n	8005592 <_free_r+0x72>
 800557a:	6820      	ldr	r0, [r4, #0]
 800557c:	4401      	add	r1, r0
 800557e:	1850      	adds	r0, r2, r1
 8005580:	4283      	cmp	r3, r0
 8005582:	6011      	str	r1, [r2, #0]
 8005584:	d1de      	bne.n	8005544 <_free_r+0x24>
 8005586:	6818      	ldr	r0, [r3, #0]
 8005588:	685b      	ldr	r3, [r3, #4]
 800558a:	4401      	add	r1, r0
 800558c:	6011      	str	r1, [r2, #0]
 800558e:	6053      	str	r3, [r2, #4]
 8005590:	e7d8      	b.n	8005544 <_free_r+0x24>
 8005592:	d902      	bls.n	800559a <_free_r+0x7a>
 8005594:	230c      	movs	r3, #12
 8005596:	602b      	str	r3, [r5, #0]
 8005598:	e7d4      	b.n	8005544 <_free_r+0x24>
 800559a:	6820      	ldr	r0, [r4, #0]
 800559c:	1821      	adds	r1, r4, r0
 800559e:	428b      	cmp	r3, r1
 80055a0:	bf01      	itttt	eq
 80055a2:	6819      	ldreq	r1, [r3, #0]
 80055a4:	685b      	ldreq	r3, [r3, #4]
 80055a6:	1809      	addeq	r1, r1, r0
 80055a8:	6021      	streq	r1, [r4, #0]
 80055aa:	6063      	str	r3, [r4, #4]
 80055ac:	6054      	str	r4, [r2, #4]
 80055ae:	e7c9      	b.n	8005544 <_free_r+0x24>
 80055b0:	bd38      	pop	{r3, r4, r5, pc}
 80055b2:	bf00      	nop
 80055b4:	20000398 	.word	0x20000398

080055b8 <_malloc_r>:
 80055b8:	b5f8      	push	{r3, r4, r5, r6, r7, lr}
 80055ba:	1ccd      	adds	r5, r1, #3
 80055bc:	f025 0503 	bic.w	r5, r5, #3
 80055c0:	3508      	adds	r5, #8
 80055c2:	2d0c      	cmp	r5, #12
 80055c4:	bf38      	it	cc
 80055c6:	250c      	movcc	r5, #12
 80055c8:	2d00      	cmp	r5, #0
 80055ca:	4606      	mov	r6, r0
 80055cc:	db01      	blt.n	80055d2 <_malloc_r+0x1a>
 80055ce:	42a9      	cmp	r1, r5
 80055d0:	d903      	bls.n	80055da <_malloc_r+0x22>
 80055d2:	230c      	movs	r3, #12
 80055d4:	6033      	str	r3, [r6, #0]
 80055d6:	2000      	movs	r0, #0
 80055d8:	bdf8      	pop	{r3, r4, r5, r6, r7, pc}
 80055da:	f000 f87d 	bl	80056d8 <__malloc_lock>
 80055de:	4921      	ldr	r1, [pc, #132]	; (8005664 <_malloc_r+0xac>)
 80055e0:	680a      	ldr	r2, [r1, #0]
 80055e2:	4614      	mov	r4, r2
 80055e4:	b99c      	cbnz	r4, 800560e <_malloc_r+0x56>
 80055e6:	4f20      	ldr	r7, [pc, #128]	; (8005668 <_malloc_r+0xb0>)
 80055e8:	683b      	ldr	r3, [r7, #0]
 80055ea:	b923      	cbnz	r3, 80055f6 <_malloc_r+0x3e>
 80055ec:	4621      	mov	r1, r4
 80055ee:	4630      	mov	r0, r6
 80055f0:	f000 f862 	bl	80056b8 <_sbrk_r>
 80055f4:	6038      	str	r0, [r7, #0]
 80055f6:	4629      	mov	r1, r5
 80055f8:	4630      	mov	r0, r6
 80055fa:	f000 f85d 	bl	80056b8 <_sbrk_r>
 80055fe:	1c43      	adds	r3, r0, #1
 8005600:	d123      	bne.n	800564a <_malloc_r+0x92>
 8005602:	230c      	movs	r3, #12
 8005604:	4630      	mov	r0, r6
 8005606:	6033      	str	r3, [r6, #0]
 8005608:	f000 f86c 	bl	80056e4 <__malloc_unlock>
 800560c:	e7e3      	b.n	80055d6 <_malloc_r+0x1e>
 800560e:	6823      	ldr	r3, [r4, #0]
 8005610:	1b5b      	subs	r3, r3, r5
 8005612:	d417      	bmi.n	8005644 <_malloc_r+0x8c>
 8005614:	2b0b      	cmp	r3, #11
 8005616:	d903      	bls.n	8005620 <_malloc_r+0x68>
 8005618:	6023      	str	r3, [r4, #0]
 800561a:	441c      	add	r4, r3
 800561c:	6025      	str	r5, [r4, #0]
 800561e:	e004      	b.n	800562a <_malloc_r+0x72>
 8005620:	6863      	ldr	r3, [r4, #4]
 8005622:	42a2      	cmp	r2, r4
 8005624:	bf0c      	ite	eq
 8005626:	600b      	streq	r3, [r1, #0]
 8005628:	6053      	strne	r3, [r2, #4]
 800562a:	4630      	mov	r0, r6
 800562c:	f000 f85a 	bl	80056e4 <__malloc_unlock>
 8005630:	f104 000b 	add.w	r0, r4, #11
 8005634:	1d23      	adds	r3, r4, #4
 8005636:	f020 0007 	bic.w	r0, r0, #7
 800563a:	1ac2      	subs	r2, r0, r3
 800563c:	d0cc      	beq.n	80055d8 <_malloc_r+0x20>
 800563e:	1a1b      	subs	r3, r3, r0
 8005640:	50a3      	str	r3, [r4, r2]
 8005642:	e7c9      	b.n	80055d8 <_malloc_r+0x20>
 8005644:	4622      	mov	r2, r4
 8005646:	6864      	ldr	r4, [r4, #4]
 8005648:	e7cc      	b.n	80055e4 <_malloc_r+0x2c>
 800564a:	1cc4      	adds	r4, r0, #3
 800564c:	f024 0403 	bic.w	r4, r4, #3
 8005650:	42a0      	cmp	r0, r4
 8005652:	d0e3      	beq.n	800561c <_malloc_r+0x64>
 8005654:	1a21      	subs	r1, r4, r0
 8005656:	4630      	mov	r0, r6
 8005658:	f000 f82e 	bl	80056b8 <_sbrk_r>
 800565c:	3001      	adds	r0, #1
 800565e:	d1dd      	bne.n	800561c <_malloc_r+0x64>
 8005660:	e7cf      	b.n	8005602 <_malloc_r+0x4a>
 8005662:	bf00      	nop
 8005664:	20000398 	.word	0x20000398
 8005668:	2000039c 	.word	0x2000039c

0800566c <_realloc_r>:
 800566c:	b5f8      	push	{r3, r4, r5, r6, r7, lr}
 800566e:	4607      	mov	r7, r0
 8005670:	4614      	mov	r4, r2
 8005672:	460e      	mov	r6, r1
 8005674:	b921      	cbnz	r1, 8005680 <_realloc_r+0x14>
 8005676:	4611      	mov	r1, r2
 8005678:	e8bd 40f8 	ldmia.w	sp!, {r3, r4, r5, r6, r7, lr}
 800567c:	f7ff bf9c 	b.w	80055b8 <_malloc_r>
 8005680:	b922      	cbnz	r2, 800568c <_realloc_r+0x20>
 8005682:	f7ff ff4d 	bl	8005520 <_free_r>
 8005686:	4625      	mov	r5, r4
 8005688:	4628      	mov	r0, r5
 800568a:	bdf8      	pop	{r3, r4, r5, r6, r7, pc}
 800568c:	f000 f830 	bl	80056f0 <_malloc_usable_size_r>
 8005690:	42a0      	cmp	r0, r4
 8005692:	d20f      	bcs.n	80056b4 <_realloc_r+0x48>
 8005694:	4621      	mov	r1, r4
 8005696:	4638      	mov	r0, r7
 8005698:	f7ff ff8e 	bl	80055b8 <_malloc_r>
 800569c:	4605      	mov	r5, r0
 800569e:	2800      	cmp	r0, #0
 80056a0:	d0f2      	beq.n	8005688 <_realloc_r+0x1c>
 80056a2:	4631      	mov	r1, r6
 80056a4:	4622      	mov	r2, r4
 80056a6:	f7ff fb93 	bl	8004dd0 <memcpy>
 80056aa:	4631      	mov	r1, r6
 80056ac:	4638      	mov	r0, r7
 80056ae:	f7ff ff37 	bl	8005520 <_free_r>
 80056b2:	e7e9      	b.n	8005688 <_realloc_r+0x1c>
 80056b4:	4635      	mov	r5, r6
 80056b6:	e7e7      	b.n	8005688 <_realloc_r+0x1c>

080056b8 <_sbrk_r>:
 80056b8:	b538      	push	{r3, r4, r5, lr}
 80056ba:	2300      	movs	r3, #0
 80056bc:	4d05      	ldr	r5, [pc, #20]	; (80056d4 <_sbrk_r+0x1c>)
 80056be:	4604      	mov	r4, r0
 80056c0:	4608      	mov	r0, r1
 80056c2:	602b      	str	r3, [r5, #0]
 80056c4:	f7fb f90a 	bl	80008dc <_sbrk>
 80056c8:	1c43      	adds	r3, r0, #1
 80056ca:	d102      	bne.n	80056d2 <_sbrk_r+0x1a>
 80056cc:	682b      	ldr	r3, [r5, #0]
 80056ce:	b103      	cbz	r3, 80056d2 <_sbrk_r+0x1a>
 80056d0:	6023      	str	r3, [r4, #0]
 80056d2:	bd38      	pop	{r3, r4, r5, pc}
 80056d4:	200013f4 	.word	0x200013f4

080056d8 <__malloc_lock>:
 80056d8:	4801      	ldr	r0, [pc, #4]	; (80056e0 <__malloc_lock+0x8>)
 80056da:	f000 b811 	b.w	8005700 <__retarget_lock_acquire_recursive>
 80056de:	bf00      	nop
 80056e0:	200013fc 	.word	0x200013fc

080056e4 <__malloc_unlock>:
 80056e4:	4801      	ldr	r0, [pc, #4]	; (80056ec <__malloc_unlock+0x8>)
 80056e6:	f000 b80c 	b.w	8005702 <__retarget_lock_release_recursive>
 80056ea:	bf00      	nop
 80056ec:	200013fc 	.word	0x200013fc

080056f0 <_malloc_usable_size_r>:
 80056f0:	f851 3c04 	ldr.w	r3, [r1, #-4]
 80056f4:	1f18      	subs	r0, r3, #4
 80056f6:	2b00      	cmp	r3, #0
 80056f8:	bfbc      	itt	lt
 80056fa:	580b      	ldrlt	r3, [r1, r0]
 80056fc:	18c0      	addlt	r0, r0, r3
 80056fe:	4770      	bx	lr

08005700 <__retarget_lock_acquire_recursive>:
 8005700:	4770      	bx	lr

08005702 <__retarget_lock_release_recursive>:
 8005702:	4770      	bx	lr

08005704 <_init>:
 8005704:	b5f8      	push	{r3, r4, r5, r6, r7, lr}
 8005706:	bf00      	nop
 8005708:	bcf8      	pop	{r3, r4, r5, r6, r7}
 800570a:	bc08      	pop	{r3}
 800570c:	469e      	mov	lr, r3
 800570e:	4770      	bx	lr

08005710 <_fini>:
 8005710:	b5f8      	push	{r3, r4, r5, r6, r7, lr}
 8005712:	bf00      	nop
 8005714:	bcf8      	pop	{r3, r4, r5, r6, r7}
 8005716:	bc08      	pop	{r3}
 8005718:	469e      	mov	lr, r3
 800571a:	4770      	bx	lr
